 bindings

 Timestamp is 5cd3ff71 (Thu May  9 12:22:41 2019)

 Preferred load address is 0000000180000000

 Start         Length     Name                   Class
 0001:00000000 00075a50H .text$mn                CODE
 0001:00075a50 00000020H .text$mn$00             CODE
 0001:00075a70 00000270H .text$x                 CODE
 0002:00000000 00000260H .idata$5                DATA
 0002:00000260 00000010H .00cfg                  DATA
 0002:00000270 00000008H .CRT$XCA                DATA
 0002:00000278 00000008H .CRT$XCU                DATA
 0002:00000280 00000008H .CRT$XCZ                DATA
 0002:00000288 00000008H .CRT$XIA                DATA
 0002:00000290 00000018H .CRT$XIC                DATA
 0002:000002a8 00000008H .CRT$XIZ                DATA
 0002:000002b0 00000008H .CRT$XPA                DATA
 0002:000002b8 00000010H .CRT$XPX                DATA
 0002:000002c8 00000008H .CRT$XPXA               DATA
 0002:000002d0 00000008H .CRT$XPZ                DATA
 0002:000002d8 00000008H .CRT$XTA                DATA
 0002:000002e0 00000010H .CRT$XTZ                DATA
 0002:000002e8 00000000H .gfids$y                DATA
 0002:000002f0 00021738H .rdata                  DATA
 0002:00021a28 000001f4H .rdata$r                DATA
 0002:00021c1c 000003d4H .rdata$zzzdbg           DATA
 0002:00021ff0 00000008H .rtc$IAA                DATA
 0002:00021ff8 00000008H .rtc$IZZ                DATA
 0002:00022000 00000008H .rtc$TAA                DATA
 0002:00022008 00000008H .rtc$TZZ                DATA
 0002:00022010 00004168H .xdata                  DATA
 0002:00026178 000000ecH .xdata$x                DATA
 0002:00026264 00000020H .didat$2                DATA
 0002:00026284 00000024H .didat$3                DATA
 0002:000262a8 00000188H .didat$4                DATA
 0002:00026430 00000c58H .didat$6                DATA
 0002:00027088 00000188H .didat$7                DATA
 0002:00027210 00000054H .edata                  DATA
 0002:00027264 00000014H .idata$2                DATA
 0002:00027278 00000018H .idata$3                DATA
 0002:00027290 00000260H .idata$4                DATA
 0002:000274f0 0000057aH .idata$6                DATA
 0003:00000000 00000d00H .data                   DATA
 0003:00000d00 000000a0H .data$r                 DATA
 0003:00000da0 000001a0H .didat$5                DATA
 0003:00000f40 000236a8H .bss                    DATA
 0004:00000000 00003774H .pdata                  DATA
 0005:00000000 00002f20H _RDATA                  DATA
 0006:00000000 00000060H .rsrc$01                DATA
 0006:00000060 00000180H .rsrc$02                DATA

  Address         Publics by Value              Rva+Base               Lib:Object

 0000:00000000       __guard_fids_count         0000000000000000     <absolute>
 0000:00000000       __guard_longjmp_count      0000000000000000     <absolute>
 0000:00000000       __guard_longjmp_table      0000000000000000     <absolute>
 0000:00000000       __hybrid_code_map          0000000000000000     <absolute>
 0000:00000000       __guard_iat_count          0000000000000000     <absolute>
 0000:00000000       __guard_iat_table          0000000000000000     <absolute>
 0000:00000000       __volatile_metadata        0000000000000000     <absolute>
 0000:00000000       __hybrid_code_map_count    0000000000000000     <absolute>
 0000:00000000       __enclave_config           0000000000000000     <absolute>
 0000:00000000       ___safe_se_handler_count   0000000000000000     <absolute>
 0000:00000000       ___safe_se_handler_table   0000000000000000     <absolute>
 0000:00000000       __guard_fids_table         0000000000000000     <absolute>
 0000:00000000       __hybrid_auxiliary_iat     0000000000000000     <absolute>
 0000:00000000       __dynamic_value_reloc_table 0000000000000000     <absolute>
 0000:00000100       __guard_flags              0000000000000100     <absolute>
 0000:00000000       __ImageBase                0000000180000000     <linker-defined>
 0001:00000000       ?Initialize@nodelame@@YAXV?$Local@VObject@v8@@@v8@@@Z 0000000180001000 f   bindings.obj
 0001:00000120       ?Set@Nan@@YA?AV?$Maybe@_N@v8@@V?$Local@VObject@v8@@@3@V?$Local@VValue@v8@@@3@1@Z 0000000180001120 f i node_lame.obj
 0001:000001a0       ?ForceSet@Nan@@YA?AV?$Maybe@_N@v8@@V?$Local@VObject@v8@@@3@V?$Local@VValue@v8@@@3@1W4PropertyAttribute@3@@Z 00000001800011a0 f i node_lame.obj
 0001:00000230       ??$To@VInteger@v8@@@imp@Nan@@YA?AV?$Local@VInteger@v8@@@v8@@V23@@Z 0000000180001230 f i node_lame.obj
 0001:000002c0       ?node_mpg123_exit@nodelame@@YAXAEBV?$FunctionCallbackInfo@VValue@v8@@@Nan@@@Z 00000001800012c0 f   node_mpg123.obj
 0001:000002c0       _guard_check_icall_nop     00000001800012c0 f   LIBCMT:guard_support.obj
 0001:000002d0       ?node_get_lame_version@nodelame@@YAXAEBV?$FunctionCallbackInfo@VValue@v8@@@Nan@@@Z 00000001800012d0 f   node_lame.obj
 0001:00000340       ?node_get_lame_os_bitness@nodelame@@YAXAEBV?$FunctionCallbackInfo@VValue@v8@@@Nan@@@Z 0000000180001340 f   node_lame.obj
 0001:000003b0       ?node_lame_close@nodelame@@YAXAEBV?$FunctionCallbackInfo@VValue@v8@@@Nan@@@Z 00000001800013b0 f   node_lame.obj
 0001:00000420       ?node_lame_init@nodelame@@YAXAEBV?$FunctionCallbackInfo@VValue@v8@@@Nan@@@Z 0000000180001420 f   node_lame.obj
 0001:000004d0       ?node_lame_encode_buffer@nodelame@@YAXAEBV?$FunctionCallbackInfo@VValue@v8@@@Nan@@@Z 00000001800014d0 f   node_lame.obj
 0001:000008a0       ?node_lame_encode_buffer_async@nodelame@@YAXPEAUuv_work_s@@@Z 00000001800018a0 f   node_lame.obj
 0001:000009e0       ?node_lame_encode_buffer_after@nodelame@@YAXPEAUuv_work_s@@@Z 00000001800019e0 f   node_lame.obj
 0001:00000b90       ?node_lame_encode_flush_nogap@nodelame@@YAXAEBV?$FunctionCallbackInfo@VValue@v8@@@Nan@@@Z 0000000180001b90 f   node_lame.obj
 0001:00000dd0       ?node_lame_encode_flush_nogap_async@nodelame@@YAXPEAUuv_work_s@@@Z 0000000180001dd0 f   node_lame.obj
 0001:00000e90       ?node_lame_get_id3v1_tag@nodelame@@YAXAEBV?$FunctionCallbackInfo@VValue@v8@@@Nan@@@Z 0000000180001e90 f   node_lame.obj
 0001:00000ff0       ?node_lame_get_id3v2_tag@nodelame@@YAXAEBV?$FunctionCallbackInfo@VValue@v8@@@Nan@@@Z 0000000180001ff0 f   node_lame.obj
 0001:00001150       ?node_lame_init_params@nodelame@@YAXAEBV?$FunctionCallbackInfo@VValue@v8@@@Nan@@@Z 0000000180002150 f   node_lame.obj
 0001:00001210       ?node_lame_print_internals@nodelame@@YAXAEBV?$FunctionCallbackInfo@VValue@v8@@@Nan@@@Z 0000000180002210 f   node_lame.obj
 0001:00001280       ?node_lame_print_config@nodelame@@YAXAEBV?$FunctionCallbackInfo@VValue@v8@@@Nan@@@Z 0000000180002280 f   node_lame.obj
 0001:000012f0       ?node_lame_bitrates@nodelame@@YAXAEBV?$FunctionCallbackInfo@VValue@v8@@@Nan@@@Z 00000001800022f0 f   node_lame.obj
 0001:000014f0       ?node_lame_samplerates@nodelame@@YAXAEBV?$FunctionCallbackInfo@VValue@v8@@@Nan@@@Z 00000001800024f0 f   node_lame.obj
 0001:000016f0       ?node_lame_get_num_samples@nodelame@@YAXAEBV?$FunctionCallbackInfo@VValue@v8@@@Nan@@@Z 00000001800026f0 f   node_lame.obj
 0001:000017c0       ?node_lame_set_num_samples@nodelame@@YAXAEBV?$FunctionCallbackInfo@VValue@v8@@@Nan@@@Z 00000001800027c0 f   node_lame.obj
 0001:000018c0       ?node_lame_get_in_samplerate@nodelame@@YAXAEBV?$FunctionCallbackInfo@VValue@v8@@@Nan@@@Z 00000001800028c0 f   node_lame.obj
 0001:00001980       ?node_lame_set_in_samplerate@nodelame@@YAXAEBV?$FunctionCallbackInfo@VValue@v8@@@Nan@@@Z 0000000180002980 f   node_lame.obj
 0001:00001a80       ?node_lame_get_num_channels@nodelame@@YAXAEBV?$FunctionCallbackInfo@VValue@v8@@@Nan@@@Z 0000000180002a80 f   node_lame.obj
 0001:00001b40       ?node_lame_set_num_channels@nodelame@@YAXAEBV?$FunctionCallbackInfo@VValue@v8@@@Nan@@@Z 0000000180002b40 f   node_lame.obj
 0001:00001c50       ?node_lame_get_scale@nodelame@@YAXAEBV?$FunctionCallbackInfo@VValue@v8@@@Nan@@@Z 0000000180002c50 f   node_lame.obj
 0001:00001d10       ?node_lame_set_scale@nodelame@@YAXAEBV?$FunctionCallbackInfo@VValue@v8@@@Nan@@@Z 0000000180002d10 f   node_lame.obj
 0001:00001e20       ?node_lame_get_scale_left@nodelame@@YAXAEBV?$FunctionCallbackInfo@VValue@v8@@@Nan@@@Z 0000000180002e20 f   node_lame.obj
 0001:00001ee0       ?node_lame_set_scale_left@nodelame@@YAXAEBV?$FunctionCallbackInfo@VValue@v8@@@Nan@@@Z 0000000180002ee0 f   node_lame.obj
 0001:00001ff0       ?node_lame_get_scale_right@nodelame@@YAXAEBV?$FunctionCallbackInfo@VValue@v8@@@Nan@@@Z 0000000180002ff0 f   node_lame.obj
 0001:000020b0       ?node_lame_set_scale_right@nodelame@@YAXAEBV?$FunctionCallbackInfo@VValue@v8@@@Nan@@@Z 00000001800030b0 f   node_lame.obj
 0001:000021c0       ?node_lame_get_out_samplerate@nodelame@@YAXAEBV?$FunctionCallbackInfo@VValue@v8@@@Nan@@@Z 00000001800031c0 f   node_lame.obj
 0001:00002280       ?node_lame_set_out_samplerate@nodelame@@YAXAEBV?$FunctionCallbackInfo@VValue@v8@@@Nan@@@Z 0000000180003280 f   node_lame.obj
 0001:00002380       ?node_lame_get_analysis@nodelame@@YAXAEBV?$FunctionCallbackInfo@VValue@v8@@@Nan@@@Z 0000000180003380 f   node_lame.obj
 0001:00002440       ?node_lame_set_analysis@nodelame@@YAXAEBV?$FunctionCallbackInfo@VValue@v8@@@Nan@@@Z 0000000180003440 f   node_lame.obj
 0001:00002540       ?node_lame_get_bWriteVbrTag@nodelame@@YAXAEBV?$FunctionCallbackInfo@VValue@v8@@@Nan@@@Z 0000000180003540 f   node_lame.obj
 0001:00002600       ?node_lame_set_bWriteVbrTag@nodelame@@YAXAEBV?$FunctionCallbackInfo@VValue@v8@@@Nan@@@Z 0000000180003600 f   node_lame.obj
 0001:00002700       ?node_lame_get_quality@nodelame@@YAXAEBV?$FunctionCallbackInfo@VValue@v8@@@Nan@@@Z 0000000180003700 f   node_lame.obj
 0001:000027c0       ?node_lame_set_quality@nodelame@@YAXAEBV?$FunctionCallbackInfo@VValue@v8@@@Nan@@@Z 00000001800037c0 f   node_lame.obj
 0001:000028d0       ?node_lame_get_mode@nodelame@@YAXAEBV?$FunctionCallbackInfo@VValue@v8@@@Nan@@@Z 00000001800038d0 f   node_lame.obj
 0001:000029a0       ?node_lame_set_mode@nodelame@@YAXAEBV?$FunctionCallbackInfo@VValue@v8@@@Nan@@@Z 00000001800039a0 f   node_lame.obj
 0001:00002aa0       ?node_lame_get_brate@nodelame@@YAXAEBV?$FunctionCallbackInfo@VValue@v8@@@Nan@@@Z 0000000180003aa0 f   node_lame.obj
 0001:00002b60       ?node_lame_set_brate@nodelame@@YAXAEBV?$FunctionCallbackInfo@VValue@v8@@@Nan@@@Z 0000000180003b60 f   node_lame.obj
 0001:00002c70       ?node_lame_get_compression_ratio@nodelame@@YAXAEBV?$FunctionCallbackInfo@VValue@v8@@@Nan@@@Z 0000000180003c70 f   node_lame.obj
 0001:00002d30       ?node_lame_set_compression_ratio@nodelame@@YAXAEBV?$FunctionCallbackInfo@VValue@v8@@@Nan@@@Z 0000000180003d30 f   node_lame.obj
 0001:00002e40       ?node_lame_get_copyright@nodelame@@YAXAEBV?$FunctionCallbackInfo@VValue@v8@@@Nan@@@Z 0000000180003e40 f   node_lame.obj
 0001:00002f00       ?node_lame_set_copyright@nodelame@@YAXAEBV?$FunctionCallbackInfo@VValue@v8@@@Nan@@@Z 0000000180003f00 f   node_lame.obj
 0001:00003000       ?node_lame_get_original@nodelame@@YAXAEBV?$FunctionCallbackInfo@VValue@v8@@@Nan@@@Z 0000000180004000 f   node_lame.obj
 0001:000030c0       ?node_lame_set_original@nodelame@@YAXAEBV?$FunctionCallbackInfo@VValue@v8@@@Nan@@@Z 00000001800040c0 f   node_lame.obj
 0001:000031c0       ?node_lame_get_error_protection@nodelame@@YAXAEBV?$FunctionCallbackInfo@VValue@v8@@@Nan@@@Z 00000001800041c0 f   node_lame.obj
 0001:00003280       ?node_lame_set_error_protection@nodelame@@YAXAEBV?$FunctionCallbackInfo@VValue@v8@@@Nan@@@Z 0000000180004280 f   node_lame.obj
 0001:00003380       ?node_lame_get_extension@nodelame@@YAXAEBV?$FunctionCallbackInfo@VValue@v8@@@Nan@@@Z 0000000180004380 f   node_lame.obj
 0001:00003440       ?node_lame_set_extension@nodelame@@YAXAEBV?$FunctionCallbackInfo@VValue@v8@@@Nan@@@Z 0000000180004440 f   node_lame.obj
 0001:00003540       ?node_lame_get_strict_ISO@nodelame@@YAXAEBV?$FunctionCallbackInfo@VValue@v8@@@Nan@@@Z 0000000180004540 f   node_lame.obj
 0001:00003600       ?node_lame_set_strict_ISO@nodelame@@YAXAEBV?$FunctionCallbackInfo@VValue@v8@@@Nan@@@Z 0000000180004600 f   node_lame.obj
 0001:00003700       ?node_lame_get_disable_reservoir@nodelame@@YAXAEBV?$FunctionCallbackInfo@VValue@v8@@@Nan@@@Z 0000000180004700 f   node_lame.obj
 0001:000037d0       ?node_lame_set_disable_reservoir@nodelame@@YAXAEBV?$FunctionCallbackInfo@VValue@v8@@@Nan@@@Z 00000001800047d0 f   node_lame.obj
 0001:000038e0       ?node_lame_get_quant_comp@nodelame@@YAXAEBV?$FunctionCallbackInfo@VValue@v8@@@Nan@@@Z 00000001800048e0 f   node_lame.obj
 0001:000039b0       ?node_lame_set_quant_comp@nodelame@@YAXAEBV?$FunctionCallbackInfo@VValue@v8@@@Nan@@@Z 00000001800049b0 f   node_lame.obj
 0001:00003ab0       ?node_lame_get_quant_comp_short@nodelame@@YAXAEBV?$FunctionCallbackInfo@VValue@v8@@@Nan@@@Z 0000000180004ab0 f   node_lame.obj
 0001:00003b80       ?node_lame_set_quant_comp_short@nodelame@@YAXAEBV?$FunctionCallbackInfo@VValue@v8@@@Nan@@@Z 0000000180004b80 f   node_lame.obj
 0001:00003c80       ?node_lame_get_exp_nspsytune@nodelame@@YAXAEBV?$FunctionCallbackInfo@VValue@v8@@@Nan@@@Z 0000000180004c80 f   node_lame.obj
 0001:00003d50       ?node_lame_set_exp_nspsytune@nodelame@@YAXAEBV?$FunctionCallbackInfo@VValue@v8@@@Nan@@@Z 0000000180004d50 f   node_lame.obj
 0001:00003e50       ?node_lame_get_VBR@nodelame@@YAXAEBV?$FunctionCallbackInfo@VValue@v8@@@Nan@@@Z 0000000180004e50 f   node_lame.obj
 0001:00003f20       ?node_lame_set_VBR@nodelame@@YAXAEBV?$FunctionCallbackInfo@VValue@v8@@@Nan@@@Z 0000000180004f20 f   node_lame.obj
 0001:00004030       ?node_lame_get_VBR_q@nodelame@@YAXAEBV?$FunctionCallbackInfo@VValue@v8@@@Nan@@@Z 0000000180005030 f   node_lame.obj
 0001:00004100       ?node_lame_set_VBR_q@nodelame@@YAXAEBV?$FunctionCallbackInfo@VValue@v8@@@Nan@@@Z 0000000180005100 f   node_lame.obj
 0001:00004220       ?node_lame_get_VBR_quality@nodelame@@YAXAEBV?$FunctionCallbackInfo@VValue@v8@@@Nan@@@Z 0000000180005220 f   node_lame.obj
 0001:000042f0       ?node_lame_set_VBR_quality@nodelame@@YAXAEBV?$FunctionCallbackInfo@VValue@v8@@@Nan@@@Z 00000001800052f0 f   node_lame.obj
 0001:00004440       ?node_lame_get_VBR_mean_bitrate_kbps@nodelame@@YAXAEBV?$FunctionCallbackInfo@VValue@v8@@@Nan@@@Z 0000000180005440 f   node_lame.obj
 0001:00004510       ?node_lame_set_VBR_mean_bitrate_kbps@nodelame@@YAXAEBV?$FunctionCallbackInfo@VValue@v8@@@Nan@@@Z 0000000180005510 f   node_lame.obj
 0001:00004610       ?node_lame_get_VBR_min_bitrate_kbps@nodelame@@YAXAEBV?$FunctionCallbackInfo@VValue@v8@@@Nan@@@Z 0000000180005610 f   node_lame.obj
 0001:000046e0       ?node_lame_set_VBR_min_bitrate_kbps@nodelame@@YAXAEBV?$FunctionCallbackInfo@VValue@v8@@@Nan@@@Z 00000001800056e0 f   node_lame.obj
 0001:000047e0       ?node_lame_get_VBR_max_bitrate_kbps@nodelame@@YAXAEBV?$FunctionCallbackInfo@VValue@v8@@@Nan@@@Z 00000001800057e0 f   node_lame.obj
 0001:000048b0       ?node_lame_set_VBR_max_bitrate_kbps@nodelame@@YAXAEBV?$FunctionCallbackInfo@VValue@v8@@@Nan@@@Z 00000001800058b0 f   node_lame.obj
 0001:000049b0       ?node_lame_get_VBR_hard_min@nodelame@@YAXAEBV?$FunctionCallbackInfo@VValue@v8@@@Nan@@@Z 00000001800059b0 f   node_lame.obj
 0001:00004a80       ?node_lame_set_VBR_hard_min@nodelame@@YAXAEBV?$FunctionCallbackInfo@VValue@v8@@@Nan@@@Z 0000000180005a80 f   node_lame.obj
 0001:00004b90       ?node_lame_get_lowpassfreq@nodelame@@YAXAEBV?$FunctionCallbackInfo@VValue@v8@@@Nan@@@Z 0000000180005b90 f   node_lame.obj
 0001:00004c60       ?node_lame_set_lowpassfreq@nodelame@@YAXAEBV?$FunctionCallbackInfo@VValue@v8@@@Nan@@@Z 0000000180005c60 f   node_lame.obj
 0001:00004d60       ?node_lame_get_lowpasswidth@nodelame@@YAXAEBV?$FunctionCallbackInfo@VValue@v8@@@Nan@@@Z 0000000180005d60 f   node_lame.obj
 0001:00004e30       ?node_lame_set_lowpasswidth@nodelame@@YAXAEBV?$FunctionCallbackInfo@VValue@v8@@@Nan@@@Z 0000000180005e30 f   node_lame.obj
 0001:00004f30       ?node_lame_get_highpassfreq@nodelame@@YAXAEBV?$FunctionCallbackInfo@VValue@v8@@@Nan@@@Z 0000000180005f30 f   node_lame.obj
 0001:00005000       ?node_lame_set_highpassfreq@nodelame@@YAXAEBV?$FunctionCallbackInfo@VValue@v8@@@Nan@@@Z 0000000180006000 f   node_lame.obj
 0001:00005100       ?node_lame_get_highpasswidth@nodelame@@YAXAEBV?$FunctionCallbackInfo@VValue@v8@@@Nan@@@Z 0000000180006100 f   node_lame.obj
 0001:000051d0       ?node_lame_set_highpasswidth@nodelame@@YAXAEBV?$FunctionCallbackInfo@VValue@v8@@@Nan@@@Z 00000001800061d0 f   node_lame.obj
 0001:000052d0       ?InitLame@nodelame@@YAXV?$Local@VObject@v8@@@v8@@@Z 00000001800062d0 f   node_lame.obj
 0001:00006db0       ??$SetMethod@VObject@v8@@VLocal@2@@Nan@@YAXV?$Local@VObject@v8@@@v8@@PEBDP6AXAEBV?$FunctionCallbackInfo@VValue@v8@@@0@@Z@Z 0000000180007db0 f i node_lame.obj
 0001:00006fe0       ??$SetMethodAux@V?$Local@VObject@v8@@@v8@@@imp@Nan@@YAXV?$Local@VObject@v8@@@v8@@V?$Local@VString@v8@@@3@V?$Local@VFunctionTemplate@v8@@@3@ZZ 0000000180007fe0 f i node_lame.obj
 0001:000070b0       ?node_mpg123_init@nodelame@@YAXAEBV?$FunctionCallbackInfo@VValue@v8@@@Nan@@@Z 00000001800080b0 f   node_mpg123.obj
 0001:00007170       ?node_mpg123_new@nodelame@@YAXAEBV?$FunctionCallbackInfo@VValue@v8@@@Nan@@@Z 0000000180008170 f   node_mpg123.obj
 0001:000072f0       ?node_mpg123_current_decoder@nodelame@@YAXAEBV?$FunctionCallbackInfo@VValue@v8@@@Nan@@@Z 00000001800082f0 f   node_mpg123.obj
 0001:000073c0       ?node_mpg123_decoders@nodelame@@YAXAEBV?$FunctionCallbackInfo@VValue@v8@@@Nan@@@Z 00000001800083c0 f   node_mpg123.obj
 0001:000073c0       ?node_mpg123_supported_decoders@nodelame@@YAXAEBV?$FunctionCallbackInfo@VValue@v8@@@Nan@@@Z 00000001800083c0 f   node_mpg123.obj
 0001:00007520       ?node_mpg123_open_feed@nodelame@@YAXAEBV?$FunctionCallbackInfo@VValue@v8@@@Nan@@@Z 0000000180008520 f   node_mpg123.obj
 0001:000076b0       ?node_mpg123_getformat@nodelame@@YAXAEBV?$FunctionCallbackInfo@VValue@v8@@@Nan@@@Z 00000001800086b0 f   node_mpg123.obj
 0001:00007fd0       ?node_mpg123_safe_buffer@nodelame@@YAXAEBV?$FunctionCallbackInfo@VValue@v8@@@Nan@@@Z 0000000180008fd0 f   node_mpg123.obj
 0001:00008040       ?node_mpg123_outblock@nodelame@@YAXAEBV?$FunctionCallbackInfo@VValue@v8@@@Nan@@@Z 0000000180009040 f   node_mpg123.obj
 0001:00008110       ?node_mpg123_framepos@nodelame@@YAXAEBV?$FunctionCallbackInfo@VValue@v8@@@Nan@@@Z 0000000180009110 f   node_mpg123.obj
 0001:000081d0       ?node_mpg123_tell@nodelame@@YAXAEBV?$FunctionCallbackInfo@VValue@v8@@@Nan@@@Z 00000001800091d0 f   node_mpg123.obj
 0001:00008290       ?node_mpg123_tellframe@nodelame@@YAXAEBV?$FunctionCallbackInfo@VValue@v8@@@Nan@@@Z 0000000180009290 f   node_mpg123.obj
 0001:00008380       ?node_mpg123_tell_stream@nodelame@@YAXAEBV?$FunctionCallbackInfo@VValue@v8@@@Nan@@@Z 0000000180009380 f   node_mpg123.obj
 0001:00008450       ?node_mpg123_feed@nodelame@@YAXAEBV?$FunctionCallbackInfo@VValue@v8@@@Nan@@@Z 0000000180009450 f   node_mpg123.obj
 0001:00008630       ?node_mpg123_feed_async@nodelame@@YAXPEAUuv_work_s@@@Z 0000000180009630 f   node_mpg123.obj
 0001:00008660       ?node_mpg123_feed_after@nodelame@@YAXPEAUuv_work_s@@@Z 0000000180009660 f   node_mpg123.obj
 0001:00008810       ?node_mpg123_read@nodelame@@YAXAEBV?$FunctionCallbackInfo@VValue@v8@@@Nan@@@Z 0000000180009810 f   node_mpg123.obj
 0001:000089f0       ?node_mpg123_read_async@nodelame@@YAXPEAUuv_work_s@@@Z 00000001800099f0 f   node_mpg123.obj
 0001:00008b90       ?node_mpg123_read_after@nodelame@@YAXPEAUuv_work_s@@@Z 0000000180009b90 f   node_mpg123.obj
 0001:00008e40       ?node_mpg123_id3@nodelame@@YAXAEBV?$FunctionCallbackInfo@VValue@v8@@@Nan@@@Z 0000000180009e40 f   node_mpg123.obj
 0001:00008f60       ?node_mpg123_id3_async@nodelame@@YAXPEAUuv_work_s@@@Z 0000000180009f60 f   node_mpg123.obj
 0001:00008f90       ?node_mpg123_id3_after@nodelame@@YAXPEAUuv_work_s@@@Z 0000000180009f90 f   node_mpg123.obj
 0001:0000ad70       ?InitMPG123@nodelame@@YAXV?$Local@VObject@v8@@@v8@@@Z 000000018000bd70 f   node_mpg123.obj
 0001:0000e8c0       lame_init_params           000000018000f8c0 f   libmp3lame:lame.obj
 0001:000105b0       lame_print_config          00000001800115b0 f   libmp3lame:lame.obj
 0001:00010930       lame_print_internals       0000000180011930 f   libmp3lame:lame.obj
 0001:00011e80       lame_init_bitstream        0000000180012e80 f   libmp3lame:lame.obj
 0001:00012100       lame_close                 0000000180013100 f   libmp3lame:lame.obj
 0001:00012180       lame_init                  0000000180013180 f   libmp3lame:lame.obj
 0001:00012510       __local_stdio_printf_options 0000000180013510 f i libmp3lame:id3tag.obj
 0001:00012520       sprintf                    0000000180013520 f i libmp3lame:id3tag.obj
 0001:00012d10       lame_get_id3v2_tag         0000000180013d10 f   libmp3lame:id3tag.obj
 0001:00013150       lame_get_id3v1_tag         0000000180014150 f   libmp3lame:id3tag.obj
 0001:00013840       CRC_writeheader            0000000180014840 f   libmp3lame:bitstream.obj
 0001:00016af0       compute_flushbits          0000000180017af0 f   libmp3lame:bitstream.obj
 0001:00016bf0       add_dummy_byte             0000000180017bf0 f   libmp3lame:bitstream.obj
 0001:00016cd0       format_bitstream           0000000180017cd0 f   libmp3lame:bitstream.obj
 0001:00016ef0       copy_buffer                0000000180017ef0 f   libmp3lame:bitstream.obj
 0001:00018020       apply_preset               0000000180019020 f   libmp3lame:presets.obj
 0001:0001bac0       L3psycho_anal_vbr          000000018001cac0 f   libmp3lame:psymodel.obj
 0001:0001d770       psymodel_init              000000018001e770 f   libmp3lame:psymodel.obj
 0001:0001eb40       free_id3tag                000000018001fb40 f   libmp3lame:util.obj
 0001:0001ec50       freegfc                    000000018001fc50 f   libmp3lame:util.obj
 0001:0001eee0       ATHformula                 000000018001fee0 f   libmp3lame:util.obj
 0001:0001efb0       FindNearestBitrate         000000018001ffb0 f   libmp3lame:util.obj
 0001:0001f030       nearestBitrateFullIndex    0000000180020030 f   libmp3lame:util.obj
 0001:0001f110       BitrateIndex               0000000180020110 f   libmp3lame:util.obj
 0001:0001f160       SmpFrqIndex                0000000180020160 f   libmp3lame:util.obj
 0001:0001fc20       lame_report_def            0000000180020c20 f   libmp3lame:util.obj
 0001:0001fc80       lame_msgf                  0000000180020c80 f   libmp3lame:util.obj
 0001:0001fcc0       lame_errorf                0000000180020cc0 f   libmp3lame:util.obj
 0001:000201f0       iteration_init             00000001800211f0 f   libmp3lame:quantize_pvt.obj
 0001:00020870       on_pe                      0000000180021870 f   libmp3lame:quantize_pvt.obj
 0001:00020be0       reduce_side                0000000180021be0 f   libmp3lame:quantize_pvt.obj
 0001:00020cb0       athAdjust                  0000000180021cb0 f   libmp3lame:quantize_pvt.obj
 0001:00020e20       calc_xmin                  0000000180021e20 f   libmp3lame:quantize_pvt.obj
 0001:00021450       calc_noise                 0000000180022450 f   libmp3lame:quantize_pvt.obj
 0001:000255c0       VBR_old_iteration_loop     00000001800265c0 f   libmp3lame:quantize.obj
 0001:00025e60       VBR_new_iteration_loop     0000000180026e60 f   libmp3lame:quantize.obj
 0001:00026520       ABR_iteration_loop         0000000180027520 f   libmp3lame:quantize.obj
 0001:00026950       CBR_iteration_loop         0000000180027950 f   libmp3lame:quantize.obj
 0001:00027200       AnalyzeSamples             0000000180028200 f   libmp3lame:gain_analysis.obj
 0001:00027990       GetTitleGain               0000000180028990 f   libmp3lame:gain_analysis.obj
 0001:00027cf0       lame_encode_mp3_frame      0000000180028cf0 f   libmp3lame:encoder.obj
 0001:00029830       noquant_count_bits         000000018002a830 f   libmp3lame:takehiro.obj
 0001:00029ad0       count_bits                 000000018002aad0 f   libmp3lame:takehiro.obj
 0001:00029e00       best_huffman_divide        000000018002ae00 f   libmp3lame:takehiro.obj
 0001:0002a890       best_scalefac_store        000000018002b890 f   libmp3lame:takehiro.obj
 0001:0002b720       fft_short                  000000018002c720 f   libmp3lame:fft.obj
 0001:0002bad0       fft_long                   000000018002cad0 f   libmp3lame:fft.obj
 0001:0002bfb0       init_fft                   000000018002cfb0 f   libmp3lame:fft.obj
 0001:0002c170       ResvFrameBegin             000000018002d170 f   libmp3lame:reservoir.obj
 0001:0002f8c0       VBR_encode_frame           00000001800308c0 f   libmp3lame:vbrquantize.obj
 0001:00031fb0       mdct_sub48                 0000000180032fb0 f   libmp3lame:newmdct.obj
 0001:00032dd0       fprintf                    0000000180033dd0 f i libmpg123:libmpg123.obj
 0001:00032fd0       mpg123_init                0000000180033fd0 f   libmpg123:libmpg123.obj
 0001:00033380       INT123_decode_update       0000000180034380 f   libmpg123:libmpg123.obj
 0001:00033c50       mpg123_feed                0000000180034c50 f   libmpg123:libmpg123.obj
 0001:00033cf0       mpg123_tell                0000000180034cf0 f   libmpg123:libmpg123.obj
 0001:00033de0       mpg123_id3                 0000000180034de0 f   libmpg123:libmpg123.obj
 0001:00034030       mpg123_close               0000000180035030 f   libmpg123:libmpg123.obj
 0001:000340c0       mpg123_resize_string       00000001800350c0 f   libmpg123:stringbuf.obj
 0001:00034150       mpg123_strlen              0000000180035150 f   libmpg123:stringbuf.obj
 0001:00034210       INT123_set_synth_functions 0000000180035210 f   libmpg123:optimize.obj
 0001:00034520       INT123_frame_cpu_opt       0000000180035520 f   libmpg123:optimize.obj
 0001:00034800       INT123_frame_init_par      0000000180035800 f   libmpg123:frame.obj
 0001:00034cc0       INT123_frame_outbuffer     0000000180035cc0 f   libmpg123:frame.obj
 0001:00034df0       INT123_frame_buffers       0000000180035df0 f   libmpg123:frame.obj
 0001:00034fd0       INT123_frame_buffers_reset 0000000180035fd0 f   libmpg123:frame.obj
 0001:00035350       INT123_frame_exit          0000000180036350 f   libmpg123:frame.obj
 0001:00035610       INT123_frame_index_find    0000000180036610 f   libmpg123:frame.obj
 0001:000356d0       INT123_frame_ins2outs      00000001800366d0 f   libmpg123:frame.obj
 0001:000357f0       INT123_frame_outs          00000001800367f0 f   libmpg123:frame.obj
 0001:00035970       INT123_frame_offset        0000000180036970 f   libmpg123:frame.obj
 0001:00035ad0       INT123_frame_gapless_init  0000000180036ad0 f   libmpg123:frame.obj
 0001:00035b70       INT123_frame_gapless_realinit 0000000180036b70 f   libmpg123:frame.obj
 0001:00035c00       INT123_frame_set_frameseek 0000000180036c00 f   libmpg123:frame.obj
 0001:00035d00       INT123_do_rva              0000000180036d00 f   libmpg123:frame.obj
 0001:00035e50       INT123_fi_resize           0000000180036e50 f   libmpg123:index.obj
 0001:00036160       INT123_id3_to_utf8         0000000180037160 f   libmpg123:id3.obj
 0001:00037290       INT123_parse_new_id3       0000000180038290 f   libmpg123:id3.obj
 0001:00038680       INT123_frame_output_format 0000000180039680 f   libmpg123:format.obj
 0001:00038a60       mpg123_fmt_all             0000000180039a60 f   libmpg123:format.obj
 0001:0003a190       INT123_init_layer12_table  000000018003b190 f   libmpg123:layer2.obj
 0001:0003b560       INT123_do_layer2           000000018003c560 f   libmpg123:layer2.obj
 0001:0003b6e0       INT123_ntom_val            000000018003c6e0 f   libmpg123:ntom.obj
 0001:0003b770       INT123_init_layer3         000000018003c770 f   libmpg123:layer3.obj
 0001:0003c6f0       INT123_init_layer3_stuff   000000018003d6f0 f   libmpg123:layer3.obj
 0001:00040c20       INT123_dct36               0000000180041c20 f   libmpg123:layer3.obj
 0001:00041d80       INT123_do_layer3           0000000180042d80 f   libmpg123:layer3.obj
 0001:00042300       __local_stdio_scanf_options 0000000180043300 f i libmpg123:parse.obj
 0001:00042310       sscanf                     0000000180043310 f i libmpg123:parse.obj
 0001:00042d10       INT123_read_frame          0000000180043d10 f   libmpg123:parse.obj
 0001:00043920       INT123_compute_bpf         0000000180044920 f   libmpg123:parse.obj
 0001:00044180       INT123_make_decode_tables  0000000180045180 f   libmpg123:tabinit.obj
 0001:000448c0       INT123_make_conv16to8_table 00000001800458c0 f   libmpg123:tabinit.obj
 0001:00044e20       INT123_synth_1to1_s32      0000000180045e20 f   libmpg123:synth_s32.obj
 0001:00045380       INT123_synth_1to1_s32_mono 0000000180046380 f   libmpg123:synth_s32.obj
 0001:000454e0       INT123_synth_1to1_s32_m2s  00000001800464e0 f   libmpg123:synth_s32.obj
 0001:00045650       INT123_synth_1to1_s32_i386 0000000180046650 f   libmpg123:synth_s32.obj
 0001:00045e40       INT123_synth_2to1_s32      0000000180046e40 f   libmpg123:synth_s32.obj
 0001:000463a0       INT123_synth_2to1_s32_mono 00000001800473a0 f   libmpg123:synth_s32.obj
 0001:000464c0       INT123_synth_2to1_s32_m2s  00000001800474c0 f   libmpg123:synth_s32.obj
 0001:00046560       INT123_synth_2to1_s32_i386 0000000180047560 f   libmpg123:synth_s32.obj
 0001:00046b10       INT123_synth_4to1_s32      0000000180047b10 f   libmpg123:synth_s32.obj
 0001:00047050       INT123_synth_4to1_s32_mono 0000000180048050 f   libmpg123:synth_s32.obj
 0001:00047120       INT123_synth_4to1_s32_m2s  0000000180048120 f   libmpg123:synth_s32.obj
 0001:00047190       INT123_synth_4to1_s32_i386 0000000180048190 f   libmpg123:synth_s32.obj
 0001:00047950       INT123_synth_ntom_s32_mono 0000000180048950 f   libmpg123:synth_s32.obj
 0001:00047a30       INT123_synth_ntom_s32_m2s  0000000180048a30 f   libmpg123:synth_s32.obj
 0001:00047ab0       INT123_synth_ntom_s32      0000000180048ab0 f   libmpg123:synth_s32.obj
 0001:00047fd0       INT123_synth_1to1          0000000180048fd0 f   libmpg123:synth.obj
 0001:00048550       INT123_synth_1to1_mono     0000000180049550 f   libmpg123:synth.obj
 0001:000486e0       INT123_synth_1to1_m2s      00000001800496e0 f   libmpg123:synth.obj
 0001:00048820       INT123_synth_1to1_i386     0000000180049820 f   libmpg123:synth.obj
 0001:00049050       INT123_synth_2to1          000000018004a050 f   libmpg123:synth.obj
 0001:000495d0       INT123_synth_2to1_mono     000000018004a5d0 f   libmpg123:synth.obj
 0001:000496f0       INT123_synth_2to1_m2s      000000018004a6f0 f   libmpg123:synth.obj
 0001:000497b0       INT123_synth_2to1_i386     000000018004a7b0 f   libmpg123:synth.obj
 0001:00049d80       INT123_synth_4to1          000000018004ad80 f   libmpg123:synth.obj
 0001:0004a2e0       INT123_synth_4to1_mono     000000018004b2e0 f   libmpg123:synth.obj
 0001:0004a3c0       INT123_synth_4to1_m2s      000000018004b3c0 f   libmpg123:synth.obj
 0001:0004a440       INT123_synth_4to1_i386     000000018004b440 f   libmpg123:synth.obj
 0001:0004ac50       INT123_synth_ntom_mono     000000018004bc50 f   libmpg123:synth.obj
 0001:0004ad30       INT123_synth_ntom_m2s      000000018004bd30 f   libmpg123:synth.obj
 0001:0004adc0       INT123_synth_ntom          000000018004bdc0 f   libmpg123:synth.obj
 0001:0004b2e0       INT123_synth_1to1_real     000000018004c2e0 f   libmpg123:synth_real.obj
 0001:0004b7a0       INT123_synth_1to1_real_mono 000000018004c7a0 f   libmpg123:synth_real.obj
 0001:0004b980       INT123_synth_1to1_real_m2s 000000018004c980 f   libmpg123:synth_real.obj
 0001:0004bb20       INT123_synth_1to1_real_i386 000000018004cb20 f   libmpg123:synth_real.obj
 0001:0004c520       INT123_synth_2to1_real     000000018004d520 f   libmpg123:synth_real.obj
 0001:0004c9e0       INT123_synth_2to1_real_mono 000000018004d9e0 f   libmpg123:synth_real.obj
 0001:0004cb40       INT123_synth_2to1_real_m2s 000000018004db40 f   libmpg123:synth_real.obj
 0001:0004cc00       INT123_synth_2to1_real_i386 000000018004dc00 f   libmpg123:synth_real.obj
 0001:0004d3e0       INT123_synth_4to1_real     000000018004e3e0 f   libmpg123:synth_real.obj
 0001:0004d880       INT123_synth_4to1_real_mono 000000018004e880 f   libmpg123:synth_real.obj
 0001:0004d970       INT123_synth_4to1_real_m2s 000000018004e970 f   libmpg123:synth_real.obj
 0001:0004d9f0       INT123_synth_4to1_real_i386 000000018004e9f0 f   libmpg123:synth_real.obj
 0001:0004e310       INT123_synth_ntom_real_mono 000000018004f310 f   libmpg123:synth_real.obj
 0001:0004e3f0       INT123_synth_ntom_real_m2s 000000018004f3f0 f   libmpg123:synth_real.obj
 0001:0004e470       INT123_synth_ntom_real     000000018004f470 f   libmpg123:synth_real.obj
 0001:0004e8f0       INT123_synth_1to1_8bit     000000018004f8f0 f   libmpg123:synth_8bit.obj
 0001:0004ee70       INT123_synth_1to1_8bit_mono 000000018004fe70 f   libmpg123:synth_8bit.obj
 0001:0004efe0       INT123_synth_1to1_8bit_m2s 000000018004ffe0 f   libmpg123:synth_8bit.obj
 0001:0004f100       INT123_synth_1to1_8bit_i386 0000000180050100 f   libmpg123:synth_8bit.obj
 0001:0004f950       INT123_synth_1to1_8bit_wrap 0000000180050950 f   libmpg123:synth_8bit.obj
 0001:0004fcf0       INT123_synth_1to1_8bit_wrap_mono 0000000180050cf0 f   libmpg123:synth_8bit.obj
 0001:00050070       INT123_synth_1to1_8bit_wrap_m2s 0000000180051070 f   libmpg123:synth_8bit.obj
 0001:00050150       INT123_synth_2to1_8bit     0000000180051150 f   libmpg123:synth_8bit.obj
 0001:000506f0       INT123_synth_2to1_8bit_mono 00000001800516f0 f   libmpg123:synth_8bit.obj
 0001:00050800       INT123_synth_2to1_8bit_m2s 0000000180051800 f   libmpg123:synth_8bit.obj
 0001:000508b0       INT123_synth_2to1_8bit_i386 00000001800518b0 f   libmpg123:synth_8bit.obj
 0001:00050ec0       INT123_synth_4to1_8bit     0000000180051ec0 f   libmpg123:synth_8bit.obj
 0001:00051430       INT123_synth_4to1_8bit_mono 0000000180052430 f   libmpg123:synth_8bit.obj
 0001:00051500       INT123_synth_4to1_8bit_m2s 0000000180052500 f   libmpg123:synth_8bit.obj
 0001:00051580       INT123_synth_4to1_8bit_i386 0000000180052580 f   libmpg123:synth_8bit.obj
 0001:00051dd0       INT123_synth_ntom_8bit_mono 0000000180052dd0 f   libmpg123:synth_8bit.obj
 0001:00051eb0       INT123_synth_ntom_8bit_m2s 0000000180052eb0 f   libmpg123:synth_8bit.obj
 0001:00051f30       INT123_synth_ntom_8bit     0000000180052f30 f   libmpg123:synth_8bit.obj
 0001:00053e60       INT123_do_layer1           0000000180054e60 f   libmpg123:layer1.obj
 0001:00053f70       INT123_do_equalizer        0000000180054f70 f   libmpg123:equalizer.obj
 0001:000541a0       INT123_dct64               00000001800551a0 f   libmpg123:dct64.obj
 0001:00055d20       init_xrpow_core_sse        0000000180056d20 f   liblamevectorroutines:xmm_quantize_sub.obj
 0001:00055e97       __imp_load_?GetCurrent@Isolate@v8@@SAPEAV12@XZ 0000000180056e97 f   node:node.exe
 0001:00055ea3       __tailMerge_node_exe       0000000180056ea3     node:node.exe
 0001:00055f1c       __imp_load_??1HandleScope@v8@@QEAA@XZ 0000000180056f1c f   node:node.exe
 0001:00055f28       __imp_load_??0HandleScope@v8@@QEAA@PEAVIsolate@1@@Z 0000000180056f28 f   node:node.exe
 0001:00055f34       __imp_load_node_module_register 0000000180056f34 f   node:node.exe
 0001:00055f40       __imp_load_uv_queue_work   0000000180056f40 f   node:node.exe
 0001:00055f4c       __imp_load_?Global@Context@v8@@QEAA?AV?$Local@VObject@v8@@@2@XZ 0000000180056f4c f   node:node.exe
 0001:00055f58       __imp_load_?Value@External@v8@@QEBAPEAXXZ 0000000180056f58 f   node:node.exe
 0001:00055f64       __imp_load_?New@External@v8@@SA?AV?$Local@VExternal@v8@@@2@PEAVIsolate@2@PEAX@Z 0000000180056f64 f   node:node.exe
 0001:00055f70       __imp_load_?NewFromUnsigned@Integer@v8@@SA?AV?$Local@VInteger@v8@@@2@PEAVIsolate@2@I@Z 0000000180056f70 f   node:node.exe
 0001:00055f7c       __imp_load_?New@Integer@v8@@SA?AV?$Local@VInteger@v8@@@2@PEAVIsolate@2@H@Z 0000000180056f7c f   node:node.exe
 0001:00055f88       __imp_load_?GetCurrentContext@Isolate@v8@@QEAA?AV?$Local@VContext@v8@@@2@XZ 0000000180056f88 f   node:node.exe
 0001:00055f94       __imp_load_?CreateHandle@HandleScope@v8@@KAPEAPEAVObject@internal@2@PEAVIsolate@42@PEAV342@@Z 0000000180056f94 f   node:node.exe
 0001:00055fa0       __imp_load_?CreateHandle@HandleScope@v8@@CAPEAPEAVObject@internal@2@PEAVHeapObject@42@PEAV342@@Z 0000000180056fa0 f   node:node.exe
 0001:00055fac       __imp_load_?New@Array@v8@@SA?AV?$Local@VArray@v8@@@2@PEAVIsolate@2@H@Z 0000000180056fac f   node:node.exe
 0001:00055fb8       __imp_load_?SetClassName@FunctionTemplate@v8@@QEAAXV?$Local@VString@v8@@@2@@Z 0000000180056fb8 f   node:node.exe
 0001:00055fc4       __imp_load_?GetFunction@FunctionTemplate@v8@@QEAA?AV?$MaybeLocal@VFunction@v8@@@2@V?$Local@VContext@v8@@@2@@Z 0000000180056fc4 f   node:node.exe
 0001:00055fd0       __imp_load_?New@FunctionTemplate@v8@@SA?AV?$Local@VFunctionTemplate@v8@@@2@PEAVIsolate@2@P6AXAEBV?$FunctionCallbackInfo@VValue@v8@@@2@@ZV?$Local@VValue@v8@@@2@V?$Local@VSignature@v8@@@2@HW4ConstructorBehavior@2@@Z 0000000180056fd0 f   node:node.exe
 0001:00055fdc       __imp_load_?ToLocalEmpty@V8@v8@@CAXXZ 0000000180056fdc f   node:node.exe
 0001:00055fe8       __imp_load_?DisposeGlobal@V8@v8@@CAXPEAPEAVObject@internal@2@@Z 0000000180056fe8 f   node:node.exe
 0001:00055ff4       __imp_load_?GlobalizeReference@V8@v8@@CAPEAPEAVObject@internal@2@PEAVIsolate@42@PEAPEAV342@@Z 0000000180056ff4 f   node:node.exe
 0001:00056000       __imp_load_?Int32Value@Value@v8@@QEBA?AV?$Maybe@H@2@V?$Local@VContext@v8@@@2@@Z 0000000180057000 f   node:node.exe
 0001:0005600c       __imp_load_?Int32Value@Value@v8@@QEBAHXZ 000000018005700c f   node:node.exe
 0001:00056018       __imp_load_?NumberValue@Value@v8@@QEBANXZ 0000000180057018 f   node:node.exe
 0001:00056024       __imp_load_?ToInteger@Value@v8@@QEBA?AV?$MaybeLocal@VInteger@v8@@@2@V?$Local@VContext@v8@@@2@@Z 0000000180057024 f   node:node.exe
 0001:00056030       __imp_load_?HasCaught@TryCatch@v8@@QEBA_NXZ 0000000180057030 f   node:node.exe
 0001:0005603c       __imp_load_??1TryCatch@v8@@QEAA@XZ 000000018005703c f   node:node.exe
 0001:00056048       __imp_load_??0TryCatch@v8@@QEAA@PEAVIsolate@1@@Z 0000000180057048 f   node:node.exe
 0001:00056054       __imp_load_?Escape@EscapableHandleScope@v8@@AEAAPEAPEAVObject@internal@2@PEAPEAV342@@Z 0000000180057054 f   node:node.exe
 0001:00056060       __imp_load_??0EscapableHandleScope@v8@@QEAA@PEAVIsolate@1@@Z 0000000180057060 f   node:node.exe
 0001:0005606c       __imp_load_?NewFromUtf8@String@v8@@SA?AV?$MaybeLocal@VString@v8@@@2@PEAVIsolate@2@PEBDW4NewStringType@2@H@Z 000000018005706c f   node:node.exe
 0001:00056078       __imp_load_?New@Number@v8@@SA?AV?$Local@VNumber@v8@@@2@PEAVIsolate@2@N@Z 0000000180057078 f   node:node.exe
 0001:00056084       __imp_load_?SlowGetInternalField@Object@v8@@AEAA?AV?$Local@VValue@v8@@@2@H@Z 0000000180057084 f   node:node.exe
 0001:00056090       __imp_load_?SetInternalField@Object@v8@@QEAAXHV?$Local@VValue@v8@@@2@@Z 0000000180057090 f   node:node.exe
 0001:0005609c       __imp_load_?ForceSet@Object@v8@@QEAA?AV?$Maybe@_N@2@V?$Local@VContext@v8@@@2@V?$Local@VValue@v8@@@2@1W4PropertyAttribute@2@@Z 000000018005709c f   node:node.exe
 0001:000560a8       __imp_load_?Set@Object@v8@@QEAA?AV?$Maybe@_N@2@V?$Local@VContext@v8@@@2@V?$Local@VValue@v8@@@2@1@Z 00000001800570a8 f   node:node.exe
 0001:000560b4       __imp_load_?Set@Object@v8@@QEAA?AV?$Maybe@_N@2@V?$Local@VContext@v8@@@2@IV?$Local@VValue@v8@@@2@@Z 00000001800570b4 f   node:node.exe
 0001:000560c0       __imp_load_?Call@Function@v8@@QEAA?AV?$Local@VValue@v8@@@2@V32@HQEAV32@@Z 00000001800570c0 f   node:node.exe
 0001:000560cc       __imp_load_?SetInternalFieldCount@ObjectTemplate@v8@@QEAAXH@Z 00000001800570cc f   node:node.exe
 0001:000560d8       __imp_load_?NewInstance@ObjectTemplate@v8@@QEAA?AV?$MaybeLocal@VObject@v8@@@2@V?$Local@VContext@v8@@@2@@Z 00000001800570d8 f   node:node.exe
 0001:000560e4       __imp_load_?New@ObjectTemplate@v8@@SA?AV?$Local@VObjectTemplate@v8@@@2@PEAVIsolate@2@V?$Local@VFunctionTemplate@v8@@@2@@Z 00000001800570e4 f   node:node.exe
 0001:000560f0       __imp_load_?FatalException@node@@YAXPEAVIsolate@v8@@AEBVTryCatch@3@@Z 00000001800570f0 f   node:node.exe
 0001:000560fc       __imp_load_?HasInstance@Buffer@node@@YA_NV?$Local@VValue@v8@@@v8@@@Z 00000001800570fc f   node:node.exe
 0001:00056108       __imp_load_?New@Buffer@node@@YA?AV?$MaybeLocal@VObject@v8@@@v8@@PEAVIsolate@4@PEAD_KP6AX1PEAX@Z3@Z 0000000180057108 f   node:node.exe
 0001:00056114       __imp_load_?Data@Buffer@node@@YAPEADV?$Local@VObject@v8@@@v8@@@Z 0000000180057114 f   node:node.exe
 0001:00056120       __imp_load_?Length@Buffer@node@@YA_KV?$Local@VObject@v8@@@v8@@@Z 0000000180057120 f   node:node.exe
 0001:0005612c       __imp_load_uv_default_loop 000000018005712c f   node:node.exe
 0001:00056138       __imp_load_?ToObject@Value@v8@@QEBA?AV?$Local@VObject@v8@@@2@XZ 0000000180057138 f   node:node.exe
 0001:00056144       __imp_load_?New@Object@v8@@SA?AV?$Local@VObject@v8@@@2@PEAVIsolate@2@@Z 0000000180057144 f   node:node.exe
 0001:00056160       __security_check_cookie    0000000180057160 f   LIBCMT:amdsecgs.obj
 0001:00056184       ??2@YAPEAX_K@Z             0000000180057184 f   LIBCMT:new_scalar.obj
 0001:000561c0       ??3@YAXPEAX_K@Z            00000001800571c0 f   LIBCMT:delete_scalar_size.obj
 0001:000564f8       _DllMainCRTStartup         00000001800574f8 f   LIBCMT:dll_dllmain.obj
 0001:00056538       __raise_securityfailure    0000000180057538 f   LIBCMT:gs_report.obj
 0001:0005656c       __report_gsfailure         000000018005756c f   LIBCMT:gs_report.obj
 0001:00056640       __report_rangecheckfailure 0000000180057640 f   LIBCMT:gs_report.obj
 0001:00056654       __report_securityfailure   0000000180057654 f   LIBCMT:gs_report.obj
 0001:000567d4       ??0bad_alloc@std@@QEAA@AEBV01@@Z 00000001800577d4 f i LIBCMT:throw_bad_alloc.obj
 0001:00056814       ??0bad_alloc@std@@QEAA@XZ  0000000180057814 f i LIBCMT:throw_bad_alloc.obj
 0001:00056834       ??0bad_array_new_length@std@@QEAA@AEBV01@@Z 0000000180057834 f i LIBCMT:throw_bad_alloc.obj
 0001:00056874       ??0bad_array_new_length@std@@QEAA@XZ 0000000180057874 f i LIBCMT:throw_bad_alloc.obj
 0001:00056894       ??0exception@std@@QEAA@AEBV01@@Z 0000000180057894 f i LIBCMT:throw_bad_alloc.obj
 0001:000568cc       ??1bad_array_new_length@std@@UEAA@XZ 00000001800578cc f i LIBCMT:throw_bad_alloc.obj
 0001:000568cc       ??1bad_alloc@std@@UEAA@XZ  00000001800578cc f i LIBCMT:throw_bad_alloc.obj
 0001:000568e0       ??_Ebad_array_new_length@std@@UEAAPEAXI@Z 00000001800578e0 f i LIBCMT:throw_bad_alloc.obj
 0001:000568e0       ??_Gbad_array_new_length@std@@UEAAPEAXI@Z 00000001800578e0 f i LIBCMT:throw_bad_alloc.obj
 0001:000568e0       ??_Eexception@std@@UEAAPEAXI@Z 00000001800578e0 f i LIBCMT:throw_bad_alloc.obj
 0001:000568e0       ??_Gbad_alloc@std@@UEAAPEAXI@Z 00000001800578e0 f i LIBCMT:throw_bad_alloc.obj
 0001:000568e0       ??_Gexception@std@@UEAAPEAXI@Z 00000001800578e0 f i LIBCMT:throw_bad_alloc.obj
 0001:000568e0       ??_Ebad_alloc@std@@UEAAPEAXI@Z 00000001800578e0 f i LIBCMT:throw_bad_alloc.obj
 0001:00056924       ?__scrt_throw_std_bad_alloc@@YAXXZ 0000000180057924 f   LIBCMT:throw_bad_alloc.obj
 0001:00056944       ?__scrt_throw_std_bad_array_new_length@@YAXXZ 0000000180057944 f   LIBCMT:throw_bad_alloc.obj
 0001:00056964       ?what@exception@std@@UEBAPEBDXZ 0000000180057964 f i LIBCMT:throw_bad_alloc.obj
 0001:00056978       ??3@YAXPEAX@Z              0000000180057978 f   LIBCMT:delete_scalar.obj
 0001:00056980       __security_init_cookie     0000000180057980 f   LIBCMT:gs_support.obj
 0001:00056a2c       DllMain                    0000000180057a2c f   LIBCMT:dll_dllmain_stub.obj
 0001:00056a2c       _get_startup_argv_mode     0000000180057a2c f   LIBCMT:argv_mode.obj
 0001:00056a34       ?__scrt_initialize_type_info@@YAXXZ 0000000180057a34 f   LIBCMT:tncleanup.obj
 0001:00056a44       ?__scrt_uninitialize_type_info@@YAXXZ 0000000180057a44 f   LIBCMT:tncleanup.obj
 0001:00056a50       __scrt_initialize_default_local_stdio_options 0000000180057a50 f   LIBCMT:default_local_stdio_options.obj
 0001:00056a6c       __scrt_acquire_startup_lock 0000000180057a6c f   LIBCMT:utility.obj
 0001:00056aa8       __scrt_dllmain_after_initialize_c 0000000180057aa8 f   LIBCMT:utility.obj
 0001:00056adc       __scrt_dllmain_before_initialize_c 0000000180057adc f   LIBCMT:utility.obj
 0001:00056af4       __scrt_dllmain_crt_thread_attach 0000000180057af4 f   LIBCMT:utility.obj
 0001:00056b1c       __scrt_dllmain_crt_thread_detach 0000000180057b1c f   LIBCMT:utility.obj
 0001:00056b34       __scrt_dllmain_exception_filter 0000000180057b34 f   LIBCMT:utility.obj
 0001:00056b94       __scrt_dllmain_uninitialize_c 0000000180057b94 f   LIBCMT:utility.obj
 0001:00056bc4       __scrt_dllmain_uninitialize_critical 0000000180057bc4 f   LIBCMT:utility.obj
 0001:00056bd8       __scrt_initialize_crt      0000000180057bd8 f   LIBCMT:utility.obj
 0001:00056c24       __scrt_initialize_onexit_tables 0000000180057c24 f   LIBCMT:utility.obj
 0001:00056cfc       __scrt_is_nonwritable_in_current_image 0000000180057cfc f   LIBCMT:utility.obj
 0001:00056d98       __scrt_release_startup_lock 0000000180057d98 f   LIBCMT:utility.obj
 0001:00056dbc       __scrt_uninitialize_crt    0000000180057dbc f   LIBCMT:utility.obj
 0001:00056de8       __scrt_get_dyn_tls_init_callback 0000000180057de8 f   LIBCMT:dyn_tls_init.obj
 0001:00056df0       __crt_debugger_hook        0000000180057df0 f   LIBCMT:utility_desktop.obj
 0001:00056df8       __scrt_fastfail            0000000180057df8 f   LIBCMT:utility_desktop.obj
 0001:00056f44       _RTC_Initialize            0000000180057f44 f   LIBCMT:initsect.obj
 0001:00056f80       _RTC_Terminate             0000000180057f80 f   LIBCMT:initsect.obj
 0001:00056fbc       ??_Gtype_info@@UEAAPEAXI@Z 0000000180057fbc f i LIBCMT:std_type_info_static.obj
 0001:00056fbc       ??_Etype_info@@UEAAPEAXI@Z 0000000180057fbc f i LIBCMT:std_type_info_static.obj
 0001:00056fe8       __isa_available_init       0000000180057fe8 f   LIBCMT:cpu_disp.obj
 0001:000571a4       __scrt_is_ucrt_dll_in_use  00000001800581a4 f   LIBCMT:ucrt_detection.obj
 0001:000571b0       __C_specific_handler       00000001800581b0 f   libvcruntime:riscchandler.obj
 0001:000573bc       __std_exception_copy       00000001800583bc f   libvcruntime:std_exception.obj
 0001:0005744c       __std_exception_destroy    000000018005844c f   libvcruntime:std_exception.obj
 0001:00057474       _CxxThrowException         0000000180058474 f   libvcruntime:throw.obj
 0001:00057534       __std_type_info_destroy_list 0000000180058534 f   libvcruntime:std_type_info.obj
 0001:00057560       __vcrt_initialize          0000000180058560 f   libvcruntime:initialization.obj
 0001:00057594       __vcrt_thread_attach       0000000180058594 f   libvcruntime:initialization.obj
 0001:000575a8       __vcrt_thread_detach       00000001800585a8 f   libvcruntime:initialization.obj
 0001:000575bc       __vcrt_uninitialize        00000001800585bc f   libvcruntime:initialization.obj
 0001:000575dc       __vcrt_uninitialize_critical 00000001800585dc f   libvcruntime:initialization.obj
 0001:00057600       memset_repmovs             0000000180058600 f   libvcruntime:memset.obj
 0001:00057620       memset                     0000000180058620 f   libvcruntime:memset.obj
 0001:000577c0       _NLG_Notify                00000001800587c0 f   libvcruntime:notify.obj
 0001:000577e0       __NLG_Dispatch2            00000001800587e0 f   libvcruntime:notify.obj
 0001:000577f0       __NLG_Return2              00000001800587f0 f   libvcruntime:notify.obj
 0001:000577f4       __except_validate_context_record 00000001800587f4 f   libvcruntime:jbcxrval.obj
 0001:0005782c       __DestructExceptionObject  000000018005882c f   libvcruntime:ehhelpers.obj
 0001:000578a0       ?_CallMemberFunction0@@YAXQEAX0@Z 00000001800588a0 f i libvcruntime:ehhelpers.obj
 0001:000578a4       __vcrt_freefls             00000001800588a4 f   libvcruntime:per_thread_data.obj
 0001:000578c4       __vcrt_freeptd             00000001800588c4 f   libvcruntime:per_thread_data.obj
 0001:00057914       __vcrt_getptd_noexit       0000000180058914 f   libvcruntime:per_thread_data.obj
 0001:000579e0       __vcrt_initialize_ptd      00000001800589e0 f   libvcruntime:per_thread_data.obj
 0001:00057a34       __vcrt_uninitialize_ptd    0000000180058a34 f   libvcruntime:per_thread_data.obj
 0001:00057a58       __vcrt_initialize_locks    0000000180058a58 f   libvcruntime:locks.obj
 0001:00057aa0       __vcrt_uninitialize_locks  0000000180058aa0 f   libvcruntime:locks.obj
 0001:00057cb0       __vcrt_FlsAlloc            0000000180058cb0 f   libvcruntime:winapi_downlevel.obj
 0001:00057cf8       __vcrt_FlsFree             0000000180058cf8 f   libvcruntime:winapi_downlevel.obj
 0001:00057d40       __vcrt_FlsGetValue         0000000180058d40 f   libvcruntime:winapi_downlevel.obj
 0001:00057d88       __vcrt_FlsSetValue         0000000180058d88 f   libvcruntime:winapi_downlevel.obj
 0001:00057ddc       __vcrt_InitializeCriticalSectionEx 0000000180058ddc f   libvcruntime:winapi_downlevel.obj
 0001:00057e40       __vcrt_initialize_winapi_thunks 0000000180058e40 f   libvcruntime:winapi_downlevel.obj
 0001:00057e70       __vcrt_uninitialize_winapi_thunks 0000000180058e70 f   libvcruntime:winapi_downlevel.obj
 0001:00057eb0       __vcrt_initialize_pure_virtual_call_handler 0000000180058eb0 f   libvcruntime:purevirt_data.obj
 0001:00057ed0       memcpy_repmovs             0000000180058ed0 f   libvcruntime:memcpy.obj
 0001:00057ef0       memcpy                     0000000180058ef0 f   libvcruntime:memcpy.obj
 0001:00057ef0       memmove                    0000000180058ef0 f   libvcruntime:memcpy.obj
 0001:00058340       _CallSettingFrame          0000000180059340 f   libvcruntime:handlers.obj
 0001:00058390       _CallSettingFrameEncoded   0000000180059390 f   libvcruntime:handlers.obj
 0001:000583d8       ??0_LocaleUpdate@@QEAA@QEAU__crt_locale_pointers@@@Z 00000001800593d8 f i libucrt:stricmp.obj
 0001:00058474       __ascii_stricmp            0000000180059474 f   libucrt:stricmp.obj
 0001:000584b4       _stricmp                   00000001800594b4 f   libucrt:stricmp.obj
 0001:000584b4       _strcmpi                   00000001800594b4 f   libucrt:stricmp.obj
 0001:000584fc       _stricmp_l                 00000001800594fc f   libucrt:stricmp.obj
 0001:000585b0       calloc                     00000001800595b0 f   libucrt:calloc.obj
 0001:000585b8       free                       00000001800595b8 f   libucrt:free.obj
 0001:0005862c       _tolower_l                 000000018005962c f   libucrt:tolower_toupper.obj
 0001:0005876c       tolower                    000000018005976c f   libucrt:tolower_toupper.obj
 0001:000587b0       strncmp                    00000001800597b0 f   libucrt:strncmp.obj
 0001:00058a3c       ??$ensure_buffer_is_big_enough@D@formatting_buffer@__crt_stdio_output@@QEAA_N_K@Z 0000000180059a3c f i libucrt:output.obj
 0001:00058ae4       ??$type_case_integer_parse_into_buffer@I@?$output_processor@DV?$string_output_adapter@D@__crt_stdio_output@@V?$standard_base@DV?$string_output_adapter@D@__crt_stdio_output@@@2@@__crt_stdio_output@@AEAAXII_N@Z 0000000180059ae4 f i libucrt:output.obj
 0001:00058ae4       ??$type_case_integer_parse_into_buffer@I@?$output_processor@DV?$stream_output_adapter@D@__crt_stdio_output@@V?$standard_base@DV?$stream_output_adapter@D@__crt_stdio_output@@@2@@__crt_stdio_output@@AEAAXII_N@Z 0000000180059ae4 f i libucrt:output.obj
 0001:00058b74       ??$type_case_integer_parse_into_buffer@_K@?$output_processor@DV?$string_output_adapter@D@__crt_stdio_output@@V?$standard_base@DV?$string_output_adapter@D@__crt_stdio_output@@@2@@__crt_stdio_output@@AEAAX_KI_N@Z 0000000180059b74 f i libucrt:output.obj
 0001:00058b74       ??$type_case_integer_parse_into_buffer@_K@?$output_processor@DV?$stream_output_adapter@D@__crt_stdio_output@@V?$standard_base@DV?$stream_output_adapter@D@__crt_stdio_output@@@2@@__crt_stdio_output@@AEAAX_KI_N@Z 0000000180059b74 f i libucrt:output.obj
 0001:00058c08       ??$write_multiple_characters@V?$stream_output_adapter@D@__crt_stdio_output@@D@__crt_stdio_output@@YAXAEBV?$stream_output_adapter@D@0@DHQEAH@Z 0000000180059c08 f i libucrt:output.obj
 0001:00058c94       ??$write_multiple_characters@V?$string_output_adapter@D@__crt_stdio_output@@D@__crt_stdio_output@@YAXAEBV?$string_output_adapter@D@0@DHQEAH@Z 0000000180059c94 f i libucrt:output.obj
 0001:00058e3c       ?crop_zeroes@__crt_stdio_output@@YAXPEADQEAU__crt_locale_pointers@@@Z 0000000180059e3c f i libucrt:output.obj
 0001:00058ea8       ?force_decimal_point@__crt_stdio_output@@YAXPEADQEAU__crt_locale_pointers@@@Z 0000000180059ea8 f i libucrt:output.obj
 0001:00058f18       ?parse_int_from_format_string@?$output_processor@DV?$stream_output_adapter@D@__crt_stdio_output@@V?$standard_base@DV?$stream_output_adapter@D@__crt_stdio_output@@@2@@__crt_stdio_output@@AEAA_NQEAH@Z 0000000180059f18 f i libucrt:output.obj
 0001:00058f18       ?parse_int_from_format_string@?$output_processor@DV?$string_output_adapter@D@__crt_stdio_output@@V?$standard_base@DV?$string_output_adapter@D@__crt_stdio_output@@@2@@__crt_stdio_output@@AEAA_NQEAH@Z 0000000180059f18 f i libucrt:output.obj
 0001:00058fbc       ?process@?$output_processor@DV?$stream_output_adapter@D@__crt_stdio_output@@V?$standard_base@DV?$stream_output_adapter@D@__crt_stdio_output@@@2@@__crt_stdio_output@@QEAAHXZ 0000000180059fbc f i libucrt:output.obj
 0001:000591d4       ?process@?$output_processor@DV?$string_output_adapter@D@__crt_stdio_output@@V?$standard_base@DV?$string_output_adapter@D@__crt_stdio_output@@@2@@__crt_stdio_output@@QEAAHXZ 000000018005a1d4 f i libucrt:output.obj
 0001:000593e0       ?state_case_normal@?$output_processor@DV?$stream_output_adapter@D@__crt_stdio_output@@V?$standard_base@DV?$stream_output_adapter@D@__crt_stdio_output@@@2@@__crt_stdio_output@@AEAA_NXZ 000000018005a3e0 f i libucrt:output.obj
 0001:00059450       ?state_case_normal@?$output_processor@DV?$string_output_adapter@D@__crt_stdio_output@@V?$standard_base@DV?$string_output_adapter@D@__crt_stdio_output@@@2@@__crt_stdio_output@@AEAA_NXZ 000000018005a450 f i libucrt:output.obj
 0001:000594c4       ?state_case_normal_tchar@?$output_processor@DV?$stream_output_adapter@D@__crt_stdio_output@@V?$standard_base@DV?$stream_output_adapter@D@__crt_stdio_output@@@2@@__crt_stdio_output@@AEAA_ND@Z 000000018005a4c4 f i libucrt:output.obj
 0001:00059568       ?state_case_normal_tchar@?$output_processor@DV?$string_output_adapter@D@__crt_stdio_output@@V?$standard_base@DV?$string_output_adapter@D@__crt_stdio_output@@@2@@__crt_stdio_output@@AEAA_ND@Z 000000018005a568 f i libucrt:output.obj
 0001:00059610       ?state_case_size@?$output_processor@DV?$stream_output_adapter@D@__crt_stdio_output@@V?$standard_base@DV?$stream_output_adapter@D@__crt_stdio_output@@@2@@__crt_stdio_output@@AEAA_NXZ 000000018005a610 f i libucrt:output.obj
 0001:00059784       ?state_case_size@?$output_processor@DV?$string_output_adapter@D@__crt_stdio_output@@V?$standard_base@DV?$string_output_adapter@D@__crt_stdio_output@@@2@@__crt_stdio_output@@AEAA_NXZ 000000018005a784 f i libucrt:output.obj
 0001:000598f8       ?state_case_type@?$output_processor@DV?$stream_output_adapter@D@__crt_stdio_output@@V?$standard_base@DV?$stream_output_adapter@D@__crt_stdio_output@@@2@@__crt_stdio_output@@AEAA_NXZ 000000018005a8f8 f i libucrt:output.obj
 0001:00059b7c       ?state_case_type@?$output_processor@DV?$string_output_adapter@D@__crt_stdio_output@@V?$standard_base@DV?$string_output_adapter@D@__crt_stdio_output@@@2@@__crt_stdio_output@@AEAA_NXZ 000000018005ab7c f i libucrt:output.obj
 0001:00059de4       ?type_case_Z@?$output_processor@DV?$stream_output_adapter@D@__crt_stdio_output@@V?$standard_base@DV?$stream_output_adapter@D@__crt_stdio_output@@@2@@__crt_stdio_output@@AEAA_NXZ 000000018005ade4 f i libucrt:output.obj
 0001:00059de4       ?type_case_Z@?$output_processor@DV?$string_output_adapter@D@__crt_stdio_output@@V?$standard_base@DV?$string_output_adapter@D@__crt_stdio_output@@@2@@__crt_stdio_output@@AEAA_NXZ 000000018005ade4 f i libucrt:output.obj
 0001:00059e5c       ?type_case_a@?$output_processor@DV?$string_output_adapter@D@__crt_stdio_output@@V?$standard_base@DV?$string_output_adapter@D@__crt_stdio_output@@@2@@__crt_stdio_output@@AEAA_NXZ 000000018005ae5c f i libucrt:output.obj
 0001:00059e5c       ?type_case_a@?$output_processor@DV?$stream_output_adapter@D@__crt_stdio_output@@V?$standard_base@DV?$stream_output_adapter@D@__crt_stdio_output@@@2@@__crt_stdio_output@@AEAA_NXZ 000000018005ae5c f i libucrt:output.obj
 0001:0005a018       ?type_case_c_tchar@?$output_processor@DV?$stream_output_adapter@D@__crt_stdio_output@@V?$standard_base@DV?$stream_output_adapter@D@__crt_stdio_output@@@2@@__crt_stdio_output@@AEAA_ND@Z 000000018005b018 f i libucrt:output.obj
 0001:0005a018       ?type_case_c_tchar@?$output_processor@DV?$string_output_adapter@D@__crt_stdio_output@@V?$standard_base@DV?$string_output_adapter@D@__crt_stdio_output@@@2@@__crt_stdio_output@@AEAA_ND@Z 000000018005b018 f i libucrt:output.obj
 0001:0005a0d4       ?type_case_integer@?$output_processor@DV?$string_output_adapter@D@__crt_stdio_output@@V?$standard_base@DV?$string_output_adapter@D@__crt_stdio_output@@@2@@__crt_stdio_output@@AEAA_NI_N@Z 000000018005b0d4 f i libucrt:output.obj
 0001:0005a0d4       ?type_case_integer@?$output_processor@DV?$stream_output_adapter@D@__crt_stdio_output@@V?$standard_base@DV?$stream_output_adapter@D@__crt_stdio_output@@@2@@__crt_stdio_output@@AEAA_NI_N@Z 000000018005b0d4 f i libucrt:output.obj
 0001:0005a29c       ?type_case_n@?$output_processor@DV?$stream_output_adapter@D@__crt_stdio_output@@V?$standard_base@DV?$stream_output_adapter@D@__crt_stdio_output@@@2@@__crt_stdio_output@@AEAA_NXZ 000000018005b29c f i libucrt:output.obj
 0001:0005a29c       ?type_case_n@?$output_processor@DV?$string_output_adapter@D@__crt_stdio_output@@V?$standard_base@DV?$string_output_adapter@D@__crt_stdio_output@@@2@@__crt_stdio_output@@AEAA_NXZ 000000018005b29c f i libucrt:output.obj
 0001:0005a378       ?type_case_s@?$output_processor@DV?$stream_output_adapter@D@__crt_stdio_output@@V?$standard_base@DV?$stream_output_adapter@D@__crt_stdio_output@@@2@@__crt_stdio_output@@AEAA_NXZ 000000018005b378 f i libucrt:output.obj
 0001:0005a378       ?type_case_s@?$output_processor@DV?$string_output_adapter@D@__crt_stdio_output@@V?$standard_base@DV?$string_output_adapter@D@__crt_stdio_output@@@2@@__crt_stdio_output@@AEAA_NXZ 000000018005b378 f i libucrt:output.obj
 0001:0005a410       ?validate_stream_is_ansi_if_required@?$__acrt_stdio_char_traits@D@@SA_NQEAU_iobuf@@@Z 000000018005b410 f i libucrt:output.obj
 0001:0005a4ac       ?write_stored_string_tchar@?$output_processor@DV?$stream_output_adapter@D@__crt_stdio_output@@V?$standard_base@DV?$stream_output_adapter@D@__crt_stdio_output@@@2@@__crt_stdio_output@@AEAA_ND@Z 000000018005b4ac f i libucrt:output.obj
 0001:0005a5d0       ?write_stored_string_tchar@?$output_processor@DV?$string_output_adapter@D@__crt_stdio_output@@V?$standard_base@DV?$string_output_adapter@D@__crt_stdio_output@@@2@@__crt_stdio_output@@AEAA_ND@Z 000000018005b5d0 f i libucrt:output.obj
 0001:0005a6a8       ?write_string@?$string_output_adapter@D@__crt_stdio_output@@QEBAXQEBDHQEAHAEAV__crt_deferred_errno_cache@@@Z 000000018005b6a8 f i libucrt:output.obj
 0001:0005a74c       ?write_string_impl@?$output_adapter_common@DV?$stream_output_adapter@D@__crt_stdio_output@@@__crt_stdio_output@@IEBAXQEBDHQEAHAEAV__crt_deferred_errno_cache@@@Z 000000018005b74c f i libucrt:output.obj
 0001:0005a844       __stdio_common_vfprintf    000000018005b844 f   libucrt:output.obj
 0001:0005a8d0       __stdio_common_vsprintf    000000018005b8d0 f   libucrt:output.obj
 0001:0005a8d8       ??$is_overflow_condition@_K@__crt_strtox@@YA_NI_K@Z 000000018005b8d8 f i libucrt:strtox.obj
 0001:0005a908       ??$parse_integer@KV?$c_string_character_source@D@__crt_strtox@@@__crt_strtox@@YAKQEAU__crt_locale_pointers@@V?$c_string_character_source@D@0@H_N@Z 000000018005b908 f i libucrt:strtox.obj
 0001:0005ac44       ??$parse_integer@_KV?$c_string_character_source@D@__crt_strtox@@@__crt_strtox@@YA_KQEAU__crt_locale_pointers@@V?$c_string_character_source@D@0@H_N@Z 000000018005bc44 f i libucrt:strtox.obj
 0001:0005af74       strtol                     000000018005bf74 f   libucrt:strtox.obj
 0001:0005afa0       strtoull                   000000018005bfa0 f   libucrt:strtox.obj
 0001:0005afcc       malloc                     000000018005bfcc f   libucrt:malloc.obj
 0001:0005afd4       __acrt_initialize_stdio    000000018005bfd4 f   libucrt:_file.obj
 0001:0005b0f4       __acrt_iob_func            000000018005c0f4 f   libucrt:_file.obj
 0001:0005b108       __acrt_uninitialize_stdio  000000018005c108 f   libucrt:_file.obj
 0001:0005b164       _lock_file                 000000018005c164 f   libucrt:_file.obj
 0001:0005b170       _unlock_file               000000018005c170 f   libucrt:_file.obj
 0001:0005b398       __acrt_stdio_flush_nolock  000000018005c398 f   libucrt:fflush.obj
 0001:0005b414       _fflush_nolock             000000018005c414 f   libucrt:fflush.obj
 0001:0005b460       _flushall                  000000018005c460 f   libucrt:fflush.obj
 0001:0005b468       fflush                     000000018005c468 f   libucrt:fflush.obj
 0001:0005b4e0       strncpy                    000000018005c4e0 f   libucrt:strncpy.obj
 0001:0005b8b0       __acrt_initialize_thread_local_exit_callback 000000018005c8b0 f   libucrt:exit.obj
 0001:0005b8b8       _cexit                     000000018005c8b8 f   libucrt:exit.obj
 0001:0005b8c8       _exit                      000000018005c8c8 f   libucrt:exit.obj
 0001:0005b8d4       _is_c_termination_complete 000000018005c8d4 f   libucrt:exit.obj
 0001:0005b8dc       exit                       000000018005c8dc f   libucrt:exit.obj
 0001:0005b8f0       qsort                      000000018005c8f0 f   libucrt:qsort.obj
 0001:0005bcb0       __ascii_strnicmp           000000018005ccb0 f   libucrt:strnicmp.obj
 0001:0005bd0c       _strnicmp                  000000018005cd0c f   libucrt:strnicmp.obj
 0001:0005bd5c       _strnicmp_l                000000018005cd5c f   libucrt:strnicmp.obj
 0001:0005beac       ??$parse_floating_point@V?$c_string_character_source@D@__crt_strtox@@N@__crt_strtox@@YA?AW4SLD_STATUS@@QEAU__crt_locale_pointers@@V?$c_string_character_source@D@0@QEAN@Z 000000018005ceac f i libucrt:atof.obj
 0001:0005bf4c       ??$parse_floating_point_from_source@V?$c_string_character_source@D@__crt_strtox@@@__crt_strtox@@YA?AW4floating_point_parse_result@0@QEAU__crt_locale_pointers@@AEAV?$c_string_character_source@D@0@AEAUfloating_point_string@0@@Z 000000018005cf4c f i libucrt:atof.obj
 0001:0005c434       ??$parse_floating_point_possible_infinity@DV?$c_string_character_source@D@__crt_strtox@@PEBD@__crt_strtox@@YA?AW4floating_point_parse_result@0@AEADAEAV?$c_string_character_source@D@0@PEBD@Z 000000018005d434 f i libucrt:atof.obj
 0001:0005c590       ??$parse_floating_point_possible_nan@DV?$c_string_character_source@D@__crt_strtox@@PEBD@__crt_strtox@@YA?AW4floating_point_parse_result@0@AEADAEAV?$c_string_character_source@D@0@PEBD@Z 000000018005d590 f i libucrt:atof.obj
 0001:0005c77c       ??$parse_floating_point_possible_nan_is_ind@DV?$c_string_character_source@D@__crt_strtox@@@__crt_strtox@@YA_NAEADAEAV?$c_string_character_source@D@0@@Z 000000018005d77c f i libucrt:atof.obj
 0001:0005c7c0       ??$parse_floating_point_possible_nan_is_snan@DV?$c_string_character_source@D@__crt_strtox@@@__crt_strtox@@YA_NAEADAEAV?$c_string_character_source@D@0@@Z 000000018005d7c0 f i libucrt:atof.obj
 0001:0005c804       ??$parse_floating_point_write_result@M@__crt_strtox@@YA?AW4SLD_STATUS@@W4floating_point_parse_result@0@AEBUfloating_point_string@0@QEAM@Z 000000018005d804 f i libucrt:atof.obj
 0001:0005c974       ??$parse_floating_point_write_result@N@__crt_strtox@@YA?AW4SLD_STATUS@@W4floating_point_parse_result@0@AEBUfloating_point_string@0@QEAN@Z 000000018005d974 f i libucrt:atof.obj
 0001:0005cb54       ?as_double@floating_point_value@__crt_strtox@@QEBAAEANXZ 000000018005db54 f i libucrt:atof.obj
 0001:0005cb90       ?as_float@floating_point_value@__crt_strtox@@QEBAAEAMXZ 000000018005db90 f i libucrt:atof.obj
 0001:0005cbcc       ?assemble_floating_point_value@__crt_strtox@@YA?AW4SLD_STATUS@@_KH_N1AEBVfloating_point_value@1@@Z 000000018005dbcc f i libucrt:atof.obj
 0001:0005cf74       ?assemble_floating_point_value_from_big_integer@__crt_strtox@@YA?AW4SLD_STATUS@@AEBUbig_integer@1@I_N1AEBVfloating_point_value@1@@Z 000000018005df74 f i libucrt:atof.obj
 0001:0005d0d8       ?convert_decimal_string_to_floating_type_common@__crt_strtox@@YA?AW4SLD_STATUS@@AEBUfloating_point_string@1@AEBVfloating_point_value@1@@Z 000000018005e0d8 f i libucrt:atof.obj
 0001:0005ee58       ?convert_hexadecimal_string_to_floating_type_common@__crt_strtox@@YA?AW4SLD_STATUS@@AEBUfloating_point_string@1@AEBVfloating_point_value@1@@Z 000000018005fe58 f i libucrt:atof.obj
 0001:0005ef10       ?divide@__crt_strtox@@YA_KAEAUbig_integer@1@AEBU21@@Z 000000018005ff10 f i libucrt:atof.obj
 0001:0005f33c       atof                       000000018006033c f   libucrt:atof.obj
 0001:0005f3cc       __acrt_errno_from_os_error 00000001800603cc f   libucrt:errno.obj
 0001:0005f414       __acrt_errno_map_os_error  0000000180060414 f   libucrt:errno.obj
 0001:0005f464       __doserrno                 0000000180060464 f   libucrt:errno.obj
 0001:0005f484       _errno                     0000000180060484 f   libucrt:errno.obj
 0001:0005f4a4       realloc                    00000001800604a4 f   libucrt:realloc.obj
 0001:0005f4ac       ??$parse_floating_point@V?$input_adapter_character_source@V?$string_input_adapter@D@__crt_stdio_input@@@__crt_strtox@@M@__crt_strtox@@YA?AW4SLD_STATUS@@QEAU__crt_locale_pointers@@V?$input_adapter_character_source@V?$string_input_adapter@D@__crt_stdio_input@@@0@QEAM@Z 00000001800604ac f i libucrt:input.obj
 0001:0005f554       ??$parse_floating_point@V?$input_adapter_character_source@V?$string_input_adapter@D@__crt_stdio_input@@@__crt_strtox@@N@__crt_strtox@@YA?AW4SLD_STATUS@@QEAU__crt_locale_pointers@@V?$input_adapter_character_source@V?$string_input_adapter@D@__crt_stdio_input@@@0@QEAN@Z 0000000180060554 f i libucrt:input.obj
 0001:0005f5fc       ??$parse_floating_point_from_source@V?$input_adapter_character_source@V?$string_input_adapter@D@__crt_stdio_input@@@__crt_strtox@@@__crt_strtox@@YA?AW4floating_point_parse_result@0@QEAU__crt_locale_pointers@@AEAV?$input_adapter_character_source@V?$string_input_adapter@D@__crt_stdio_input@@@0@AEAUfloating_point_string@0@@Z 00000001800605fc f i libucrt:input.obj
 0001:0005fe68       ??$parse_floating_point_possible_infinity@DV?$input_adapter_character_source@V?$string_input_adapter@D@__crt_stdio_input@@@__crt_strtox@@_K@__crt_strtox@@YA?AW4floating_point_parse_result@0@AEADAEAV?$input_adapter_character_source@V?$string_input_adapter@D@__crt_stdio_input@@@0@_K@Z 0000000180060e68 f i libucrt:input.obj
 0001:000600a0       ??$parse_floating_point_possible_nan@DV?$input_adapter_character_source@V?$string_input_adapter@D@__crt_stdio_input@@@__crt_strtox@@_K@__crt_strtox@@YA?AW4floating_point_parse_result@0@AEADAEAV?$input_adapter_character_source@V?$string_input_adapter@D@__crt_stdio_input@@@0@_K@Z 00000001800610a0 f i libucrt:input.obj
 0001:000603c0       ??$parse_floating_point_possible_nan_is_ind@DV?$input_adapter_character_source@V?$string_input_adapter@D@__crt_stdio_input@@@__crt_strtox@@@__crt_strtox@@YA_NAEADAEAV?$input_adapter_character_source@V?$string_input_adapter@D@__crt_stdio_input@@@0@@Z 00000001800613c0 f i libucrt:input.obj
 0001:00060438       ??$parse_floating_point_possible_nan_is_snan@DV?$input_adapter_character_source@V?$string_input_adapter@D@__crt_stdio_input@@@__crt_strtox@@@__crt_strtox@@YA_NAEADAEAV?$input_adapter_character_source@V?$string_input_adapter@D@__crt_stdio_input@@@0@@Z 0000000180061438 f i libucrt:input.obj
 0001:000604b0       ??$parse_integer@_KV?$input_adapter_character_source@V?$string_input_adapter@D@__crt_stdio_input@@@__crt_strtox@@@__crt_strtox@@YA_KQEAU__crt_locale_pointers@@V?$input_adapter_character_source@V?$string_input_adapter@D@__crt_stdio_input@@@0@H_N@Z 00000001800614b0 f i libucrt:input.obj
 0001:000608d4       ??$process_floating_point_specifier_t@M@?$input_processor@DV?$string_input_adapter@D@__crt_stdio_input@@@__crt_stdio_input@@AEAA_NXZ 00000001800618d4 f i libucrt:input.obj
 0001:00060978       ??$process_floating_point_specifier_t@N@?$input_processor@DV?$string_input_adapter@D@__crt_stdio_input@@@__crt_stdio_input@@AEAA_NXZ 0000000180061978 f i libucrt:input.obj
 0001:00060a20       ??$process_string_specifier_tchar@D@?$input_processor@DV?$string_input_adapter@D@__crt_stdio_input@@@__crt_stdio_input@@AEAA_NW4conversion_mode@1@D@Z 0000000180061a20 f i libucrt:input.obj
 0001:00060bdc       ??$process_string_specifier_tchar@_W@?$input_processor@DV?$string_input_adapter@D@__crt_stdio_input@@@__crt_stdio_input@@AEAA_NW4conversion_mode@1@_W@Z 0000000180061bdc f i libucrt:input.obj
 0001:00060dc8       ??$skip_whitespace@Vstring_input_adapter@__crt_stdio_input@@D@__crt_stdio_input@@YAHAEAV?$string_input_adapter@D@0@QEAU__crt_locale_pointers@@@Z 0000000180061dc8 f i libucrt:input.obj
 0001:00060e3c       ?advance@?$format_string_parser@D@__crt_stdio_input@@QEAA_NXZ 0000000180061e3c f i libucrt:input.obj
 0001:00061004       ?length@?$format_string_parser@D@__crt_stdio_input@@QEBA_KXZ 0000000180062004 f i libucrt:input.obj
 0001:000610a0       ?process@?$input_processor@DV?$string_input_adapter@D@__crt_stdio_input@@@__crt_stdio_input@@QEAAHXZ 00000001800620a0 f i libucrt:input.obj
 0001:0006118c       ?process_conversion_specifier@?$input_processor@DV?$string_input_adapter@D@__crt_stdio_input@@@__crt_stdio_input@@AEAA_NXZ 000000018006218c f i libucrt:input.obj
 0001:000612ac       ?process_floating_point_specifier@?$input_processor@DV?$string_input_adapter@D@__crt_stdio_input@@@__crt_stdio_input@@AEAA_NXZ 00000001800622ac f i libucrt:input.obj
 0001:0006131c       ?process_integer_specifier@?$input_processor@DV?$string_input_adapter@D@__crt_stdio_input@@@__crt_stdio_input@@AEAA_NI_N@Z 000000018006231c f i libucrt:input.obj
 0001:000613d4       ?process_literal_character_tchar@?$input_processor@DV?$string_input_adapter@D@__crt_stdio_input@@@__crt_stdio_input@@AEAA_ND@Z 00000001800623d4 f i libucrt:input.obj
 0001:00061458       ?process_state@?$input_processor@DV?$string_input_adapter@D@__crt_stdio_input@@@__crt_stdio_input@@AEAA_NXZ 0000000180062458 f i libucrt:input.obj
 0001:00061510       ?process_string_specifier@?$input_processor@DV?$string_input_adapter@D@__crt_stdio_input@@@__crt_stdio_input@@AEAA_NW4conversion_mode@2@@Z 0000000180062510 f i libucrt:input.obj
 0001:0006159c       ?scan_conversion_specifier@?$format_string_parser@D@__crt_stdio_input@@AEAA_NXZ 000000018006259c f i libucrt:input.obj
 0001:00061740       ?scan_optional_field_width@?$format_string_parser@D@__crt_stdio_input@@AEAA_NXZ 0000000180062740 f i libucrt:input.obj
 0001:000617e8       ?scan_optional_length_modifier@?$format_string_parser@D@__crt_stdio_input@@AEAAXXZ 00000001800627e8 f i libucrt:input.obj
 0001:00061924       ?scan_scanset_range@?$format_string_parser@D@__crt_stdio_input@@AEAA_NXZ 0000000180062924 f i libucrt:input.obj
 0001:00061ad8       ?write_character@?$input_processor@DV?$string_input_adapter@D@__crt_stdio_input@@@__crt_stdio_input@@AEAA_NQEFA_W_KAEAPEFA_WAEA_KD@Z 0000000180062ad8 f i libucrt:input.obj
 0001:00061b70       ?write_integer@?$input_processor@DV?$string_input_adapter@D@__crt_stdio_input@@@__crt_stdio_input@@AEAA_N_K@Z 0000000180062b70 f i libucrt:input.obj
 0001:00061be8       __stdio_common_vsscanf     0000000180062be8 f   libucrt:input.obj
 0001:00061d84       _close                     0000000180062d84 f   libucrt:close.obj
 0001:00061e28       _close_nolock              0000000180062e28 f   libucrt:close.obj
 0001:00061ee8       ??$__acrt_mbs_to_wcs_cp@U__crt_win32_buffer_internal_dynamic_resizing@@@@YAHQEBDAEAV?$__crt_win32_buffer@_WU__crt_win32_buffer_internal_dynamic_resizing@@@@I@Z 0000000180062ee8 f i libucrt:open.obj
 0001:00062060       __acrt_initialize_new_handler 0000000180063060 f   libucrt:new_handler.obj
 0001:00062068       _callnewh                  0000000180063068 f   libucrt:new_handler.obj
 0001:00062098       _query_new_handler         0000000180063098 f   libucrt:new_handler.obj
 0001:000620cc       _initterm                  00000001800630cc f   libucrt:initterm.obj
 0001:00062130       _initterm_e                0000000180063130 f   libucrt:initterm.obj
 0001:00062170       _seh_filter_dll            0000000180063170 f   libucrt:exception_filter.obj
 0001:00062184       _seh_filter_exe            0000000180063184 f   libucrt:exception_filter.obj
 0001:000624cc       __acrt_allocate_buffer_for_argv 00000001800634cc f   libucrt:argv_parsing.obj
 0001:0006252c       _configure_narrow_argv     000000018006352c f   libucrt:argv_parsing.obj
 0001:000628a4       __dcrt_uninitialize_environments_nolock 00000001800638a4 f   libucrt:environment_initialization.obj
 0001:000628dc       _initialize_narrow_environment 00000001800638dc f   libucrt:environment_initialization.obj
 0001:00062a38       _execute_onexit_table      0000000180063a38 f   libucrt:onexit.obj
 0001:00062a74       _initialize_onexit_table   0000000180063a74 f   libucrt:onexit.obj
 0001:00062ad4       __acrt_uninitialize_command_line 0000000180063ad4 f   libucrt:argv_data.obj
 0001:00062bcc       __acrt_initialize          0000000180063bcc f   libucrt:initialization.obj
 0001:00062be0       __acrt_thread_attach       0000000180063be0 f   libucrt:initialization.obj
 0001:00062bf4       __acrt_thread_detach       0000000180063bf4 f   libucrt:initialization.obj
 0001:00062c04       __acrt_uninitialize        0000000180063c04 f   libucrt:initialization.obj
 0001:00062c3c       __acrt_uninitialize_critical 0000000180063c3c f   libucrt:initialization.obj
 0001:00062c4c       terminate                  0000000180063c4c f   libucrt:terminate.obj
 0001:00063240       read                       0000000180064240 f   libucrt:read.obj
 0001:00063240       _read                      0000000180064240 f   libucrt:read.obj
 0001:0006335c       _read_nolock               000000018006435c f   libucrt:read.obj
 0001:00063b20       lseek                      0000000180064b20 f   libucrt:lseek.obj
 0001:00063b20       _lseek                     0000000180064b20 f   libucrt:lseek.obj
 0001:00063b28       _lseeki64                  0000000180064b28 f   libucrt:lseek.obj
 0001:00063b30       _lseeki64_nolock           0000000180064b30 f   libucrt:lseek.obj
 0001:00063b38       strcpy_s                   0000000180064b38 f   libucrt:strcpy_s.obj
 0001:00063b98       abort                      0000000180064b98 f   libucrt:abort.obj
 0001:00063bf0       wcsncmp                    0000000180064bf0 f   libucrt:wcsncmp.obj
 0001:00063c1c       __acrt_call_reportfault    0000000180064c1c f   libucrt:invalid_parameter.obj
 0001:00063d78       __acrt_initialize_invalid_parameter_handler 0000000180064d78 f   libucrt:invalid_parameter.obj
 0001:00063d80       _invalid_parameter         0000000180064d80 f   libucrt:invalid_parameter.obj
 0001:00063e30       _invalid_parameter_noinfo  0000000180064e30 f   libucrt:invalid_parameter.obj
 0001:00063e50       _invoke_watson             0000000180064e50 f   libucrt:invalid_parameter.obj
 0001:00063e98       _query_app_type            0000000180064e98 f   libucrt:report_runtime_error.obj
 0001:00063ea0       ??$__acrt_wcs_to_mbs_cp@U__crt_win32_buffer_no_resizing@@@@YAHQEB_WAEAV?$__crt_win32_buffer@DU__crt_win32_buffer_no_resizing@@@@I@Z 0000000180064ea0 f i libucrt:getmodulefilenamea.obj
 0001:00063fb4       __acrt_GetModuleFileNameA  0000000180064fb4 f   libucrt:getmodulefilenamea.obj
 0001:0006411c       __acrt_get_sigabrt_handler 000000018006511c f   libucrt:signal.obj
 0001:0006414c       __acrt_initialize_signal_handlers 000000018006514c f   libucrt:signal.obj
 0001:0006416c       raise                      000000018006516c f   libucrt:signal.obj
 0001:00064750       __acrt_freeptd             0000000180065750 f   libucrt:per_thread_data.obj
 0001:00064794       __acrt_getptd              0000000180065794 f   libucrt:per_thread_data.obj
 0001:00064868       __acrt_getptd_head         0000000180065868 f   libucrt:per_thread_data.obj
 0001:00064910       __acrt_getptd_noexit       0000000180065910 f   libucrt:per_thread_data.obj
 0001:000649dc       __acrt_initialize_ptd      00000001800659dc f   libucrt:per_thread_data.obj
 0001:00064a18       __acrt_uninitialize_ptd    0000000180065a18 f   libucrt:per_thread_data.obj
 0001:00064a3c       __acrt_update_locale_info  0000000180065a3c f   libucrt:locale_update.obj
 0001:00064a70       __acrt_update_multibyte_info 0000000180065a70 f   libucrt:locale_update.obj
 0001:00064b14       __acrt_set_locale_changed  0000000180065b14 f   libucrt:wsetlocale.obj
 0001:00064b20       __acrt_uninitialize_locale 0000000180065b20 f   libucrt:wsetlocale.obj
 0001:00064b50       _calloc_base               0000000180065b50 f   libucrt:calloc_base.obj
 0001:00064dc4       __acrt_initialize_lowio    0000000180065dc4 f   libucrt:ioinit.obj
 0001:00064e00       __acrt_uninitialize_lowio  0000000180065e00 f   libucrt:ioinit.obj
 0001:00064e40       _free_base                 0000000180065e40 f   libucrt:free_base.obj
 0001:00064e80       __pctype_func              0000000180065e80 f   libucrt:ctype.obj
 0001:00064eb0       _isleadbyte_l              0000000180065eb0 f i libucrt:_wctype.obj
 0001:00064efc       _isctype_l                 0000000180065efc f   libucrt:isctype.obj
 0001:00065324       __acrt_LCMapStringA        0000000180066324 f   libucrt:lcmapstringa.obj
 0001:000653bc       isdigit                    00000001800663bc f i libucrt:_ctype.obj
 0001:00065450       isspace                    0000000180066450 f i libucrt:_ctype.obj
 0001:000654e4       _malloc_base               00000001800664e4 f   libucrt:malloc_base.obj
 0001:00065544       _mbtowc_l                  0000000180066544 f   libucrt:mbtowc.obj
 0001:000656c0       mbtowc                     00000001800666c0 f   libucrt:mbtowc.obj
 0001:000656c8       _wctomb_s_l                00000001800666c8 f   libucrt:wctomb.obj
 0001:00065868       wctomb_s                   0000000180066868 f   libucrt:wctomb.obj
 0001:0006587c       strnlen                    000000018006687c f   libucrt:strnlen.obj
 0001:000659cc       wcsnlen                    00000001800669cc f   libucrt:strnlen.obj
 0001:00066578       __acrt_fp_format           0000000180067578 f   libucrt:cvt.obj
 0001:00066800       _fileno                    0000000180067800 f   libucrt:fileno.obj
 0001:00066828       _fputc_nolock              0000000180067828 f   libucrt:fputc.obj
 0001:00066840       _get_printf_count_output   0000000180067840 f   libucrt:printf_count_output.obj
 0001:00066858       __acrt_stdio_begin_temporary_buffering_nolock 0000000180067858 f   libucrt:_sftbuf.obj
 0001:00066928       __acrt_stdio_end_temporary_buffering_nolock 0000000180067928 f   libucrt:_sftbuf.obj
 0001:00066b3c       __acrt_AppPolicyGetProcessTerminationMethodInternal 0000000180067b3c f   libucrt:winapi_thunks.obj
 0001:00066b8c       __acrt_AreFileApisANSI     0000000180067b8c f   libucrt:winapi_thunks.obj
 0001:00066bc8       __acrt_FlsAlloc            0000000180067bc8 f   libucrt:winapi_thunks.obj
 0001:00066c10       __acrt_FlsFree             0000000180067c10 f   libucrt:winapi_thunks.obj
 0001:00066c58       __acrt_FlsGetValue         0000000180067c58 f   libucrt:winapi_thunks.obj
 0001:00066ca0       __acrt_FlsSetValue         0000000180067ca0 f   libucrt:winapi_thunks.obj
 0001:00066cf4       __acrt_InitializeCriticalSectionEx 0000000180067cf4 f   libucrt:winapi_thunks.obj
 0001:00066d58       __acrt_LCMapStringEx       0000000180067d58 f   libucrt:winapi_thunks.obj
 0001:00066e34       __acrt_LocaleNameToLCID    0000000180067e34 f   libucrt:winapi_thunks.obj
 0001:00066e84       __acrt_initialize_winapi_thunks 0000000180067e84 f   libucrt:winapi_thunks.obj
 0001:00066eb8       __acrt_uninitialize_winapi_thunks 0000000180067eb8 f   libucrt:winapi_thunks.obj
 0001:00066efc       _fcloseall                 0000000180067efc f   libucrt:closeall.obj
 0001:00066fb0       __acrt_stdio_free_buffer_nolock 0000000180067fb0 f   libucrt:_freebuf.obj
 0001:00066ff0       __acrt_initialize_locks    0000000180067ff0 f   libucrt:locks.obj
 0001:00067038       __acrt_lock                0000000180068038 f   libucrt:locks.obj
 0001:00067054       __acrt_uninitialize_locks  0000000180068054 f   libucrt:locks.obj
 0001:0006708c       __acrt_unlock              000000018006808c f   libucrt:locks.obj
 0001:00067134       _commit                    0000000180068134 f   libucrt:commit.obj
 0001:00067a34       _write                     0000000180068a34 f   libucrt:write.obj
 0001:00067b20       _write_nolock              0000000180068b20 f   libucrt:write.obj
 0001:00067f58       __acrt_stdio_flush_and_write_narrow_nolock 0000000180068f58 f   libucrt:_flsbuf.obj
 0001:00068044       __acrt_get_process_end_policy 0000000180069044 f   libucrt:win_policies.obj
 0001:00068080       fegetround                 0000000180069080 f   libucrt:fegetround.obj
 0001:00068094       strncpy_s                  0000000180069094 f   libucrt:strncpy_s.obj
 0001:00068168       _realloc_base              0000000180069168 f   libucrt:realloc_base.obj
 0001:000681e4       __acrt_lowio_create_handle_array 00000001800691e4 f   libucrt:osfinfo.obj
 0001:0006828c       __acrt_lowio_destroy_handle_array 000000018006928c f   libucrt:osfinfo.obj
 0001:000682dc       __acrt_lowio_ensure_fh_exists 00000001800692dc f   libucrt:osfinfo.obj
 0001:00068384       __acrt_lowio_lock_fh       0000000180069384 f   libucrt:osfinfo.obj
 0001:000683ac       __acrt_lowio_unlock_fh     00000001800693ac f   libucrt:osfinfo.obj
 0001:000683d4       _free_osfhnd               00000001800693d4 f   libucrt:osfinfo.obj
 0001:00068490       _get_osfhandle             0000000180069490 f   libucrt:osfinfo.obj
 0001:00068508       __acrt_MultiByteToWideChar 0000000180069508 f   libucrt:multibytetowidechar.obj
 0001:00068578       ??$__acrt_wcs_to_mbs_cp@U__crt_win32_buffer_internal_dynamic_resizing@@@@YAHQEB_WAEAV?$__crt_win32_buffer@DU__crt_win32_buffer_internal_dynamic_resizing@@@@I@Z 0000000180069578 f i libucrt:argv_wildcards.obj
 0001:00068da8       __acrt_expand_narrow_argv_wildcards 0000000180069da8 f   libucrt:argv_wildcards.obj
 0001:000694dc       __acrt_initialize_multibyte 000000018006a4dc f   libucrt:mbctype.obj
 0001:0006953c       __acrt_update_thread_multibyte_data 000000018006a53c f   libucrt:mbctype.obj
 0001:00069558       _setmbcp_nolock            000000018006a558 f   libucrt:mbctype.obj
 0001:0006988c       _ismbblead                 000000018006a88c f   libucrt:ismbbyte.obj
 0001:000698a0       __acrt_initialize_command_line 000000018006a8a0 f   libucrt:argv_data.obj
 0001:000698c8       __acrt_WideCharToMultiByte 000000018006a8c8 f   libucrt:widechartomultibyte.obj
 0001:00069960       __dcrt_get_narrow_environment_from_os 000000018006a960 f   libucrt:get_environment_from_os.obj
 0001:00069a64       _recalloc_base             000000018006aa64 f   libucrt:recalloc.obj
 0001:00069afc       __acrt_initialize_heap     000000018006aafc f   libucrt:heap_handle.obj
 0001:00069b18       __acrt_uninitialize_heap   000000018006ab18 f   libucrt:heap_handle.obj
 0001:00069b24       __acrt_execute_initializers 000000018006ab24 f   libucrt:shared_initialization.obj
 0001:00069ba4       __acrt_execute_uninitializers 000000018006aba4 f   libucrt:shared_initialization.obj
 0001:00069be0       __acrt_has_user_matherr    000000018006abe0 f   libucrt:matherr.obj
 0001:00069c00       __acrt_initialize_user_matherr 000000018006ac00 f   libucrt:matherr.obj
 0001:00069c08       __acrt_invoke_user_matherr 000000018006ac08 f   libucrt:matherr.obj
 0001:00069c38       _isatty                    000000018006ac38 f   libucrt:isatty.obj
 0001:00069c98       __acrt_add_locale_ref      000000018006ac98 f   libucrt:locale_refcounting.obj
 0001:00069d24       __acrt_free_locale         000000018006ad24 f   libucrt:locale_refcounting.obj
 0001:00069e9c       __acrt_locale_add_lc_time_reference 000000018006ae9c f   libucrt:locale_refcounting.obj
 0001:00069ec4       __acrt_locale_free_lc_time_if_unreferenced 000000018006aec4 f   libucrt:locale_refcounting.obj
 0001:00069efc       __acrt_locale_release_lc_time_reference 000000018006aefc f   libucrt:locale_refcounting.obj
 0001:00069f24       __acrt_release_locale_ref  000000018006af24 f   libucrt:locale_refcounting.obj
 0001:00069fcc       __acrt_update_thread_locale_data 000000018006afcc f   libucrt:locale_refcounting.obj
 0001:0006a03c       _updatetlocinfoEx_nolock   000000018006b03c f   libucrt:locale_refcounting.obj
 0001:0006a0a4       __acrt_locale_free_monetary 000000018006b0a4 f   libucrt:initmon.obj
 0001:0006a1b0       __acrt_locale_free_numeric 000000018006b1b0 f   libucrt:initnum.obj
 0001:0006a274       __acrt_locale_free_time    000000018006b274 f   libucrt:inittime.obj
 0001:0006a37c       __acrt_GetStringTypeA      000000018006b37c f   libucrt:getstringtypea.obj
 0001:0006a50c       _query_new_mode            000000018006b50c f   libucrt:new_mode.obj
 0001:0006a514       __strncnt                  000000018006b514 f   libucrt:strncnt.obj
 0001:0006a52c       ?__mbrtowc_utf8@__crt_mbstring@@YA_KPEA_WPEBD_KPEAU_Mbstatet@@@Z 000000018006b52c f   libucrt:mbrtowc.obj
 0001:0006a568       ?__mbsrtowcs_utf8@__crt_mbstring@@YA_KPEA_WPEAPEBD_KPEAU_Mbstatet@@@Z 000000018006b568 f   libucrt:mbrtowc.obj
 0001:0006a6e0       ?__c32rtomb_utf8@__crt_mbstring@@YA_KPEAD_UPEAU_Mbstatet@@@Z 000000018006b6e0 f   libucrt:c32rtomb.obj
 0001:0006a798       __acrt_fp_strflt_to_string 000000018006b798 f   libucrt:_fptostr.obj
 0001:0006a87c       __acrt_fltout              000000018006b87c f   libucrt:cfout.obj
 0001:0006bb98       __acrt_DownlevelLocaleNameToLCID 000000018006cb98 f   libucrt:lcidtoname_downlevel.obj
 0001:0006bbcc       _fclose_nolock             000000018006cbcc f   libucrt:fclose.obj
 0001:0006bc50       fclose                     000000018006cc50 f   libucrt:fclose.obj
 0001:0006bcb4       _putwch_nolock             000000018006ccb4 f   libucrt:putwch.obj
 0001:0006bcf0       __acrt_stdio_allocate_buffer_nolock 000000018006ccf0 f   libucrt:_getbuf.obj
 0001:0006bd58       __acrt_fenv_get_common_round_control 000000018006cd58 f   libucrt:_fenvutils.obj
 0001:0006bd64       __acrt_fenv_get_control    000000018006cd64 f   libucrt:_fenvutils.obj
 0001:0006be58       __acrt_fenv_get_status     000000018006ce58 f   libucrt:_fenvutils.obj
 0001:0006beac       __acrt_fenv_set_control    000000018006ceac f   libucrt:_fenvutils.obj
 0001:0006bff4       __acrt_fenv_set_status     000000018006cff4 f   libucrt:_fenvutils.obj
 0001:0006c120       strpbrk                    000000018006d120 f   libucrt:strpbrk.obj
 0001:0006c500       _mbsdec                    000000018006d500 f   libucrt:mbsdec.obj
 0001:0006c508       _mbsdec_l                  000000018006d508 f   libucrt:mbsdec.obj
 0001:0006c5b4       _msize_base                000000018006d5b4 f   libucrt:msize.obj
 0001:0006c5f0       ?__mbrtoc32_utf8@__crt_mbstring@@YA_KPEA_UPEBD_KPEAU_Mbstatet@@@Z 000000018006d5f0 f   libucrt:mbrtoc32.obj
 0001:0006c7cc       fegetenv                   000000018006d7cc f   libucrt:fegetenv.obj
 0001:0006c7ec       fesetenv                   000000018006d7ec f   libucrt:fesetenv.obj
 0001:0006c83c       feholdexcept               000000018006d83c f   libucrt:feholdexcept.obj
 0001:0006c88c       ceil                       000000018006d88c f   libucrt:ceil.obj
 0001:0006c950       log10                      000000018006d950 f   libucrt:log10.obj
 0001:0006cefc       ?__acrt_stdio_free_stream@@YAXV__crt_stdio_stream@@@Z 000000018006defc f   libucrt:stream.obj
 0001:0006cf18       __dcrt_lowio_ensure_console_output_initialized 000000018006df18 f   libucrt:initcon.obj
 0001:0006cf6c       __dcrt_terminate_console_output 000000018006df6c f   libucrt:initcon.obj
 0001:0006cf88       __dcrt_write_console       000000018006df88 f   libucrt:initcon.obj
 0001:0006d048       _clearfp                   000000018006e048 f   libucrt:ieee.obj
 0001:0006d1dc       _handle_error              000000018006e1dc f   libucrt:libm_error.obj
 0001:0006d304       _handle_errorf             000000018006e304 f   libucrt:libm_error.obj
 0001:0006d438       _handle_nan                000000018006e438 f   libucrt:libm_error.obj
 0001:0006d454       _handle_nanf               000000018006e454 f   libucrt:libm_error.obj
 0001:0006d470       __acrt_initialize_fma3     000000018006e470 f   libucrt:fma3_available.obj
 0001:0006d4e0       _log10_special             000000018006e4e0 f   libucrt:log_special.obj
 0001:0006d500       _log10f_special            000000018006e500 f   libucrt:log_special.obj
 0001:0006d520       _log_special               000000018006e520 f   libucrt:log_special.obj
 0001:0006d690       _get_fpsr                  000000018006e690 f   libucrt:fpsr.obj
 0001:0006d6a0       _set_fpsr                  000000018006e6a0 f   libucrt:fpsr.obj
 0001:0006d6aa       _fclrf                     000000018006e6aa f   libucrt:fpsr.obj
 0001:0006d6be       _frnd                      000000018006e6be f   libucrt:fpsr.obj
 0001:0006d6e0       _raise_exc                 000000018006e6e0 f   libucrt:fpexcept.obj
 0001:0006d708       _raise_exc_ex              000000018006e708 f   libucrt:fpexcept.obj
 0001:0006da18       _raise_excf                000000018006ea18 f   libucrt:fpexcept.obj
 0001:0006da44       _set_errno_from_matherr    000000018006ea44 f   libucrt:fpexcept.obj
 0001:0006da74       _clrfp                     000000018006ea74 f   libucrt:fpctrl.obj
 0001:0006da94       _ctrlfp                    000000018006ea94 f   libucrt:fpctrl.obj
 0001:0006db10       _set_statfp                000000018006eb10 f   libucrt:fpctrl.obj
 0001:0006db30       _statfp                    000000018006eb30 f   libucrt:fpctrl.obj
 0001:0006db41       IsProcessorFeaturePresent  000000018006eb41 f   kernel32:KERNEL32.dll
 0001:0006db48       ?DloadAcquireSectionWriteAccess@@YAXXZ 000000018006eb48 f i DelayImp:delayhlp.obj
 0001:0006dbf4       ?DloadGetSRWLockFunctionPointers@@YAEXZ 000000018006ebf4 f i DelayImp:delayhlp.obj
 0001:0006dc90       ?DloadMakePermanentImageCommit@@YAXPEAX_K@Z 000000018006ec90 f i DelayImp:delayhlp.obj
 0001:0006dd28       ?DloadObtainSection@@YAPEAXPEAK0@Z 000000018006ed28 f i DelayImp:delayhlp.obj
 0001:0006ddc4       ?DloadProtectSection@@YAXKPEAK@Z 000000018006edc4 f i DelayImp:delayhlp.obj
 0001:0006de54       ?DloadReleaseSectionWriteAccess@@YAXXZ 000000018006ee54 f i DelayImp:delayhlp.obj
 0001:0006dee8       __delayLoadHelper2         000000018006eee8 f   DelayImp:delayhlp.obj
 0001:0006e1b0       _FindPESection             000000018006f1b0 f   LIBCMT:pesect.obj
 0001:0006e200       _IsNonwritableInCurrentImage 000000018006f200 f   LIBCMT:pesect.obj
 0001:0006e250       _ValidateImageBase         000000018006f250 f   LIBCMT:pesect.obj
 0001:0006e280       __GSHandlerCheck           000000018006f280 f   LIBCMT:gshandler.obj
 0001:0006e2a0       __GSHandlerCheckCommon     000000018006f2a0 f   LIBCMT:gshandler.obj
 0001:0006e310       _alloca_probe              000000018006f310 f   LIBCMT:chkstk.obj
 0001:0006e310       __chkstk                   000000018006f310 f   LIBCMT:chkstk.obj
 0001:0006e380       memcmp                     000000018006f380 f   libvcruntime:memcmp.obj
 0001:0006e448       strrchr                    000000018006f448 f   libvcruntime:strrchr.obj
 0001:0006e5a0       __vdecl_cos2               000000018006f5a0 f   LIBCMT:svml_dcos2_dispatch.obj
 0001:0006e5b0       __vdecl_log2               000000018006f5b0 f   LIBCMT:svml_dlog2_dispatch.obj
 0001:0006e5c0       __vdecl_pow2               000000018006f5c0 f   LIBCMT:svml_dpow2_dispatch.obj
 0001:0006ead0       __sse2_cos2                000000018006fad0 f   LIBCMT:svml_dcos2_sse2.obj
 0001:0006ef70       __sse2_log2                000000018006ff70 f   LIBCMT:svml_dlog2_sse2.obj
 0001:0006f3a0       __sse2_pow2                00000001800703a0 f   LIBCMT:svml_dpow2_sse2.obj
 0001:000706b0       atan                       00000001800716b0 f   libucrt:atan.obj
 0001:000708d0       cos                        00000001800718d0 f   libucrt:cos.obj
 0001:00070e50       exp                        0000000180071e50 f   libucrt:exp.obj
 0001:00071248       floor                      0000000180072248 f   libucrt:floor.obj
 0001:00071300       log                        0000000180072300 f   libucrt:log.obj
 0001:00071830       log10f                     0000000180072830 f   libucrt:log10f.obj
 0001:00071d10       pow                        0000000180072d10 f   libucrt:pow.obj
 0001:000733b0       powf                       00000001800743b0 f   libucrt:powf.obj
 0001:00074280       sin                        0000000180075280 f   libucrt:sin.obj
 0001:000747ec       sqrt                       00000001800757ec f   libucrt:sqrt.obj
 0001:000748c0       tan                        00000001800758c0 f   libucrt:tan.obj
 0001:00075060       __remainder_piby2_forAsm   0000000180076060 f   libucrt:remainder_piby2_forasm.obj
 0001:00075270       __remainder_piby2_cw_forAsm 0000000180076270 f   libucrt:remainder_piby2_forasm.obj
 0001:000753b0       __remainder_piby2_fma3     00000001800763b0 f   libucrt:remainder_piby2_forfma3.obj
 0001:000755a0       __remainder_piby2_fma3_bdl 00000001800765a0 f   libucrt:remainder_piby2_forfma3.obj
 0001:00075618       _cos_special               0000000180076618 f   libucrt:sincos_special.obj
 0001:0007562c       _sin_special               000000018007662c f   libucrt:sincos_special.obj
 0001:000756e4       _tan_special               00000001800766e4 f   libucrt:sincos_special.obj
 0001:00075700       _exp_special               0000000180076700 f   libucrt:exp_special.obj
 0001:000757a0       _pow_special               00000001800767a0 f   libucrt:pow_special.obj
 0001:000758c4       _powf_special              00000001800768c4 f   libucrt:pow_special.obj
 0001:00075a60       _guard_dispatch_icall_nop  0000000180076a60 f   LIBCMT:guard_dispatch.obj
 0002:00000000       __imp_GetModuleHandleA     0000000180077000     kernel32:KERNEL32.dll
 0002:00000008       __imp_LoadLibraryExA       0000000180077008     kernel32:KERNEL32.dll
 0002:00000010       __imp_RtlCaptureContext    0000000180077010     kernel32:KERNEL32.dll
 0002:00000018       __imp_RtlLookupFunctionEntry 0000000180077018     kernel32:KERNEL32.dll
 0002:00000020       __imp_RtlVirtualUnwind     0000000180077020     kernel32:KERNEL32.dll
 0002:00000028       __imp_UnhandledExceptionFilter 0000000180077028     kernel32:KERNEL32.dll
 0002:00000030       __imp_SetUnhandledExceptionFilter 0000000180077030     kernel32:KERNEL32.dll
 0002:00000038       __imp_GetCurrentProcess    0000000180077038     kernel32:KERNEL32.dll
 0002:00000040       __imp_TerminateProcess     0000000180077040     kernel32:KERNEL32.dll
 0002:00000048       __imp_IsProcessorFeaturePresent 0000000180077048     kernel32:KERNEL32.dll
 0002:00000050       __imp_QueryPerformanceCounter 0000000180077050     kernel32:KERNEL32.dll
 0002:00000058       __imp_GetCurrentProcessId  0000000180077058     kernel32:KERNEL32.dll
 0002:00000060       __imp_GetCurrentThreadId   0000000180077060     kernel32:KERNEL32.dll
 0002:00000068       __imp_GetSystemTimeAsFileTime 0000000180077068     kernel32:KERNEL32.dll
 0002:00000070       __imp_InitializeSListHead  0000000180077070     kernel32:KERNEL32.dll
 0002:00000078       __imp_IsDebuggerPresent    0000000180077078     kernel32:KERNEL32.dll
 0002:00000080       __imp_GetStartupInfoW      0000000180077080     kernel32:KERNEL32.dll
 0002:00000088       __imp_GetModuleHandleW     0000000180077088     kernel32:KERNEL32.dll
 0002:00000090       __imp_RtlUnwindEx          0000000180077090     kernel32:KERNEL32.dll
 0002:00000098       __imp_RtlPcToFileHeader    0000000180077098     kernel32:KERNEL32.dll
 0002:000000a0       __imp_RaiseException       00000001800770a0     kernel32:KERNEL32.dll
 0002:000000a8       __imp_InterlockedFlushSList 00000001800770a8     kernel32:KERNEL32.dll
 0002:000000b0       __imp_GetLastError         00000001800770b0     kernel32:KERNEL32.dll
 0002:000000b8       __imp_SetLastError         00000001800770b8     kernel32:KERNEL32.dll
 0002:000000c0       __imp_EnterCriticalSection 00000001800770c0     kernel32:KERNEL32.dll
 0002:000000c8       __imp_LeaveCriticalSection 00000001800770c8     kernel32:KERNEL32.dll
 0002:000000d0       __imp_DeleteCriticalSection 00000001800770d0     kernel32:KERNEL32.dll
 0002:000000d8       __imp_InitializeCriticalSectionAndSpinCount 00000001800770d8     kernel32:KERNEL32.dll
 0002:000000e0       __imp_TlsAlloc             00000001800770e0     kernel32:KERNEL32.dll
 0002:000000e8       __imp_TlsGetValue          00000001800770e8     kernel32:KERNEL32.dll
 0002:000000f0       __imp_TlsSetValue          00000001800770f0     kernel32:KERNEL32.dll
 0002:000000f8       __imp_TlsFree              00000001800770f8     kernel32:KERNEL32.dll
 0002:00000100       __imp_FreeLibrary          0000000180077100     kernel32:KERNEL32.dll
 0002:00000108       __imp_GetProcAddress       0000000180077108     kernel32:KERNEL32.dll
 0002:00000110       __imp_LoadLibraryExW       0000000180077110     kernel32:KERNEL32.dll
 0002:00000118       __imp_GetStdHandle         0000000180077118     kernel32:KERNEL32.dll
 0002:00000120       __imp_GetFileType          0000000180077120     kernel32:KERNEL32.dll
 0002:00000128       __imp_GetModuleFileNameW   0000000180077128     kernel32:KERNEL32.dll
 0002:00000130       __imp_GetModuleHandleExW   0000000180077130     kernel32:KERNEL32.dll
 0002:00000138       __imp_WriteConsoleW        0000000180077138     kernel32:KERNEL32.dll
 0002:00000140       __imp_ReadFile             0000000180077140     kernel32:KERNEL32.dll
 0002:00000148       __imp_ExitProcess          0000000180077148     kernel32:KERNEL32.dll
 0002:00000150       __imp_CloseHandle          0000000180077150     kernel32:KERNEL32.dll
 0002:00000158       __imp_CreateFileW          0000000180077158     kernel32:KERNEL32.dll
 0002:00000160       __imp_GetConsoleMode       0000000180077160     kernel32:KERNEL32.dll
 0002:00000168       __imp_ReadConsoleW         0000000180077168     kernel32:KERNEL32.dll
 0002:00000170       __imp_SetFilePointerEx     0000000180077170     kernel32:KERNEL32.dll
 0002:00000178       __imp_WriteFile            0000000180077178     kernel32:KERNEL32.dll
 0002:00000180       __imp_HeapAlloc            0000000180077180     kernel32:KERNEL32.dll
 0002:00000188       __imp_HeapFree             0000000180077188     kernel32:KERNEL32.dll
 0002:00000190       __imp_LCMapStringW         0000000180077190     kernel32:KERNEL32.dll
 0002:00000198       __imp_FlushFileBuffers     0000000180077198     kernel32:KERNEL32.dll
 0002:000001a0       __imp_GetConsoleCP         00000001800771a0     kernel32:KERNEL32.dll
 0002:000001a8       __imp_GetFileSizeEx        00000001800771a8     kernel32:KERNEL32.dll
 0002:000001b0       __imp_HeapReAlloc          00000001800771b0     kernel32:KERNEL32.dll
 0002:000001b8       __imp_SetStdHandle         00000001800771b8     kernel32:KERNEL32.dll
 0002:000001c0       __imp_MultiByteToWideChar  00000001800771c0     kernel32:KERNEL32.dll
 0002:000001c8       __imp_FindClose            00000001800771c8     kernel32:KERNEL32.dll
 0002:000001d0       __imp_FindFirstFileExW     00000001800771d0     kernel32:KERNEL32.dll
 0002:000001d8       __imp_FindNextFileW        00000001800771d8     kernel32:KERNEL32.dll
 0002:000001e0       __imp_IsValidCodePage      00000001800771e0     kernel32:KERNEL32.dll
 0002:000001e8       __imp_GetACP               00000001800771e8     kernel32:KERNEL32.dll
 0002:000001f0       __imp_GetOEMCP             00000001800771f0     kernel32:KERNEL32.dll
 0002:000001f8       __imp_GetCPInfo            00000001800771f8     kernel32:KERNEL32.dll
 0002:00000200       __imp_GetCommandLineA      0000000180077200     kernel32:KERNEL32.dll
 0002:00000208       __imp_GetCommandLineW      0000000180077208     kernel32:KERNEL32.dll
 0002:00000210       __imp_WideCharToMultiByte  0000000180077210     kernel32:KERNEL32.dll
 0002:00000218       __imp_GetEnvironmentStringsW 0000000180077218     kernel32:KERNEL32.dll
 0002:00000220       __imp_FreeEnvironmentStringsW 0000000180077220     kernel32:KERNEL32.dll
 0002:00000228       __imp_GetProcessHeap       0000000180077228     kernel32:KERNEL32.dll
 0002:00000230       __imp_GetStringTypeW       0000000180077230     kernel32:KERNEL32.dll
 0002:00000238       __imp_HeapSize             0000000180077238     kernel32:KERNEL32.dll
 0002:00000240       __imp_GetSystemInfo        0000000180077240     kernel32:KERNEL32.dll
 0002:00000248       __imp_VirtualProtect       0000000180077248     kernel32:KERNEL32.dll
 0002:00000250       __imp_VirtualQuery         0000000180077250     kernel32:KERNEL32.dll
 0002:00000258       \177KERNEL32_NULL_THUNK_DATA 0000000180077258     kernel32:KERNEL32.dll
 0002:00000260       __guard_check_icall_fptr   0000000180077260     LIBCMT:guard_support.obj
 0002:00000268       __guard_dispatch_icall_fptr 0000000180077268     LIBCMT:guard_support.obj
 0002:00000270       __xc_a                     0000000180077270     LIBCMT:initializers.obj
 0002:00000278       _register_bindings_        0000000180077278     bindings.obj
 0002:00000280       __xc_z                     0000000180077280     LIBCMT:initializers.obj
 0002:00000288       __xi_a                     0000000180077288     LIBCMT:initializers.obj
 0002:00000290       __acrt_stdio_initializer   0000000180077290     libucrt:stdio_initializer.obj
 0002:00000298       __acrt_multibyte_initializer 0000000180077298     libucrt:multibyte_initializer.obj
 0002:000002a0       __acrt_tran_fma3_initializer 00000001800772a0     libucrt:fma3_initializer.obj
 0002:000002a8       __xi_z                     00000001800772a8     LIBCMT:initializers.obj
 0002:000002b0       __xp_a                     00000001800772b0     LIBCMT:initializers.obj
 0002:000002b8       __acrt_locale_terminator   00000001800772b8     libucrt:locale_initializer.obj
 0002:000002c0       __dcrt_console_output_terminator 00000001800772c0     libucrt:console_output_initializer.obj
 0002:000002c8       __acrt_stdio_terminator    00000001800772c8     libucrt:stdio_initializer.obj
 0002:000002d0       __xp_z                     00000001800772d0     LIBCMT:initializers.obj
 0002:000002d8       __xt_a                     00000001800772d8     LIBCMT:initializers.obj
 0002:000002e0       __xt_z                     00000001800772e0     LIBCMT:initializers.obj
 0002:000002f0       __sz_node_exe              00000001800772f0     node:node.exe
 0002:00000300       _pDefaultRawDllMain        0000000180077300     LIBCMT:dll_dllmain.obj
 0002:00000300       _pRawDllMain               0000000180077300     LIBCMT:dll_dllmain.obj
 0002:00000320       ??_7exception@std@@6B@     0000000180077320     LIBCMT:throw_bad_alloc.obj
 0002:00000330       ??_C@_0BC@EOODALEL@Unknown?5exception@ 0000000180077330     LIBCMT:throw_bad_alloc.obj
 0002:00000350       ??_7bad_alloc@std@@6B@     0000000180077350     LIBCMT:throw_bad_alloc.obj
 0002:00000360       ??_C@_0P@GHFPNOJB@bad?5allocation@ 0000000180077360     LIBCMT:throw_bad_alloc.obj
 0002:00000378       ??_7bad_array_new_length@std@@6B@ 0000000180077378     LIBCMT:throw_bad_alloc.obj
 0002:00000388       ??_C@_0BF@KINCDENJ@bad?5array?5new?5length@ 0000000180077388     LIBCMT:throw_bad_alloc.obj
 0002:000003a8       ??_7type_info@@6B@         00000001800773a8     LIBCMT:std_type_info_static.obj
 0002:000003f0       _pDestructExceptionObject  00000001800773f0     libvcruntime:ehhelpers.obj
 0002:00000738       ??_C@_08EHJDFFNH@__based?$CI@ 0000000180077738     libvcruntime:undname.obj
 0002:00000748       ??_C@_07KOLFKCDI@__cdecl@  0000000180077748     libvcruntime:undname.obj
 0002:00000750       ??_C@_08GHMPAG@__pascal@   0000000180077750     libvcruntime:undname.obj
 0002:00000760       ??_C@_09IFJBGAPI@__stdcall@ 0000000180077760     libvcruntime:undname.obj
 0002:00000770       ??_C@_0L@NPHFGOKO@__thiscall@ 0000000180077770     libvcruntime:undname.obj
 0002:00000780       ??_C@_0L@JMKHOMEK@__fastcall@ 0000000180077780     libvcruntime:undname.obj
 0002:00000790       ??_C@_0N@BCKKPABJ@__vectorcall@ 0000000180077790     libvcruntime:undname.obj
 0002:000007a0       ??_C@_09HIJEGCPM@__clrcall@ 00000001800777a0     libvcruntime:undname.obj
 0002:000007ac       ??_C@_06GHPCKEAG@__eabi@   00000001800777ac     libvcruntime:undname.obj
 0002:000007b8       ??_C@_09IOPIDJLG@__swift_1@ 00000001800777b8     libvcruntime:undname.obj
 0002:000007c8       ??_C@_09KFNFGKHF@__swift_2@ 00000001800777c8     libvcruntime:undname.obj
 0002:000007d8       ??_C@_07JOMMBBKO@__ptr64@  00000001800777d8     libvcruntime:undname.obj
 0002:000007e0       ??_C@_0L@PILCLIHE@__restrict@ 00000001800777e0     libvcruntime:undname.obj
 0002:000007f0       ??_C@_0M@GFIIJFMG@__unaligned@ 00000001800777f0     libvcruntime:undname.obj
 0002:00000800       ??_C@_09DHDLOLLB@restrict?$CI@ 0000000180077800     libvcruntime:undname.obj
 0002:0000080c       ??_C@_04NIHEBCM@?5new@     000000018007780c     libvcruntime:undname.obj
 0002:00000818       ??_C@_07FPCDHGMM@?5delete@ 0000000180077818     libvcruntime:undname.obj
 0002:00000820       ??_C@_01NEMOKFLO@?$DN@     0000000180077820     libvcruntime:undname.obj
 0002:00000824       ??_C@_02GPIOPFAK@?$DO?$DO@ 0000000180077824     libvcruntime:undname.obj
 0002:00000828       ??_C@_02FODMEDOG@?$DM?$DM@ 0000000180077828     libvcruntime:undname.obj
 0002:0000082c       ??_C@_01DCLJPIOD@?$CB@     000000018007782c     libvcruntime:undname.obj
 0002:00000830       ??_C@_02EGOFBIJA@?$DN?$DN@ 0000000180077830     libvcruntime:undname.obj
 0002:00000834       ??_C@_02FDNJECIE@?$CB?$DN@ 0000000180077834     libvcruntime:undname.obj
 0002:00000838       ??_C@_02GPECMEKF@?$FL?$FN@ 0000000180077838     libvcruntime:undname.obj
 0002:00000840       ??_C@_08LHJFAFGD@operator@ 0000000180077840     libvcruntime:undname.obj
 0002:0000084c       ??_C@_02HBOOOICD@?9?$DO@   000000018007784c     libvcruntime:undname.obj
 0002:00000850       ??_C@_01NBENCBCI@?$CK@     0000000180077850     libvcruntime:undname.obj
 0002:00000854       ??_C@_02ECNGHCIF@?$CL?$CL@ 0000000180077854     libvcruntime:undname.obj
 0002:00000858       ??_C@_02BAABKJLB@?9?9@     0000000180077858     libvcruntime:undname.obj
 0002:0000085c       ??_C@_01JOAMLHOP@?9@       000000018007785c     libvcruntime:undname.obj
 0002:00000860       ??_C@_01MIFGBAGJ@?$CL@     0000000180077860     libvcruntime:undname.obj
 0002:00000864       ??_C@_01HNPIGOCE@?$CG@     0000000180077864     libvcruntime:undname.obj
 0002:00000868       ??_C@_03MNHNFDLC@?9?$DO?$CK@ 0000000180077868     libvcruntime:undname.obj
 0002:0000086c       ??_C@_01KMDKNFGN@?1@       000000018007786c     libvcruntime:undname.obj
 0002:00000870       ??_C@_01FGNFDNOH@?$CF@     0000000180077870     libvcruntime:undname.obj
 0002:00000874       ??_C@_01MNNFJEPP@?$DM@     0000000180077874     libvcruntime:undname.obj
 0002:00000878       ??_C@_02EHCHHCKH@?$DM?$DN@ 0000000180077878     libvcruntime:undname.obj
 0002:0000087c       ??_C@_01PPODPGHN@?$DO@     000000018007787c     libvcruntime:undname.obj
 0002:00000880       ??_C@_02EEKDKGMJ@?$DO?$DN@ 0000000180077880     libvcruntime:undname.obj
 0002:00000884       ??_C@_01IHBHIGKO@?0@       0000000180077884     libvcruntime:undname.obj
 0002:00000888       ??_C@_02HCKGKOFO@?$CI?$CJ@ 0000000180077888     libvcruntime:undname.obj
 0002:0000088c       ??_C@_01PJKLJHI@?$HO@      000000018007788c     libvcruntime:undname.obj
 0002:00000890       ??_C@_01JKBOJNNK@?$FO@     0000000180077890     libvcruntime:undname.obj
 0002:00000894       ??_C@_01DNKMNLPK@?$HM@     0000000180077894     libvcruntime:undname.obj
 0002:00000898       ??_C@_02PPKAJPJL@?$CG?$CG@ 0000000180077898     libvcruntime:undname.obj
 0002:0000089c       ??_C@_02NONPIBCD@?$HM?$HM@ 000000018007789c     libvcruntime:undname.obj
 0002:000008a0       ??_C@_02FPIMKNGF@?$CK?$DN@ 00000001800778a0     libvcruntime:undname.obj
 0002:000008a4       ??_C@_02FOEOMHFC@?$CL?$DN@ 00000001800778a4     libvcruntime:undname.obj
 0002:000008a8       ??_C@_02FKMDLLOA@?9?$DN@   00000001800778a8     libvcruntime:undname.obj
 0002:000008ac       ??_C@_02FJEHGPIO@?1?$DN@   00000001800778ac     libvcruntime:undname.obj
 0002:000008b0       ??_C@_02FENAOKFI@?$CF?$DN@ 00000001800778b0     libvcruntime:undname.obj
 0002:000008b4       ??_C@_03IKFCCPFF@?$DO?$DO?$DN@ 00000001800778b4     libvcruntime:undname.obj
 0002:000008b8       ??_C@_03CDNPDDLA@?$DM?$DM?$DN@ 00000001800778b8     libvcruntime:undname.obj
 0002:000008bc       ??_C@_02FGJGFEAB@?$CG?$DN@ 00000001800778bc     libvcruntime:undname.obj
 0002:000008c0       ??_C@_02DHLNPPGH@?$HM?$DN@ 00000001800778c0     libvcruntime:undname.obj
 0002:000008c4       ??_C@_02MHEGNOJ@?$FO?$DN@  00000001800778c4     libvcruntime:undname.obj
 0002:000008c8       ??_C@_09IFPLHPGF@?$GAvftable?8@ 00000001800778c8     libvcruntime:undname.obj
 0002:000008d8       ??_C@_09BLBHBJP@?$GAvbtable?8@ 00000001800778d8     libvcruntime:undname.obj
 0002:000008e8       ??_C@_07FEEIOKP@?$GAvcall?8@ 00000001800778e8     libvcruntime:undname.obj
 0002:000008f0       ??_C@_08LLFFHHDJ@?$GAtypeof?8@ 00000001800778f0     libvcruntime:undname.obj
 0002:00000900       ??_C@_0BF@KDPPACIK@?$GAlocal?5static?5guard?8@ 0000000180077900     libvcruntime:undname.obj
 0002:00000918       ??_C@_08OBABFOLI@?$GAstring?8@ 0000000180077918     libvcruntime:undname.obj
 0002:00000928       ??_C@_0BD@JDLKDPAB@?$GAvbase?5destructor?8@ 0000000180077928     libvcruntime:undname.obj
 0002:00000940       ??_C@_0BN@DEGPLNFK@?$GAvector?5deleting?5destructor?8@ 0000000180077940     libvcruntime:undname.obj
 0002:00000960       ??_C@_0BO@OBMKPJIG@?$GAdefault?5constructor?5closure?8@ 0000000180077960     libvcruntime:undname.obj
 0002:00000980       ??_C@_0BN@IMDCHIKM@?$GAscalar?5deleting?5destructor?8@ 0000000180077980     libvcruntime:undname.obj
 0002:000009a0       ??_C@_0BO@PFGOCPJJ@?$GAvector?5constructor?5iterator?8@ 00000001800779a0     libvcruntime:undname.obj
 0002:000009c0       ??_C@_0BN@LFPFMEDL@?$GAvector?5destructor?5iterator?8@ 00000001800779c0     libvcruntime:undname.obj
 0002:000009e0       ??_C@_0CE@IKBNEHA@?$GAvector?5vbase?5constructor?5itera@ 00000001800779e0     libvcruntime:undname.obj
 0002:00000a08       ??_C@_0BL@NILFHHPC@?$GAvirtual?5displacement?5map?8@ 0000000180077a08     libvcruntime:undname.obj
 0002:00000a28       ??_C@_0CB@JONCMFFK@?$GAeh?5vector?5constructor?5iterator@ 0000000180077a28     libvcruntime:undname.obj
 0002:00000a50       ??_C@_0CA@GCEOPDGL@?$GAeh?5vector?5destructor?5iterator?8@ 0000000180077a50     libvcruntime:undname.obj
 0002:00000a70       ??_C@_0CH@OOJPLCPH@?$GAeh?5vector?5vbase?5constructor?5it@ 0000000180077a70     libvcruntime:undname.obj
 0002:00000a98       ??_C@_0BL@LLKPOHJI@?$GAcopy?5constructor?5closure?8@ 0000000180077a98     libvcruntime:undname.obj
 0002:00000ab8       ??_C@_0BA@KBCDOMBN@?$GAudt?5returning?8@ 0000000180077ab8     libvcruntime:undname.obj
 0002:00000ac8       ??_C@_03KLGMFNMG@?$GAEH@   0000000180077ac8     libvcruntime:undname.obj
 0002:00000acc       ??_C@_05KHLCHHI@?$GARTTI@  0000000180077acc     libvcruntime:undname.obj
 0002:00000ad8       ??_C@_0BA@KKLDJDLB@?$GAlocal?5vftable?8@ 0000000180077ad8     libvcruntime:undname.obj
 0002:00000ae8       ??_C@_0CE@IIHCMGGL@?$GAlocal?5vftable?5constructor?5clos@ 0000000180077ae8     libvcruntime:undname.obj
 0002:00000b0c       ??_C@_06FHBGPFGH@?5new?$FL?$FN@ 0000000180077b0c     libvcruntime:undname.obj
 0002:00000b18       ??_C@_09LBNFPBCA@?5delete?$FL?$FN@ 0000000180077b18     libvcruntime:undname.obj
 0002:00000b28       ??_C@_0P@HJKNJFNN@?$GAomni?5callsig?8@ 0000000180077b28     libvcruntime:undname.obj
 0002:00000b38       ??_C@_0BL@CNOONJFP@?$GAplacement?5delete?5closure?8@ 0000000180077b38     libvcruntime:undname.obj
 0002:00000b58       ??_C@_0BN@CKNJLHMB@?$GAplacement?5delete?$FL?$FN?5closure?8@ 0000000180077b58     libvcruntime:undname.obj
 0002:00000b78       ??_C@_0CG@CFDHKGGD@?$GAmanaged?5vector?5constructor?5ite@ 0000000180077b78     libvcruntime:undname.obj
 0002:00000ba0       ??_C@_0CF@IMGKMJNO@?$GAmanaged?5vector?5destructor?5iter@ 0000000180077ba0     libvcruntime:undname.obj
 0002:00000bc8       ??_C@_0CG@HLDDJMAG@?$GAeh?5vector?5copy?5constructor?5ite@ 0000000180077bc8     libvcruntime:undname.obj
 0002:00000bf0       ??_C@_0CM@FCBBDIGB@?$GAeh?5vector?5vbase?5copy?5construct@ 0000000180077bf0     libvcruntime:undname.obj
 0002:00000c20       ??_C@_0BL@CLIPGLGB@?$GAdynamic?5initializer?5for?5?8@ 0000000180077c20     libvcruntime:undname.obj
 0002:00000c40       ??_C@_0CB@PDBIFEP@?$GAdynamic?5atexit?5destructor?5for?5@ 0000000180077c40     libvcruntime:undname.obj
 0002:00000c68       ??_C@_0CD@CGAJBKEJ@?$GAvector?5copy?5constructor?5iterat@ 0000000180077c68     libvcruntime:undname.obj
 0002:00000c90       ??_C@_0CJ@GJELGAMM@?$GAvector?5vbase?5copy?5constructor?5@ 0000000180077c90     libvcruntime:undname.obj
 0002:00000cc0       ??_C@_0CL@FGIJHLCE@?$GAmanaged?5vector?5copy?5constructo@ 0000000180077cc0     libvcruntime:undname.obj
 0002:00000cf0       ??_C@_0BM@PMGGMLDN@?$GAlocal?5static?5thread?5guard?8@ 0000000180077cf0     libvcruntime:undname.obj
 0002:00000d10       ??_C@_0N@BDNMDMOL@operator?5?$CC?$CC?5@ 0000000180077d10     libvcruntime:undname.obj
 0002:00000d20       ??_C@_0BC@GGEBGALA@operator?5co_await@ 0000000180077d20     libvcruntime:undname.obj
 0002:00000d38       ??_C@_0BC@DAFEJGAK@?5Type?5Descriptor?8@ 0000000180077d38     libvcruntime:undname.obj
 0002:00000d50       ??_C@_0BM@LDKODKLH@?5Base?5Class?5Descriptor?5at?5?$CI@ 0000000180077d50     libvcruntime:undname.obj
 0002:00000d70       ??_C@_0BD@LGICGFMM@?5Base?5Class?5Array?8@ 0000000180077d70     libvcruntime:undname.obj
 0002:00000d88       ??_C@_0BN@MECKDCOJ@?5Class?5Hierarchy?5Descriptor?8@ 0000000180077d88     libvcruntime:undname.obj
 0002:00000da8       ??_C@_0BK@CFCOFLF@?5Complete?5Object?5Locator?8@ 0000000180077da8     libvcruntime:undname.obj
 0002:00000de0       ??_C@_1DM@KHCHBNEB@?$AAa?$AAp?$AAi?$AA?9?$AAm?$AAs?$AA?9?$AAw?$AAi?$AAn?$AA?9?$AAc?$AAo?$AAr?$AAe@ 0000000180077de0     libvcruntime:winapi_downlevel.obj
 0002:00000e20       ??_C@_1DK@LPPGFMPP@?$AAa?$AAp?$AAi?$AA?9?$AAm?$AAs?$AA?9?$AAw?$AAi?$AAn?$AA?9?$AAc?$AAo?$AAr?$AAe@ 0000000180077e20     libvcruntime:winapi_downlevel.obj
 0002:00000e60       ??_C@_1BC@GDMECMAK@?$AAk?$AAe?$AAr?$AAn?$AAe?$AAl?$AA3?$AA2@ 0000000180077e60     libvcruntime:winapi_downlevel.obj
 0002:00000e78       ??_C@_1BA@PFFKHIOG@?$AAa?$AAp?$AAi?$AA?9?$AAm?$AAs?$AA?9@ 0000000180077e78     libvcruntime:winapi_downlevel.obj
 0002:00000e88       ??_C@_1BA@IAIFMGEF@?$AAe?$AAx?$AAt?$AA?9?$AAm?$AAs?$AA?9@ 0000000180077e88     libvcruntime:winapi_downlevel.obj
 0002:00000ea0       ??_C@_08KNHFBNJ@FlsAlloc@  0000000180077ea0     libvcruntime:winapi_downlevel.obj
 0002:00000eb8       ??_C@_07PEJMOBNF@FlsFree@  0000000180077eb8     libvcruntime:winapi_downlevel.obj
 0002:00000ec8       ??_C@_0M@GDNOONDI@FlsGetValue@ 0000000180077ec8     libvcruntime:winapi_downlevel.obj
 0002:00000ee0       ??_C@_0M@JCPCPOEF@FlsSetValue@ 0000000180077ee0     libvcruntime:winapi_downlevel.obj
 0002:00000ef8       ??_C@_0BM@HCFOFFN@InitializeCriticalSectionEx@ 0000000180077ef8     libvcruntime:winapi_downlevel.obj
 0002:00000f20       standard_lookup_table      0000000180077f20     libucrt:output.obj
 0002:00000f80       ??_C@_1O@CEDCILHN@?$AA?$CI?$AAn?$AAu?$AAl?$AAl?$AA?$CJ?$AA?$AA@ 0000000180077f80     libucrt:output.obj
 0002:00000f90       ??_C@_06OJHGLDPL@?$CInull?$CJ?$AA@ 0000000180077f90     libucrt:output.obj
 0002:00000f98       ??_C@_1BI@BGOHAHKC@?$AAm?$AAs?$AAc?$AAo?$AAr?$AAe?$AAe?$AA?4?$AAd?$AAl?$AAl?$AA?$AA@ 0000000180077f98     libucrt:exit.obj
 0002:00000fb0       ??_C@_0P@MIGLKIOC@CorExitProcess?$AA@ 0000000180077fb0     libucrt:exit.obj
 0002:00000fc0       ?large_power_data@?1??multiply_by_power_of_ten@__crt_strtox@@YA_NAEAUbig_integer@2@I@Z@4QBIB 0000000180077fc0     libucrt:atof.obj
 0002:000018d0       ?large_power_indices@?1??multiply_by_power_of_ten@__crt_strtox@@YA_NAEAUbig_integer@2@I@Z@4QBUunpack_index@?1??12@YA_N0I@Z@B 00000001800788d0     libucrt:atof.obj
 0002:00001968       ?small_powers_of_ten@?1??multiply_by_power_of_ten@__crt_strtox@@YA_NAEAUbig_integer@2@I@Z@4QBIB 0000000180078968     libucrt:atof.obj
 0002:00001990       ??_C@_1GE@DPGDJKLM@?$AAm?$AAi?$AAn?$AAk?$AAe?$AAr?$AAn?$AAe?$AAl?$AA?2?$AAc?$AAr?$AAt?$AAs?$AA?2?$AAu?$AAc?$AAr?$AAt?$AA?2?$AAi?$AAn?$AAc?$AA?2?$AAc?$AAo?$AAr?$AAe?$AAc?$AAr?$AAt?$AA_@ 0000000180078990     libucrt:atof.obj
 0002:00001a00       ??_C@_1FM@FELNCOBF@?$AA_?$AA_?$AAc?$AAr?$AAt?$AA_?$AAs?$AAt?$AAr?$AAt?$AAo?$AAx?$AA?3?$AA?3?$AAf?$AAl?$AAo?$AAa?$AAt?$AAi?$AAn?$AAg?$AA_?$AAp?$AAo?$AAi?$AAn?$AAt?$AA_?$AAv?$AAa?$AAl@ 0000000180078a00     libucrt:atof.obj
 0002:00001a60       ??_C@_1BG@GEMHBGAF@?$AA_?$AAi?$AAs?$AA_?$AAd?$AAo?$AAu?$AAb?$AAl?$AAe?$AA?$AA@ 0000000180078a60     libucrt:atof.obj
 0002:00001a80       ??_C@_1FK@JOJELFFO@?$AA_?$AA_?$AAc?$AAr?$AAt?$AA_?$AAs?$AAt?$AAr?$AAt?$AAo?$AAx?$AA?3?$AA?3?$AAf?$AAl?$AAo?$AAa?$AAt?$AAi?$AAn?$AAg?$AA_?$AAp?$AAo?$AAi?$AAn?$AAt?$AA_?$AAv?$AAa?$AAl@ 0000000180078a80     libucrt:atof.obj
 0002:00001ae0       ??_C@_1BI@BANMPGJI@?$AA?$CB?$AA_?$AAi?$AAs?$AA_?$AAd?$AAo?$AAu?$AAb?$AAl?$AAe?$AA?$AA@ 0000000180078ae0     libucrt:atof.obj
 0002:00001af8       ?inf_uppercase@?1???$parse_floating_point_possible_infinity@DV?$c_string_character_source@D@__crt_strtox@@PEBD@__crt_strtox@@YA?AW4floating_point_parse_result@1@AEADAEAV?$c_string_character_source@D@1@PEBD@Z@4QBDB 0000000180078af8     libucrt:atof.obj
 0002:00001afc       ?inf_lowercase@?1???$parse_floating_point_possible_infinity@DV?$c_string_character_source@D@__crt_strtox@@PEBD@__crt_strtox@@YA?AW4floating_point_parse_result@1@AEADAEAV?$c_string_character_source@D@1@PEBD@Z@4QBDB 0000000180078afc     libucrt:atof.obj
 0002:00001b00       ?inity_uppercase@?1???$parse_floating_point_possible_infinity@DV?$c_string_character_source@D@__crt_strtox@@PEBD@__crt_strtox@@YA?AW4floating_point_parse_result@1@AEADAEAV?$c_string_character_source@D@1@PEBD@Z@4QBDB 0000000180078b00     libucrt:atof.obj
 0002:00001b08       ?inity_lowercase@?1???$parse_floating_point_possible_infinity@DV?$c_string_character_source@D@__crt_strtox@@PEBD@__crt_strtox@@YA?AW4floating_point_parse_result@1@AEADAEAV?$c_string_character_source@D@1@PEBD@Z@4QBDB 0000000180078b08     libucrt:atof.obj
 0002:00001b10       ?uppercase@?1???$parse_floating_point_possible_nan@DV?$c_string_character_source@D@__crt_strtox@@PEBD@__crt_strtox@@YA?AW4floating_point_parse_result@1@AEADAEAV?$c_string_character_source@D@1@PEBD@Z@4QBDB 0000000180078b10     libucrt:atof.obj
 0002:00001b14       ?lowercase@?1???$parse_floating_point_possible_nan@DV?$c_string_character_source@D@__crt_strtox@@PEBD@__crt_strtox@@YA?AW4floating_point_parse_result@1@AEADAEAV?$c_string_character_source@D@1@PEBD@Z@4QBDB 0000000180078b14     libucrt:atof.obj
 0002:00001b18       ?uppercase@?1???$parse_floating_point_possible_nan_is_snan@DV?$c_string_character_source@D@__crt_strtox@@@__crt_strtox@@YA_NAEADAEAV?$c_string_character_source@D@1@@Z@4QBDB 0000000180078b18     libucrt:atof.obj
 0002:00001b20       ?lowercase@?1???$parse_floating_point_possible_nan_is_snan@DV?$c_string_character_source@D@__crt_strtox@@@__crt_strtox@@YA_NAEADAEAV?$c_string_character_source@D@1@@Z@4QBDB 0000000180078b20     libucrt:atof.obj
 0002:00001b28       ?uppercase@?1???$parse_floating_point_possible_nan_is_ind@DV?$c_string_character_source@D@__crt_strtox@@@__crt_strtox@@YA_NAEADAEAV?$c_string_character_source@D@1@@Z@4QBDB 0000000180078b28     libucrt:atof.obj
 0002:00001b2c       ?lowercase@?1???$parse_floating_point_possible_nan_is_ind@DV?$c_string_character_source@D@__crt_strtox@@@__crt_strtox@@YA_NAEADAEAV?$c_string_character_source@D@1@@Z@4QBDB 0000000180078b2c     libucrt:atof.obj
 0002:00001ca0       ?constraints@?1??is_length_valid@__crt_stdio_input@@YA_NW4conversion_mode@2@W4length_modifier@2@@Z@4QAY0M@$$CBEA 0000000180078ca0     libucrt:input.obj
 0002:00001d18       ?inf_uppercase@?1???$parse_floating_point_possible_infinity@DV?$input_adapter_character_source@V?$string_input_adapter@D@__crt_stdio_input@@@__crt_strtox@@_K@__crt_strtox@@YA?AW4floating_point_parse_result@1@AEADAEAV?$input_adapter_character_source@V?$string_input_adapter@D@__crt_stdio_input@@@1@_K@Z@4QBDB 0000000180078d18     libucrt:input.obj
 0002:00001d1c       ?inf_lowercase@?1???$parse_floating_point_possible_infinity@DV?$input_adapter_character_source@V?$string_input_adapter@D@__crt_stdio_input@@@__crt_strtox@@_K@__crt_strtox@@YA?AW4floating_point_parse_result@1@AEADAEAV?$input_adapter_character_source@V?$string_input_adapter@D@__crt_stdio_input@@@1@_K@Z@4QBDB 0000000180078d1c     libucrt:input.obj
 0002:00001d20       ?inity_uppercase@?1???$parse_floating_point_possible_infinity@DV?$input_adapter_character_source@V?$string_input_adapter@D@__crt_stdio_input@@@__crt_strtox@@_K@__crt_strtox@@YA?AW4floating_point_parse_result@1@AEADAEAV?$input_adapter_character_source@V?$string_input_adapter@D@__crt_stdio_input@@@1@_K@Z@4QBDB 0000000180078d20     libucrt:input.obj
 0002:00001d28       ?inity_lowercase@?1???$parse_floating_point_possible_infinity@DV?$input_adapter_character_source@V?$string_input_adapter@D@__crt_stdio_input@@@__crt_strtox@@_K@__crt_strtox@@YA?AW4floating_point_parse_result@1@AEADAEAV?$input_adapter_character_source@V?$string_input_adapter@D@__crt_stdio_input@@@1@_K@Z@4QBDB 0000000180078d28     libucrt:input.obj
 0002:00001d30       ?uppercase@?1???$parse_floating_point_possible_nan@DV?$input_adapter_character_source@V?$string_input_adapter@D@__crt_stdio_input@@@__crt_strtox@@_K@__crt_strtox@@YA?AW4floating_point_parse_result@1@AEADAEAV?$input_adapter_character_source@V?$string_input_adapter@D@__crt_stdio_input@@@1@_K@Z@4QBDB 0000000180078d30     libucrt:input.obj
 0002:00001d34       ?lowercase@?1???$parse_floating_point_possible_nan@DV?$input_adapter_character_source@V?$string_input_adapter@D@__crt_stdio_input@@@__crt_strtox@@_K@__crt_strtox@@YA?AW4floating_point_parse_result@1@AEADAEAV?$input_adapter_character_source@V?$string_input_adapter@D@__crt_stdio_input@@@1@_K@Z@4QBDB 0000000180078d34     libucrt:input.obj
 0002:00001d38       ?uppercase@?1???$parse_floating_point_possible_nan_is_snan@DV?$input_adapter_character_source@V?$string_input_adapter@D@__crt_stdio_input@@@__crt_strtox@@@__crt_strtox@@YA_NAEADAEAV?$input_adapter_character_source@V?$string_input_adapter@D@__crt_stdio_input@@@1@@Z@4QBDB 0000000180078d38     libucrt:input.obj
 0002:00001d40       ?lowercase@?1???$parse_floating_point_possible_nan_is_snan@DV?$input_adapter_character_source@V?$string_input_adapter@D@__crt_stdio_input@@@__crt_strtox@@@__crt_strtox@@YA_NAEADAEAV?$input_adapter_character_source@V?$string_input_adapter@D@__crt_stdio_input@@@1@@Z@4QBDB 0000000180078d40     libucrt:input.obj
 0002:00001d48       ?uppercase@?1???$parse_floating_point_possible_nan_is_ind@DV?$input_adapter_character_source@V?$string_input_adapter@D@__crt_stdio_input@@@__crt_strtox@@@__crt_strtox@@YA_NAEADAEAV?$input_adapter_character_source@V?$string_input_adapter@D@__crt_stdio_input@@@1@@Z@4QBDB 0000000180078d48     libucrt:input.obj
 0002:00001d4c       ?lowercase@?1???$parse_floating_point_possible_nan_is_ind@DV?$input_adapter_character_source@V?$string_input_adapter@D@__crt_stdio_input@@@__crt_strtox@@@__crt_strtox@@YA_NAEADAEAV?$input_adapter_character_source@V?$string_input_adapter@D@__crt_stdio_input@@@1@@Z@4QBDB 0000000180078d4c     libucrt:input.obj
 0002:00001d50       __acrt_exception_action_table 0000000180078d50     libucrt:exception_filter.obj
 0002:00001e10       __acrt_signal_action_table_count 0000000180078e10     libucrt:exception_filter.obj
 0002:00001e18       __acrt_signal_action_first_fpe_index 0000000180078e18     libucrt:exception_filter.obj
 0002:00001e20       __acrt_signal_action_fpe_count 0000000180078e20     libucrt:exception_filter.obj
 0002:00001f30       __lc_time_c                0000000180078f30     libucrt:nlsdata.obj
 0002:000021f0       ??_C@_03KOEHGMDN@Sun?$AA@  00000001800791f0     libucrt:nlsdata.obj
 0002:000021f4       ??_C@_03PDAGKDH@Mon?$AA@   00000001800791f4     libucrt:nlsdata.obj
 0002:000021f8       ??_C@_03NAGEINEP@Tue?$AA@  00000001800791f8     libucrt:nlsdata.obj
 0002:000021fc       ??_C@_03MHOMLAJA@Wed?$AA@  00000001800791fc     libucrt:nlsdata.obj
 0002:00002200       ??_C@_03IOFIKPDN@Thu?$AA@  0000000180079200     libucrt:nlsdata.obj
 0002:00002204       ??_C@_03IDIOELNC@Fri?$AA@  0000000180079204     libucrt:nlsdata.obj
 0002:00002208       ??_C@_03FEFJNEK@Sat?$AA@   0000000180079208     libucrt:nlsdata.obj
 0002:0000220c       ??_C@_06OOPIFAJ@Sunday?$AA@ 000000018007920c     libucrt:nlsdata.obj
 0002:00002214       ??_C@_06JLEDEDGH@Monday?$AA@ 0000000180079214     libucrt:nlsdata.obj
 0002:00002220       ??_C@_07BAAGCFCM@Tuesday?$AA@ 0000000180079220     libucrt:nlsdata.obj
 0002:00002228       ??_C@_09DLIGFAKA@Wednesday?$AA@ 0000000180079228     libucrt:nlsdata.obj
 0002:00002238       ??_C@_08HACCIKIA@Thursday?$AA@ 0000000180079238     libucrt:nlsdata.obj
 0002:00002244       ??_C@_06JECMNKMI@Friday?$AA@ 0000000180079244     libucrt:nlsdata.obj
 0002:00002250       ??_C@_08INBOOONO@Saturday?$AA@ 0000000180079250     libucrt:nlsdata.obj
 0002:0000225c       ??_C@_03JIHJHPIE@Jan?$AA@  000000018007925c     libucrt:nlsdata.obj
 0002:00002260       ??_C@_03HJBDCHOM@Feb?$AA@  0000000180079260     libucrt:nlsdata.obj
 0002:00002264       ??_C@_03ODNJBKGA@Mar?$AA@  0000000180079264     libucrt:nlsdata.obj
 0002:00002268       ??_C@_03LEOLGMJP@Apr?$AA@  0000000180079268     libucrt:nlsdata.obj
 0002:0000226c       ??_C@_03CNMDKL@May?$AA@    000000018007926c     libucrt:nlsdata.obj
 0002:00002270       ??_C@_03IDFGHECI@Jun?$AA@  0000000180079270     libucrt:nlsdata.obj
 0002:00002274       ??_C@_03LBGABGKK@Jul?$AA@  0000000180079274     libucrt:nlsdata.obj
 0002:00002278       ??_C@_03IFJFEIGA@Aug?$AA@  0000000180079278     libucrt:nlsdata.obj
 0002:0000227c       ??_C@_03GGCAPAJC@Sep?$AA@  000000018007927c     libucrt:nlsdata.obj
 0002:00002280       ??_C@_03BMAOKBAD@Oct?$AA@  0000000180079280     libucrt:nlsdata.obj
 0002:00002284       ??_C@_03JPJOFNIA@Nov?$AA@  0000000180079284     libucrt:nlsdata.obj
 0002:00002288       ??_C@_03MKABNOCG@Dec?$AA@  0000000180079288     libucrt:nlsdata.obj
 0002:00002290       ??_C@_07CGJPFGJA@January?$AA@ 0000000180079290     libucrt:nlsdata.obj
 0002:00002298       ??_C@_08GNJGEPFN@February?$AA@ 0000000180079298     libucrt:nlsdata.obj
 0002:000022a4       ??_C@_05HPCKOFNC@March?$AA@ 00000001800792a4     libucrt:nlsdata.obj
 0002:000022ac       ??_C@_05DMJDNLEJ@April?$AA@ 00000001800792ac     libucrt:nlsdata.obj
 0002:000022b4       ??_C@_04CNLMGBGM@June?$AA@ 00000001800792b4     libucrt:nlsdata.obj
 0002:000022bc       ??_C@_04MIEPOIFP@July?$AA@ 00000001800792bc     libucrt:nlsdata.obj
 0002:000022c4       ??_C@_06LBBHFDDG@August?$AA@ 00000001800792c4     libucrt:nlsdata.obj
 0002:000022d0       ??_C@_09BHHEALKD@September?$AA@ 00000001800792d0     libucrt:nlsdata.obj
 0002:000022e0       ??_C@_07JJNFCEND@October?$AA@ 00000001800792e0     libucrt:nlsdata.obj
 0002:000022e8       ??_C@_08HCHEGEOA@November?$AA@ 00000001800792e8     libucrt:nlsdata.obj
 0002:000022f8       ??_C@_08EDHMEBNP@December?$AA@ 00000001800792f8     libucrt:nlsdata.obj
 0002:00002304       ??_C@_02DEDBPAFC@AM?$AA@   0000000180079304     libucrt:nlsdata.obj
 0002:00002308       ??_C@_02CJNFDJBF@PM?$AA@   0000000180079308     libucrt:nlsdata.obj
 0002:00002310       ??_C@_08BPBNCDIB@MM?1dd?1yy?$AA@ 0000000180079310     libucrt:nlsdata.obj
 0002:00002320       ??_C@_0BE@CKGJFCPC@dddd?0?5MMMM?5dd?0?5yyyy?$AA@ 0000000180079320     libucrt:nlsdata.obj
 0002:00002338       ??_C@_08JCCMCCIL@HH?3mm?3ss?$AA@ 0000000180079338     libucrt:nlsdata.obj
 0002:00002348       ??_C@_17MBGCMIPB@?$AAS?$AAu?$AAn?$AA?$AA@ 0000000180079348     libucrt:nlsdata.obj
 0002:00002350       ??_C@_17KBOMKBF@?$AAM?$AAo?$AAn?$AA?$AA@ 0000000180079350     libucrt:nlsdata.obj
 0002:00002358       ??_C@_17BMKGEGOJ@?$AAT?$AAu?$AAe?$AA?$AA@ 0000000180079358     libucrt:nlsdata.obj
 0002:00002360       ??_C@_17CJEDCEPE@?$AAW?$AAe?$AAd?$AA?$AA@ 0000000180079360     libucrt:nlsdata.obj
 0002:00002368       ??_C@_17PDPHAADD@?$AAT?$AAh?$AAu?$AA?$AA@ 0000000180079368     libucrt:nlsdata.obj
 0002:00002370       ??_C@_17HFOLPPLP@?$AAF?$AAr?$AAi?$AA?$AA@ 0000000180079370     libucrt:nlsdata.obj
 0002:00002378       ??_C@_17GGIBDPIH@?$AAS?$AAa?$AAt?$AA?$AA@ 0000000180079378     libucrt:nlsdata.obj
 0002:00002380       ??_C@_1O@IHNHDHPB@?$AAS?$AAu?$AAn?$AAd?$AAa?$AAy?$AA?$AA@ 0000000180079380     libucrt:nlsdata.obj
 0002:00002390       ??_C@_1O@MMNBFLIA@?$AAM?$AAo?$AAn?$AAd?$AAa?$AAy?$AA?$AA@ 0000000180079390     libucrt:nlsdata.obj
 0002:000023a0       ??_C@_1BA@ENFBFFEK@?$AAT?$AAu?$AAe?$AAs?$AAd?$AAa?$AAy?$AA?$AA@ 00000001800793a0     libucrt:nlsdata.obj
 0002:000023b0       ??_C@_1BE@EBOGMDOH@?$AAW?$AAe?$AAd?$AAn?$AAe?$AAs?$AAd?$AAa?$AAy?$AA?$AA@ 00000001800793b0     libucrt:nlsdata.obj
 0002:000023c8       ??_C@_1BC@HHMNLIHE@?$AAT?$AAh?$AAu?$AAr?$AAs?$AAd?$AAa?$AAy?$AA?$AA@ 00000001800793c8     libucrt:nlsdata.obj
 0002:000023e0       ??_C@_1O@PDICJHAG@?$AAF?$AAr?$AAi?$AAd?$AAa?$AAy?$AA?$AA@ 00000001800793e0     libucrt:nlsdata.obj
 0002:000023f0       ??_C@_1BC@ENMNNPAJ@?$AAS?$AAa?$AAt?$AAu?$AAr?$AAd?$AAa?$AAy?$AA?$AA@ 00000001800793f0     libucrt:nlsdata.obj
 0002:00002408       ??_C@_17DKNBKCHM@?$AAJ?$AAa?$AAn?$AA?$AA@ 0000000180079408     libucrt:nlsdata.obj
 0002:00002410       ??_C@_17LMDJEKJN@?$AAF?$AAe?$AAb?$AA?$AA@ 0000000180079410     libucrt:nlsdata.obj
 0002:00002418       ??_C@_17CKNLEDEC@?$AAM?$AAa?$AAr?$AA?$AA@ 0000000180079418     libucrt:nlsdata.obj
 0002:00002420       ??_C@_17LFPOIHDD@?$AAA?$AAp?$AAr?$AA?$AA@ 0000000180079420     libucrt:nlsdata.obj
 0002:00002428       ??_C@_17PNNKMEED@?$AAM?$AAa?$AAy?$AA?$AA@ 0000000180079428     libucrt:nlsdata.obj
 0002:00002430       ??_C@_17KCJGOCPB@?$AAJ?$AAu?$AAn?$AA?$AA@ 0000000180079430     libucrt:nlsdata.obj
 0002:00002438       ??_C@_17IJPCKHK@?$AAJ?$AAu?$AAl?$AA?$AA@ 0000000180079438     libucrt:nlsdata.obj
 0002:00002440       ??_C@_17ICPELBCN@?$AAA?$AAu?$AAg?$AA?$AA@ 0000000180079440     libucrt:nlsdata.obj
 0002:00002448       ??_C@_17HCHCOKMG@?$AAS?$AAe?$AAp?$AA?$AA@ 0000000180079448     libucrt:nlsdata.obj
 0002:00002450       ??_C@_17FNLKOI@?$AAO?$AAc?$AAt?$AA?$AA@ 0000000180079450     libucrt:nlsdata.obj
 0002:00002458       ??_C@_17BBDMLCIG@?$AAN?$AAo?$AAv?$AA?$AA@ 0000000180079458     libucrt:nlsdata.obj
 0002:00002460       ??_C@_17EGKACKIF@?$AAD?$AAe?$AAc?$AA?$AA@ 0000000180079460     libucrt:nlsdata.obj
 0002:00002468       ??_C@_1BA@EFMEIEBA@?$AAJ?$AAa?$AAn?$AAu?$AAa?$AAr?$AAy?$AA?$AA@ 0000000180079468     libucrt:nlsdata.obj
 0002:00002478       ??_C@_1BC@JGDDFFAM@?$AAF?$AAe?$AAb?$AAr?$AAu?$AAa?$AAr?$AAy?$AA?$AA@ 0000000180079478     libucrt:nlsdata.obj
 0002:00002490       ??_C@_1M@IKEENEDF@?$AAM?$AAa?$AAr?$AAc?$AAh?$AA?$AA@ 0000000180079490     libucrt:nlsdata.obj
 0002:000024a0       ??_C@_1M@GJNLMHFD@?$AAA?$AAp?$AAr?$AAi?$AAl?$AA?$AA@ 00000001800794a0     libucrt:nlsdata.obj
 0002:000024b0       ??_C@_19EPFLPGAP@?$AAJ?$AAu?$AAn?$AAe?$AA?$AA@ 00000001800794b0     libucrt:nlsdata.obj
 0002:000024c0       ??_C@_19BIFMLPCD@?$AAJ?$AAu?$AAl?$AAy?$AA?$AA@ 00000001800794c0     libucrt:nlsdata.obj
 0002:000024d0       ??_C@_1O@PAHLKOAC@?$AAA?$AAu?$AAg?$AAu?$AAs?$AAt?$AA?$AA@ 00000001800794d0     libucrt:nlsdata.obj
 0002:000024e0       ??_C@_1BE@DKAAMBJL@?$AAS?$AAe?$AAp?$AAt?$AAe?$AAm?$AAb?$AAe?$AAr?$AA?$AA@ 00000001800794e0     libucrt:nlsdata.obj
 0002:000024f8       ??_C@_1BA@EPANDLNG@?$AAO?$AAc?$AAt?$AAo?$AAb?$AAe?$AAr?$AA?$AA@ 00000001800794f8     libucrt:nlsdata.obj
 0002:00002508       ??_C@_1BC@BGLIFPF@?$AAN?$AAo?$AAv?$AAe?$AAm?$AAb?$AAe?$AAr?$AA?$AA@ 0000000180079508     libucrt:nlsdata.obj
 0002:00002520       ??_C@_1BC@FEMKIFH@?$AAD?$AAe?$AAc?$AAe?$AAm?$AAb?$AAe?$AAr?$AA?$AA@ 0000000180079520     libucrt:nlsdata.obj
 0002:00002534       ??_C@_15ODEHAHHF@?$AAA?$AAM?$AA?$AA@ 0000000180079534     libucrt:nlsdata.obj
 0002:0000253c       ??_C@_15CLMNNGEL@?$AAP?$AAM?$AA?$AA@ 000000018007953c     libucrt:nlsdata.obj
 0002:00002548       ??_C@_1BC@IEBCMHCM@?$AAM?$AAM?$AA?1?$AAd?$AAd?$AA?1?$AAy?$AAy?$AA?$AA@ 0000000180079548     libucrt:nlsdata.obj
 0002:00002560       ??_C@_1CI@KNAKOEBC@?$AAd?$AAd?$AAd?$AAd?$AA?0?$AA?5?$AAM?$AAM?$AAM?$AAM?$AA?5?$AAd?$AAd?$AA?0?$AA?5?$AAy?$AAy?$AAy?$AAy?$AA?$AA@ 0000000180079560     libucrt:nlsdata.obj
 0002:00002588       ??_C@_1BC@GDGBMEMK@?$AAH?$AAH?$AA?3?$AAm?$AAm?$AA?3?$AAs?$AAs?$AA?$AA@ 0000000180079588     libucrt:nlsdata.obj
 0002:000025a0       ??_C@_1M@BMHNFIME@?$AAe?$AAn?$AA?9?$AAU?$AAS?$AA?$AA@ 00000001800795a0     libucrt:nlsdata.obj
 0002:000025b0       __newctype                 00000001800795b0     libucrt:ctype.obj
 0002:000028b0       __newclmap                 00000001800798b0     libucrt:ctype.obj
 0002:00002a30       __newcumap                 0000000180079a30     libucrt:ctype.obj
 0002:00002bb0       ??_C@_03OEIAHPBN@INF?$AA@  0000000180079bb0     libucrt:cvt.obj
 0002:00002bb4       ??_C@_03OJHLLCGB@inf?$AA@  0000000180079bb4     libucrt:cvt.obj
 0002:00002bb8       ??_C@_03LKNCIKJB@NAN?$AA@  0000000180079bb8     libucrt:cvt.obj
 0002:00002bbc       ??_C@_03LHCJEHON@nan?$AA@  0000000180079bbc     libucrt:cvt.obj
 0002:00002bc0       ??_C@_09OFJJIMPC@NAN?$CISNAN?$CJ?$AA@ 0000000180079bc0     libucrt:cvt.obj
 0002:00002bd0       ??_C@_09IPFBKMDL@nan?$CIsnan?$CJ?$AA@ 0000000180079bd0     libucrt:cvt.obj
 0002:00002be0       ??_C@_08IKHNHAJ@NAN?$CIIND?$CJ?$AA@ 0000000180079be0     libucrt:cvt.obj
 0002:00002bf0       ??_C@_08OFCDMILK@nan?$CIind?$CJ?$AA@ 0000000180079bf0     libucrt:cvt.obj
 0002:00002bfc       ??_C@_05KLBDPFGC@e?$CL000?$AA@ 0000000180079bfc     libucrt:cvt.obj
 0002:00002cb0       ??_C@_1EA@JGEFHKEI@?$AAa?$AAp?$AAi?$AA?9?$AAm?$AAs?$AA?9?$AAw?$AAi?$AAn?$AA?9?$AAc?$AAo?$AAr?$AAe?$AA?9?$AAd?$AAa?$AAt?$AAe?$AAt?$AAi?$AAm?$AAe?$AA?9?$AAl?$AA1?$AA?9?$AA1?$AA?9?$AA1?$AA?$AA@ 0000000180079cb0     libucrt:winapi_thunks.obj
 0002:00002cf0       ??_C@_1DM@KHCHBNEB@?$AAa?$AAp?$AAi?$AA?9?$AAm?$AAs?$AA?9?$AAw?$AAi?$AAn?$AA?9?$AAc?$AAo?$AAr?$AAe?$AA?9?$AAf?$AAi?$AAb?$AAe?$AAr?$AAs?$AA?9?$AAl?$AA1?$AA?9?$AA1?$AA?9?$AA1?$AA?$AA@ 0000000180079cf0     libucrt:winapi_thunks.obj
 0002:00002d30       ??_C@_1DI@IJCEHOCB@?$AAa?$AAp?$AAi?$AA?9?$AAm?$AAs?$AA?9?$AAw?$AAi?$AAn?$AA?9?$AAc?$AAo?$AAr?$AAe?$AA?9?$AAf?$AAi?$AAl?$AAe?$AA?9?$AAl?$AA1?$AA?9?$AA2?$AA?9?$AA2?$AA?$AA@ 0000000180079d30     libucrt:winapi_thunks.obj
 0002:00002d70       ??_C@_1EI@MPIAOHOC@?$AAa?$AAp?$AAi?$AA?9?$AAm?$AAs?$AA?9?$AAw?$AAi?$AAn?$AA?9?$AAc?$AAo?$AAr?$AAe?$AA?9?$AAl?$AAo?$AAc?$AAa?$AAl?$AAi?$AAz?$AAa?$AAt?$AAi?$AAo?$AAn?$AA?9?$AAl?$AA1?$AA?9@ 0000000180079d70     libucrt:winapi_thunks.obj
 0002:00002dc0       ??_C@_1FK@FPHCKFIE@?$AAa?$AAp?$AAi?$AA?9?$AAm?$AAs?$AA?9?$AAw?$AAi?$AAn?$AA?9?$AAc?$AAo?$AAr?$AAe?$AA?9?$AAl?$AAo?$AAc?$AAa?$AAl?$AAi?$AAz?$AAa?$AAt?$AAi?$AAo?$AAn?$AA?9?$AAo?$AAb?$AAs@ 0000000180079dc0     libucrt:winapi_thunks.obj
 0002:00002e20       ??_C@_1EM@DILCGIIO@?$AAa?$AAp?$AAi?$AA?9?$AAm?$AAs?$AA?9?$AAw?$AAi?$AAn?$AA?9?$AAc?$AAo?$AAr?$AAe?$AA?9?$AAp?$AAr?$AAo?$AAc?$AAe?$AAs?$AAs?$AAt?$AAh?$AAr?$AAe?$AAa?$AAd?$AAs?$AA?9?$AAl@ 0000000180079e20     libucrt:winapi_thunks.obj
 0002:00002e70       ??_C@_1DM@LNCGDDPN@?$AAa?$AAp?$AAi?$AA?9?$AAm?$AAs?$AA?9?$AAw?$AAi?$AAn?$AA?9?$AAc?$AAo?$AAr?$AAe?$AA?9?$AAs?$AAt?$AAr?$AAi?$AAn?$AAg?$AA?9?$AAl?$AA1?$AA?9?$AA1?$AA?9?$AA0?$AA?$AA@ 0000000180079e70     libucrt:winapi_thunks.obj
 0002:00002eb0       ??_C@_1DK@LPPGFMPP@?$AAa?$AAp?$AAi?$AA?9?$AAm?$AAs?$AA?9?$AAw?$AAi?$AAn?$AA?9?$AAc?$AAo?$AAr?$AAe?$AA?9?$AAs?$AAy?$AAn?$AAc?$AAh?$AA?9?$AAl?$AA1?$AA?9?$AA2?$AA?9?$AA0?$AA?$AA@ 0000000180079eb0     libucrt:winapi_thunks.obj
 0002:00002ef0       ??_C@_1DO@FPAPJEMD@?$AAa?$AAp?$AAi?$AA?9?$AAm?$AAs?$AA?9?$AAw?$AAi?$AAn?$AA?9?$AAc?$AAo?$AAr?$AAe?$AA?9?$AAs?$AAy?$AAs?$AAi?$AAn?$AAf?$AAo?$AA?9?$AAl?$AA1?$AA?9?$AA2?$AA?9?$AA1?$AA?$AA@ 0000000180079ef0     libucrt:winapi_thunks.obj
 0002:00002f30       ??_C@_1DK@NDHNAHIO@?$AAa?$AAp?$AAi?$AA?9?$AAm?$AAs?$AA?9?$AAw?$AAi?$AAn?$AA?9?$AAc?$AAo?$AAr?$AAe?$AA?9?$AAw?$AAi?$AAn?$AAr?$AAt?$AA?9?$AAl?$AA1?$AA?9?$AA1?$AA?9?$AA0?$AA?$AA@ 0000000180079f30     libucrt:winapi_thunks.obj
 0002:00002f70       ??_C@_1DM@KGHDGBCM@?$AAa?$AAp?$AAi?$AA?9?$AAm?$AAs?$AA?9?$AAw?$AAi?$AAn?$AA?9?$AAc?$AAo?$AAr?$AAe?$AA?9?$AAx?$AAs?$AAt?$AAa?$AAt?$AAe?$AA?9?$AAl?$AA2?$AA?9?$AA1?$AA?9?$AA0?$AA?$AA@ 0000000180079f70     libucrt:winapi_thunks.obj
 0002:00002fb0       ??_C@_1EO@IJIOEFOH@?$AAa?$AAp?$AAi?$AA?9?$AAm?$AAs?$AA?9?$AAw?$AAi?$AAn?$AA?9?$AAr?$AAt?$AAc?$AAo?$AAr?$AAe?$AA?9?$AAn?$AAt?$AAu?$AAs?$AAe?$AAr?$AA?9?$AAw?$AAi?$AAn?$AAd?$AAo?$AAw?$AA?9@ 0000000180079fb0     libucrt:winapi_thunks.obj
 0002:00003000       ??_C@_1FG@HHGEKANL@?$AAa?$AAp?$AAi?$AA?9?$AAm?$AAs?$AA?9?$AAw?$AAi?$AAn?$AA?9?$AAs?$AAe?$AAc?$AAu?$AAr?$AAi?$AAt?$AAy?$AA?9?$AAs?$AAy?$AAs?$AAt?$AAe?$AAm?$AAf?$AAu?$AAn?$AAc?$AAt?$AAi@ 000000018007a000     libucrt:winapi_thunks.obj
 0002:00003060       ??_C@_1EG@DBIOJECG@?$AAe?$AAx?$AAt?$AA?9?$AAm?$AAs?$AA?9?$AAw?$AAi?$AAn?$AA?9?$AAn?$AAt?$AAu?$AAs?$AAe?$AAr?$AA?9?$AAd?$AAi?$AAa?$AAl?$AAo?$AAg?$AAb?$AAo?$AAx?$AA?9?$AAl?$AA1?$AA?9?$AA1@ 000000018007a060     libucrt:winapi_thunks.obj
 0002:000030b0       ??_C@_1EO@FIHMJCLF@?$AAe?$AAx?$AAt?$AA?9?$AAm?$AAs?$AA?9?$AAw?$AAi?$AAn?$AA?9?$AAn?$AAt?$AAu?$AAs?$AAe?$AAr?$AA?9?$AAw?$AAi?$AAn?$AAd?$AAo?$AAw?$AAs?$AAt?$AAa?$AAt?$AAi?$AAo?$AAn?$AA?9@ 000000018007a0b0     libucrt:winapi_thunks.obj
 0002:00003100       ??_C@_1BC@DNHGCMLG@?$AAa?$AAd?$AAv?$AAa?$AAp?$AAi?$AA3?$AA2?$AA?$AA@ 000000018007a100     libucrt:winapi_thunks.obj
 0002:00003118       ??_C@_1BC@GDMECMAK@?$AAk?$AAe?$AAr?$AAn?$AAe?$AAl?$AA3?$AA2?$AA?$AA@ 000000018007a118     libucrt:winapi_thunks.obj
 0002:00003130       ??_C@_1M@OAIMIKLP@?$AAn?$AAt?$AAd?$AAl?$AAl?$AA?$AA@ 000000018007a130     libucrt:winapi_thunks.obj
 0002:00003140       ??_C@_1EG@DPGNFKGC@?$AAa?$AAp?$AAi?$AA?9?$AAm?$AAs?$AA?9?$AAw?$AAi?$AAn?$AA?9?$AAa?$AAp?$AAp?$AAm?$AAo?$AAd?$AAe?$AAl?$AA?9?$AAr?$AAu?$AAn?$AAt?$AAi?$AAm?$AAe?$AA?9?$AAl?$AA1?$AA?9?$AA1@ 000000018007a140     libucrt:winapi_thunks.obj
 0002:00003188       ??_C@_1O@BCCLBEOE@?$AAu?$AAs?$AAe?$AAr?$AA3?$AA2?$AA?$AA@ 000000018007a188     libucrt:winapi_thunks.obj
 0002:00003198       ??_C@_1BA@PFFKHIOG@?$AAa?$AAp?$AAi?$AA?9?$AAm?$AAs?$AA?9?$AA?$AA@ 000000018007a198     libucrt:winapi_thunks.obj
 0002:000031a8       ??_C@_1BA@IAIFMGEF@?$AAe?$AAx?$AAt?$AA?9?$AAm?$AAs?$AA?9?$AA?$AA@ 000000018007a1a8     libucrt:winapi_thunks.obj
 0002:000031c0       ??_C@_0BA@FHFNEAED@AreFileApisANSI?$AA@ 000000018007a1c0     libucrt:winapi_thunks.obj
 0002:000031d8       ??_C@_08KNHFBNJ@FlsAlloc?$AA@ 000000018007a1d8     libucrt:winapi_thunks.obj
 0002:000031f0       ??_C@_07PEJMOBNF@FlsFree?$AA@ 000000018007a1f0     libucrt:winapi_thunks.obj
 0002:00003200       ??_C@_0M@GDNOONDI@FlsGetValue?$AA@ 000000018007a200     libucrt:winapi_thunks.obj
 0002:00003218       ??_C@_0M@JCPCPOEF@FlsSetValue?$AA@ 000000018007a218     libucrt:winapi_thunks.obj
 0002:00003230       ??_C@_0BM@HCFOFFN@InitializeCriticalSectionEx?$AA@ 000000018007a230     libucrt:winapi_thunks.obj
 0002:00003258       ??_C@_0O@KKBNKAPF@LCMapStringEx?$AA@ 000000018007a258     libucrt:winapi_thunks.obj
 0002:00003270       ??_C@_0BB@HBDEELFH@LocaleNameToLCID?$AA@ 000000018007a270     libucrt:winapi_thunks.obj
 0002:00003288       ??_C@_0CF@OJOFEIGO@AppPolicyGetProcessTerminationMe@ 000000018007a288     libucrt:winapi_thunks.obj
 0002:000032d0       ??_C@_1M@HPNHIDJI@?$AAj?$AAa?$AA?9?$AAJ?$AAP?$AA?$AA@ 000000018007a2d0     libucrt:mbctype.obj
 0002:000032e0       ??_C@_1M@BIBDDEMK@?$AAz?$AAh?$AA?9?$AAC?$AAN?$AA?$AA@ 000000018007a2e0     libucrt:mbctype.obj
 0002:000032f0       ??_C@_1M@JLOOOEGK@?$AAk?$AAo?$AA?9?$AAK?$AAR?$AA?$AA@ 000000018007a2f0     libucrt:mbctype.obj
 0002:00003300       ??_C@_1M@CLNBBOPM@?$AAz?$AAh?$AA?9?$AAT?$AAW?$AA?$AA@ 000000018007a300     libucrt:mbctype.obj
 0002:0000330c       ??_C@_15PJPFLCCM@?$AAu?$AAk?$AA?$AA@ 000000018007a30c     libucrt:get_qualified_locale.obj
 0002:00003312       ??_C@_00CNPNBAHC@?$AA@     000000018007a312     libucrt:mbrtowc.obj
 0002:00003314       ??_C@_01GBGANLPD@0?$AA@    000000018007a314     libucrt:cfout.obj
 0002:00003318       ??_C@_05DNEBIAHO@1?$CDINF?$AA@ 000000018007a318     libucrt:cfout.obj
 0002:00003320       ??_C@_06IMKFLFPG@1?$CDQNAN?$AA@ 000000018007a320     libucrt:cfout.obj
 0002:00003328       ??_C@_06PGGFOGJG@1?$CDSNAN?$AA@ 000000018007a328     libucrt:cfout.obj
 0002:00003330       ??_C@_05PHHOCPM@1?$CDIND?$AA@ 000000018007a330     libucrt:cfout.obj
 0002:00004180       ??_C@_15EMKDOKLE@?$AAa?$AAr?$AA?$AA@ 000000018007b180     libucrt:lcidtoname_downlevel.obj
 0002:00004188       ??_C@_15KNPADPLH@?$AAb?$AAg?$AA?$AA@ 000000018007b188     libucrt:lcidtoname_downlevel.obj
 0002:00004190       ??_C@_15EDMHLDMO@?$AAc?$AAa?$AA?$AA@ 000000018007b190     libucrt:lcidtoname_downlevel.obj
 0002:00004198       ??_C@_1O@BPEAJADD@?$AAz?$AAh?$AA?9?$AAC?$AAH?$AAS?$AA?$AA@ 000000018007b198     libucrt:lcidtoname_downlevel.obj
 0002:000041a8       ??_C@_15LJNHCMNK@?$AAc?$AAs?$AA?$AA@ 000000018007b1a8     libucrt:lcidtoname_downlevel.obj
 0002:000041b0       ??_C@_15FOMCIDHG@?$AAd?$AAa?$AA?$AA@ 000000018007b1b0     libucrt:lcidtoname_downlevel.obj
 0002:000041b8       ??_C@_15NBKABECB@?$AAd?$AAe?$AA?$AA@ 000000018007b1b8     libucrt:lcidtoname_downlevel.obj
 0002:000041c0       ??_C@_15GHPEIIAO@?$AAe?$AAl?$AA?$AA@ 000000018007b1c0     libucrt:lcidtoname_downlevel.obj
 0002:000041c8       ??_C@_15MNPNEAIF@?$AAe?$AAn?$AA?$AA@ 000000018007b1c8     libucrt:lcidtoname_downlevel.obj
 0002:000041d0       ??_C@_15GPIOMPMH@?$AAe?$AAs?$AA?$AA@ 000000018007b1d0     libucrt:lcidtoname_downlevel.obj
 0002:000041d8       ??_C@_15NGLOAKJC@?$AAf?$AAi?$AA?$AA@ 000000018007b1d8     libucrt:lcidtoname_downlevel.obj
 0002:000041e0       ??_C@_15FBKGNKAM@?$AAf?$AAr?$AA?$AA@ 000000018007b1e0     libucrt:lcidtoname_downlevel.obj
 0002:000041e8       ??_C@_15KGGCNEFK@?$AAh?$AAe?$AA?$AA@ 000000018007b1e8     libucrt:lcidtoname_downlevel.obj
 0002:000041f0       ??_C@_15PGHLIDMF@?$AAh?$AAu?$AA?$AA@ 000000018007b1f0     libucrt:lcidtoname_downlevel.obj
 0002:000041f8       ??_C@_15BIEMAPLM@?$AAi?$AAs?$AA?$AA@ 000000018007b1f8     libucrt:lcidtoname_downlevel.obj
 0002:00004200       ??_C@_15IFJLDHAF@?$AAi?$AAt?$AA?$AA@ 000000018007b200     libucrt:lcidtoname_downlevel.obj
 0002:00004208       ??_C@_15GEMIOCAG@?$AAj?$AAa?$AA?$AA@ 000000018007b208     libucrt:lcidtoname_downlevel.obj
 0002:00004210       ??_C@_15EPELEGJA@?$AAk?$AAo?$AA?$AA@ 000000018007b210     libucrt:lcidtoname_downlevel.obj
 0002:00004218       ??_C@_15NDDHIMN@?$AAn?$AAl?$AA?$AA@ 000000018007b218     libucrt:lcidtoname_downlevel.obj
 0002:00004220       ??_C@_15BPIGNHCD@?$AAn?$AAo?$AA?$AA@ 000000018007b220     libucrt:lcidtoname_downlevel.obj
 0002:00004228       ??_C@_15DEOPBLCG@?$AAp?$AAl?$AA?$AA@ 000000018007b228     libucrt:lcidtoname_downlevel.obj
 0002:00004230       ??_C@_15KBECGEFG@?$AAp?$AAt?$AA?$AA@ 000000018007b230     libucrt:lcidtoname_downlevel.obj
 0002:00004238       ??_C@_15GLJCBFMD@?$AAr?$AAo?$AA?$AA@ 000000018007b238     libucrt:lcidtoname_downlevel.obj
 0002:00004240       ??_C@_15FEDGKCDI@?$AAr?$AAu?$AA?$AA@ 000000018007b240     libucrt:lcidtoname_downlevel.obj
 0002:00004248       ??_C@_15GLKMLLHM@?$AAh?$AAr?$AA?$AA@ 000000018007b248     libucrt:lcidtoname_downlevel.obj
 0002:00004250       ??_C@_15CPKMFBDB@?$AAs?$AAk?$AA?$AA@ 000000018007b250     libucrt:lcidtoname_downlevel.obj
 0002:00004258       ??_C@_15BAAIOGMK@?$AAs?$AAq?$AA?$AA@ 000000018007b258     libucrt:lcidtoname_downlevel.obj
 0002:00004260       ??_C@_15INNPNOHD@?$AAs?$AAv?$AA?$AA@ 000000018007b260     libucrt:lcidtoname_downlevel.obj
 0002:00004268       ??_C@_15CABMMOGH@?$AAt?$AAh?$AA?$AA@ 000000018007b268     libucrt:lcidtoname_downlevel.obj
 0002:00004270       ??_C@_15BPLIHJJM@?$AAt?$AAr?$AA?$AA@ 000000018007b270     libucrt:lcidtoname_downlevel.obj
 0002:00004278       ??_C@_15NEOEKKDJ@?$AAu?$AAr?$AA?$AA@ 000000018007b278     libucrt:lcidtoname_downlevel.obj
 0002:00004280       ??_C@_15NFICGAJK@?$AAi?$AAd?$AA?$AA@ 000000018007b280     libucrt:lcidtoname_downlevel.obj
 0002:00004288       ??_C@_15HPJPHDM@?$AAb?$AAe?$AA?$AA@ 000000018007b288     libucrt:lcidtoname_downlevel.obj
 0002:00004290       ??_C@_15LCHLGJII@?$AAs?$AAl?$AA?$AA@ 000000018007b290     libucrt:lcidtoname_downlevel.obj
 0002:00004298       ??_C@_15PCFJPHHO@?$AAe?$AAt?$AA?$AA@ 000000018007b298     libucrt:lcidtoname_downlevel.obj
 0002:000042a0       ??_C@_15HPFPGODN@?$AAl?$AAv?$AA?$AA@ 000000018007b2a0     libucrt:lcidtoname_downlevel.obj
 0002:000042a8       ??_C@_15NFFGKGLG@?$AAl?$AAt?$AA?$AA@ 000000018007b2a8     libucrt:lcidtoname_downlevel.obj
 0002:000042b0       ??_C@_15BDAKCCHN@?$AAf?$AAa?$AA?$AA@ 000000018007b2b0     libucrt:lcidtoname_downlevel.obj
 0002:000042b8       ??_C@_15NFGIAIAJ@?$AAv?$AAi?$AA?$AA@ 000000018007b2b8     libucrt:lcidtoname_downlevel.obj
 0002:000042c0       ??_C@_15LMKNDMHN@?$AAh?$AAy?$AA?$AA@ 000000018007b2c0     libucrt:lcidtoname_downlevel.obj
 0002:000042c8       ??_C@_15IJBHMCFL@?$AAa?$AAz?$AA?$AA@ 000000018007b2c8     libucrt:lcidtoname_downlevel.obj
 0002:000042d0       ??_C@_15EKOFJABL@?$AAe?$AAu?$AA?$AA@ 000000018007b2d0     libucrt:lcidtoname_downlevel.obj
 0002:000042d8       ??_C@_15BGHADCNK@?$AAm?$AAk?$AA?$AA@ 000000018007b2d8     libucrt:lcidtoname_downlevel.obj
 0002:000042e0       ??_C@_15JDNICKHM@?$AAa?$AAf?$AA?$AA@ 000000018007b2e0     libucrt:lcidtoname_downlevel.obj
 0002:000042e8       ??_C@_15KPJEDBKD@?$AAk?$AAa?$AA?$AA@ 000000018007b2e8     libucrt:lcidtoname_downlevel.obj
 0002:000042f0       ??_C@_15PDNFFFEO@?$AAf?$AAo?$AA?$AA@ 000000018007b2f0     libucrt:lcidtoname_downlevel.obj
 0002:000042f8       ??_C@_15OMLEGLOC@?$AAh?$AAi?$AA?$AA@ 000000018007b2f8     libucrt:lcidtoname_downlevel.obj
 0002:00004300       ??_C@_15IDNNENKK@?$AAm?$AAs?$AA?$AA@ 000000018007b300     libucrt:lcidtoname_downlevel.obj
 0002:00004308       ??_C@_15MACJNBMH@?$AAk?$AAk?$AA?$AA@ 000000018007b308     libucrt:lcidtoname_downlevel.obj
 0002:00004310       ??_C@_15DKDJEOND@?$AAk?$AAy?$AA?$AA@ 000000018007b310     libucrt:lcidtoname_downlevel.obj
 0002:00004318       ??_C@_15DFGDLJBG@?$AAs?$AAw?$AA?$AA@ 000000018007b318     libucrt:lcidtoname_downlevel.obj
 0002:00004320       ??_C@_15BBFAICNG@?$AAu?$AAz?$AA?$AA@ 000000018007b320     libucrt:lcidtoname_downlevel.obj
 0002:00004328       ??_C@_15DKNDCGEA@?$AAt?$AAt?$AA?$AA@ 000000018007b328     libucrt:lcidtoname_downlevel.obj
 0002:00004330       ??_C@_15MGIFMDPL@?$AAp?$AAa?$AA?$AA@ 000000018007b330     libucrt:lcidtoname_downlevel.obj
 0002:00004338       ??_C@_15HCNDBBA@?$AAg?$AAu?$AA?$AA@ 000000018007b338     libucrt:lcidtoname_downlevel.obj
 0002:00004340       ??_C@_15FNBEIBON@?$AAt?$AAa?$AA?$AA@ 000000018007b340     libucrt:lcidtoname_downlevel.obj
 0002:00004348       ??_C@_15NCHGBGLK@?$AAt?$AAe?$AA?$AA@ 000000018007b348     libucrt:lcidtoname_downlevel.obj
 0002:00004350       ??_C@_15PHPHCBPF@?$AAk?$AAn?$AA?$AA@ 000000018007b350     libucrt:lcidtoname_downlevel.obj
 0002:00004358       ??_C@_15DLGBCKMP@?$AAm?$AAr?$AA?$AA@ 000000018007b358     libucrt:lcidtoname_downlevel.obj
 0002:00004360       ??_C@_15EABBLBFF@?$AAs?$AAa?$AA?$AA@ 000000018007b360     libucrt:lcidtoname_downlevel.obj
 0002:00004368       ??_C@_15CBKOMCOI@?$AAm?$AAn?$AA?$AA@ 000000018007b368     libucrt:lcidtoname_downlevel.obj
 0002:00004370       ??_C@_15CKDMCJAF@?$AAg?$AAl?$AA?$AA@ 000000018007b370     libucrt:lcidtoname_downlevel.obj
 0002:00004378       ??_C@_17CNJFBPG@?$AAk?$AAo?$AAk?$AA?$AA@ 000000018007b378     libucrt:lcidtoname_downlevel.obj
 0002:00004380       ??_C@_17FFBJICPL@?$AAs?$AAy?$AAr?$AA?$AA@ 000000018007b380     libucrt:lcidtoname_downlevel.obj
 0002:00004388       ??_C@_17KPNDCPAF@?$AAd?$AAi?$AAv?$AA?$AA@ 000000018007b388     libucrt:lcidtoname_downlevel.obj
 0002:00004390       ??_C@_11LOCGONAA@?$AA?$AA@ 000000018007b390     libucrt:lcidtoname_downlevel.obj
 0002:00004398       ??_C@_1M@OKAHONE@?$AAa?$AAr?$AA?9?$AAS?$AAA?$AA?$AA@ 000000018007b398     libucrt:lcidtoname_downlevel.obj
 0002:000043a8       ??_C@_1M@FFFIGIGK@?$AAb?$AAg?$AA?9?$AAB?$AAG?$AA?$AA@ 000000018007b3a8     libucrt:lcidtoname_downlevel.obj
 0002:000043b8       ??_C@_1M@BJNKEDC@?$AAc?$AAa?$AA?9?$AAE?$AAS?$AA?$AA@ 000000018007b3b8     libucrt:lcidtoname_downlevel.obj
 0002:000043c8       ??_C@_1M@IJJHFJHA@?$AAc?$AAs?$AA?9?$AAC?$AAZ?$AA?$AA@ 000000018007b3c8     libucrt:lcidtoname_downlevel.obj
 0002:000043d8       ??_C@_1M@CLPEOBGI@?$AAd?$AAa?$AA?9?$AAD?$AAK?$AA?$AA@ 000000018007b3d8     libucrt:lcidtoname_downlevel.obj
 0002:000043e8       ??_C@_1M@MCMADGCB@?$AAd?$AAe?$AA?9?$AAD?$AAE?$AA?$AA@ 000000018007b3e8     libucrt:lcidtoname_downlevel.obj
 0002:000043f8       ??_C@_1M@OOCKEMAM@?$AAe?$AAl?$AA?9?$AAG?$AAR?$AA?$AA@ 000000018007b3f8     libucrt:lcidtoname_downlevel.obj
 0002:00004408       ??_C@_1M@DDNJFGID@?$AAf?$AAi?$AA?9?$AAF?$AAI?$AA?$AA@ 000000018007b408     libucrt:lcidtoname_downlevel.obj
 0002:00004418       ??_C@_1M@GLIPPMAC@?$AAf?$AAr?$AA?9?$AAF?$AAR?$AA?$AA@ 000000018007b418     libucrt:lcidtoname_downlevel.obj
 0002:00004428       ??_C@_1M@GFMCHPE@?$AAh?$AAe?$AA?9?$AAI?$AAL?$AA?$AA@ 000000018007b428     libucrt:lcidtoname_downlevel.obj
 0002:00004438       ??_C@_1M@MHLPGNKM@?$AAh?$AAu?$AA?9?$AAH?$AAU?$AA?$AA@ 000000018007b438     libucrt:lcidtoname_downlevel.obj
 0002:00004448       ??_C@_1M@LPDDNNPN@?$AAi?$AAs?$AA?9?$AAI?$AAS?$AA?$AA@ 000000018007b448     libucrt:lcidtoname_downlevel.obj
 0002:00004458       ??_C@_1M@MADIPODN@?$AAi?$AAt?$AA?9?$AAI?$AAT?$AA?$AA@ 000000018007b458     libucrt:lcidtoname_downlevel.obj
 0002:00004468       ??_C@_1M@IHBJJGG@?$AAn?$AAl?$AA?9?$AAN?$AAL?$AA?$AA@ 000000018007b468     libucrt:lcidtoname_downlevel.obj
 0002:00004478       ??_C@_1M@EANAGDL@?$AAn?$AAb?$AA?9?$AAN?$AAO?$AA?$AA@ 000000018007b478     libucrt:lcidtoname_downlevel.obj
 0002:00004488       ??_C@_1M@NEIEMEGP@?$AAp?$AAl?$AA?9?$AAP?$AAL?$AA?$AA@ 000000018007b488     libucrt:lcidtoname_downlevel.obj
 0002:00004498       ??_C@_1M@BOCFIGEP@?$AAp?$AAt?$AA?9?$AAB?$AAR?$AA?$AA@ 000000018007b498     libucrt:lcidtoname_downlevel.obj
 0002:000044a8       ??_C@_1M@IMPFOPBG@?$AAr?$AAo?$AA?9?$AAR?$AAO?$AA?$AA@ 000000018007b4a8     libucrt:lcidtoname_downlevel.obj
 0002:000044b8       ??_C@_1M@IDNNEJMM@?$AAr?$AAu?$AA?9?$AAR?$AAU?$AA?$AA@ 000000018007b4b8     libucrt:lcidtoname_downlevel.obj
 0002:000044c8       ??_C@_1M@LILEEOGM@?$AAh?$AAr?$AA?9?$AAH?$AAR?$AA?$AA@ 000000018007b4c8     libucrt:lcidtoname_downlevel.obj
 0002:000044d8       ??_C@_1M@FKIFEHPB@?$AAs?$AAk?$AA?9?$AAS?$AAK?$AA?$AA@ 000000018007b4d8     libucrt:lcidtoname_downlevel.obj
 0002:000044e8       ??_C@_1M@LJMAMNPJ@?$AAs?$AAq?$AA?9?$AAA?$AAL?$AA?$AA@ 000000018007b4e8     libucrt:lcidtoname_downlevel.obj
 0002:000044f8       ??_C@_1M@GIAKDKJK@?$AAs?$AAv?$AA?9?$AAS?$AAE?$AA?$AA@ 000000018007b4f8     libucrt:lcidtoname_downlevel.obj
 0002:00004508       ??_C@_1M@MKJKIKCL@?$AAt?$AAh?$AA?9?$AAT?$AAH?$AA?$AA@ 000000018007b508     libucrt:lcidtoname_downlevel.obj
 0002:00004518       ??_C@_1M@MFLCCMPB@?$AAt?$AAr?$AA?9?$AAT?$AAR?$AA?$AA@ 000000018007b518     libucrt:lcidtoname_downlevel.obj
 0002:00004528       ??_C@_1M@OIJHDKJN@?$AAu?$AAr?$AA?9?$AAP?$AAK?$AA?$AA@ 000000018007b528     libucrt:lcidtoname_downlevel.obj
 0002:00004538       ??_C@_1M@LHIPCIEK@?$AAi?$AAd?$AA?9?$AAI?$AAD?$AA?$AA@ 000000018007b538     libucrt:lcidtoname_downlevel.obj
 0002:00004548       ??_C@_1M@MFMOBGI@?$AAu?$AAk?$AA?9?$AAU?$AAA?$AA?$AA@ 000000018007b548     libucrt:lcidtoname_downlevel.obj
 0002:00004558       ??_C@_1M@OBGLJIPL@?$AAb?$AAe?$AA?9?$AAB?$AAY?$AA?$AA@ 000000018007b558     libucrt:lcidtoname_downlevel.obj
 0002:00004568       ??_C@_1M@BCFAJEAD@?$AAs?$AAl?$AA?9?$AAS?$AAI?$AA?$AA@ 000000018007b568     libucrt:lcidtoname_downlevel.obj
 0002:00004578       ??_C@_1M@FKFFEDDN@?$AAe?$AAt?$AA?9?$AAE?$AAE?$AA?$AA@ 000000018007b578     libucrt:lcidtoname_downlevel.obj
 0002:00004588       ??_C@_1M@KGKKAACI@?$AAl?$AAv?$AA?9?$AAL?$AAV?$AA?$AA@ 000000018007b588     libucrt:lcidtoname_downlevel.obj
 0002:00004598       ??_C@_1M@IFGBIJO@?$AAl?$AAt?$AA?9?$AAL?$AAT?$AA?$AA@ 000000018007b598     libucrt:lcidtoname_downlevel.obj
 0002:000045a8       ??_C@_1M@FGEAHEDM@?$AAf?$AAa?$AA?9?$AAI?$AAR?$AA?$AA@ 000000018007b5a8     libucrt:lcidtoname_downlevel.obj
 0002:000045b8       ??_C@_1M@KBMAIBFN@?$AAv?$AAi?$AA?9?$AAV?$AAN?$AA?$AA@ 000000018007b5b8     libucrt:lcidtoname_downlevel.obj
 0002:000045c8       ??_C@_1M@GPCBKDJK@?$AAh?$AAy?$AA?9?$AAA?$AAM?$AA?$AA@ 000000018007b5c8     libucrt:lcidtoname_downlevel.obj
 0002:000045d8       ??_C@_1BG@BECMDDJB@?$AAa?$AAz?$AA?9?$AAA?$AAZ?$AA?9?$AAL?$AAa?$AAt?$AAn?$AA?$AA@ 000000018007b5d8     libucrt:lcidtoname_downlevel.obj
 0002:000045f0       ??_C@_1M@MAOFCAEA@?$AAe?$AAu?$AA?9?$AAE?$AAS?$AA?$AA@ 000000018007b5f0     libucrt:lcidtoname_downlevel.obj
 0002:00004600       ??_C@_1M@IGHABKPI@?$AAm?$AAk?$AA?9?$AAM?$AAK?$AA?$AA@ 000000018007b600     libucrt:lcidtoname_downlevel.obj
 0002:00004610       ??_C@_1M@IAIGNEJG@?$AAt?$AAn?$AA?9?$AAZ?$AAA?$AA?$AA@ 000000018007b610     libucrt:lcidtoname_downlevel.obj
 0002:00004620       ??_C@_1M@IIJCOJFA@?$AAx?$AAh?$AA?9?$AAZ?$AAA?$AA?$AA@ 000000018007b620     libucrt:lcidtoname_downlevel.obj
 0002:00004630       ??_C@_1M@LGPJHNJH@?$AAz?$AAu?$AA?9?$AAZ?$AAA?$AA?$AA@ 000000018007b630     libucrt:lcidtoname_downlevel.obj
 0002:00004640       ??_C@_1M@HOKAOIO@?$AAa?$AAf?$AA?9?$AAZ?$AAA?$AA?$AA@ 000000018007b640     libucrt:lcidtoname_downlevel.obj
 0002:00004650       ??_C@_1M@DPCLHLIE@?$AAk?$AAa?$AA?9?$AAG?$AAE?$AA?$AA@ 000000018007b650     libucrt:lcidtoname_downlevel.obj
 0002:00004660       ??_C@_1M@BLKMHJBI@?$AAf?$AAo?$AA?9?$AAF?$AAO?$AA?$AA@ 000000018007b660     libucrt:lcidtoname_downlevel.obj
 0002:00004670       ??_C@_1M@LGGJAPPB@?$AAh?$AAi?$AA?9?$AAI?$AAN?$AA?$AA@ 000000018007b670     libucrt:lcidtoname_downlevel.obj
 0002:00004680       ??_C@_1M@FIKPIHFE@?$AAm?$AAt?$AA?9?$AAM?$AAT?$AA?$AA@ 000000018007b680     libucrt:lcidtoname_downlevel.obj
 0002:00004690       ??_C@_1M@HEGGPBFA@?$AAs?$AAe?$AA?9?$AAN?$AAO?$AA?$AA@ 000000018007b690     libucrt:lcidtoname_downlevel.obj
 0002:000046a0       ??_C@_1M@EIBJEEPA@?$AAm?$AAs?$AA?9?$AAM?$AAY?$AA?$AA@ 000000018007b6a0     libucrt:lcidtoname_downlevel.obj
 0002:000046b0       ??_C@_1M@FHLBGMPP@?$AAk?$AAk?$AA?9?$AAK?$AAZ?$AA?$AA@ 000000018007b6b0     libucrt:lcidtoname_downlevel.obj
 0002:000046c0       ??_C@_1M@NGJJLCGI@?$AAk?$AAy?$AA?9?$AAK?$AAG?$AA?$AA@ 000000018007b6c0     libucrt:lcidtoname_downlevel.obj
 0002:000046d0       ??_C@_1M@GIENNBFC@?$AAs?$AAw?$AA?9?$AAK?$AAE?$AA?$AA@ 000000018007b6d0     libucrt:lcidtoname_downlevel.obj
 0002:000046e0       ??_C@_1BG@NDGMJIMJ@?$AAu?$AAz?$AA?9?$AAU?$AAZ?$AA?9?$AAL?$AAa?$AAt?$AAn?$AA?$AA@ 000000018007b6e0     libucrt:lcidtoname_downlevel.obj
 0002:000046f8       ??_C@_1M@IDCCIHBC@?$AAt?$AAt?$AA?9?$AAR?$AAU?$AA?$AA@ 000000018007b6f8     libucrt:lcidtoname_downlevel.obj
 0002:00004708       ??_C@_1M@LOICPMOJ@?$AAb?$AAn?$AA?9?$AAI?$AAN?$AA?$AA@ 000000018007b708     libucrt:lcidtoname_downlevel.obj
 0002:00004718       ??_C@_1M@KPKKNEAH@?$AAp?$AAa?$AA?9?$AAI?$AAN?$AA?$AA@ 000000018007b718     libucrt:lcidtoname_downlevel.obj
 0002:00004728       ??_C@_1M@PJGPPBOG@?$AAg?$AAu?$AA?9?$AAI?$AAN?$AA?$AA@ 000000018007b728     libucrt:lcidtoname_downlevel.obj
 0002:00004738       ??_C@_1M@KMKMOPHI@?$AAt?$AAa?$AA?9?$AAI?$AAN?$AA?$AA@ 000000018007b738     libucrt:lcidtoname_downlevel.obj
 0002:00004748       ??_C@_1M@KFEHEPAC@?$AAt?$AAe?$AA?9?$AAI?$AAN?$AA?$AA@ 000000018007b748     libucrt:lcidtoname_downlevel.obj
 0002:00004758       ??_C@_1M@CDCLMGHI@?$AAk?$AAn?$AA?9?$AAI?$AAN?$AA?$AA@ 000000018007b758     libucrt:lcidtoname_downlevel.obj
 0002:00004768       ??_C@_1M@MIODLDKF@?$AAm?$AAl?$AA?9?$AAI?$AAN?$AA?$AA@ 000000018007b768     libucrt:lcidtoname_downlevel.obj
 0002:00004778       ??_C@_1M@PBIEACPO@?$AAm?$AAr?$AA?9?$AAI?$AAN?$AA?$AA@ 000000018007b778     libucrt:lcidtoname_downlevel.obj
 0002:00004788       ??_C@_1M@NIDEAGPH@?$AAs?$AAa?$AA?9?$AAI?$AAN?$AA?$AA@ 000000018007b788     libucrt:lcidtoname_downlevel.obj
 0002:00004798       ??_C@_1M@FHIHCBIO@?$AAm?$AAn?$AA?9?$AAM?$AAN?$AA?$AA@ 000000018007b798     libucrt:lcidtoname_downlevel.obj
 0002:000047a8       ??_C@_1M@JAIJPENP@?$AAc?$AAy?$AA?9?$AAG?$AAB?$AA?$AA@ 000000018007b7a8     libucrt:lcidtoname_downlevel.obj
 0002:000047b8       ??_C@_1M@PHGFBEPN@?$AAg?$AAl?$AA?9?$AAE?$AAS?$AA?$AA@ 000000018007b7b8     libucrt:lcidtoname_downlevel.obj
 0002:000047c8       ??_C@_1O@KPIPDNCP@?$AAk?$AAo?$AAk?$AA?9?$AAI?$AAN?$AA?$AA@ 000000018007b7c8     libucrt:lcidtoname_downlevel.obj
 0002:000047d8       ??_C@_1O@KNHJLDJA@?$AAs?$AAy?$AAr?$AA?9?$AAS?$AAY?$AA?$AA@ 000000018007b7d8     libucrt:lcidtoname_downlevel.obj
 0002:000047e8       ??_C@_1O@MKEKBLAH@?$AAd?$AAi?$AAv?$AA?9?$AAM?$AAV?$AA?$AA@ 000000018007b7e8     libucrt:lcidtoname_downlevel.obj
 0002:000047f8       ??_C@_1O@OHDCKDDF@?$AAq?$AAu?$AAz?$AA?9?$AAB?$AAO?$AA?$AA@ 000000018007b7f8     libucrt:lcidtoname_downlevel.obj
 0002:00004808       ??_C@_1M@LEPJNLFD@?$AAn?$AAs?$AA?9?$AAZ?$AAA?$AA?$AA@ 000000018007b808     libucrt:lcidtoname_downlevel.obj
 0002:00004818       ??_C@_1M@OMLEIIJB@?$AAm?$AAi?$AA?9?$AAN?$AAZ?$AA?$AA@ 000000018007b818     libucrt:lcidtoname_downlevel.obj
 0002:00004828       ??_C@_1M@PMPEAILG@?$AAa?$AAr?$AA?9?$AAI?$AAQ?$AA?$AA@ 000000018007b828     libucrt:lcidtoname_downlevel.obj
 0002:00004838       ??_C@_1M@CNKPNOEE@?$AAd?$AAe?$AA?9?$AAC?$AAH?$AA?$AA@ 000000018007b838     libucrt:lcidtoname_downlevel.obj
 0002:00004848       ??_C@_1M@LKMGMLKO@?$AAe?$AAn?$AA?9?$AAG?$AAB?$AA?$AA@ 000000018007b848     libucrt:lcidtoname_downlevel.obj
 0002:00004858       ??_C@_1M@PGKJFFGL@?$AAe?$AAs?$AA?9?$AAM?$AAX?$AA?$AA@ 000000018007b858     libucrt:lcidtoname_downlevel.obj
 0002:00004868       ??_C@_1M@DNNANBDC@?$AAf?$AAr?$AA?9?$AAB?$AAE?$AA?$AA@ 000000018007b868     libucrt:lcidtoname_downlevel.obj
 0002:00004878       ??_C@_1M@HLGMDFHM@?$AAi?$AAt?$AA?9?$AAC?$AAH?$AA?$AA@ 000000018007b878     libucrt:lcidtoname_downlevel.obj
 0002:00004888       ??_C@_1M@CLLBGJH@?$AAn?$AAl?$AA?9?$AAB?$AAE?$AA?$AA@ 000000018007b888     libucrt:lcidtoname_downlevel.obj
 0002:00004898       ??_C@_1M@BODBOGLF@?$AAn?$AAn?$AA?9?$AAN?$AAO?$AA?$AA@ 000000018007b898     libucrt:lcidtoname_downlevel.obj
 0002:000048a8       ??_C@_1M@HFFAHKAD@?$AAp?$AAt?$AA?9?$AAP?$AAT?$AA?$AA@ 000000018007b8a8     libucrt:lcidtoname_downlevel.obj
 0002:000048b8       ??_C@_1BG@LNOAKHIE@?$AAs?$AAr?$AA?9?$AAS?$AAP?$AA?9?$AAL?$AAa?$AAt?$AAn?$AA?$AA@ 000000018007b8b8     libucrt:lcidtoname_downlevel.obj
 0002:000048d0       ??_C@_1M@HBMHBGAK@?$AAs?$AAv?$AA?9?$AAF?$AAI?$AA?$AA@ 000000018007b8d0     libucrt:lcidtoname_downlevel.obj
 0002:000048e0       ??_C@_1BG@DGCJGJBE@?$AAa?$AAz?$AA?9?$AAA?$AAZ?$AA?9?$AAC?$AAy?$AAr?$AAl?$AA?$AA@ 000000018007b8e0     libucrt:lcidtoname_downlevel.obj
 0002:000048f8       ??_C@_1M@KEJDAAHB@?$AAs?$AAe?$AA?9?$AAS?$AAE?$AA?$AA@ 000000018007b8f8     libucrt:lcidtoname_downlevel.obj
 0002:00004908       ??_C@_1M@HEIBJJAD@?$AAm?$AAs?$AA?9?$AAB?$AAN?$AA?$AA@ 000000018007b908     libucrt:lcidtoname_downlevel.obj
 0002:00004918       ??_C@_1BG@PBGJMCEM@?$AAu?$AAz?$AA?9?$AAU?$AAZ?$AA?9?$AAC?$AAy?$AAr?$AAl?$AA?$AA@ 000000018007b918     libucrt:lcidtoname_downlevel.obj
 0002:00004930       ??_C@_1O@LAOBCMDF@?$AAq?$AAu?$AAz?$AA?9?$AAE?$AAC?$AA?$AA@ 000000018007b930     libucrt:lcidtoname_downlevel.obj
 0002:00004940       ??_C@_1M@POEEMAIO@?$AAa?$AAr?$AA?9?$AAE?$AAG?$AA?$AA@ 000000018007b940     libucrt:lcidtoname_downlevel.obj
 0002:00004950       ??_C@_1M@EFAKDEDL@?$AAz?$AAh?$AA?9?$AAH?$AAK?$AA?$AA@ 000000018007b950     libucrt:lcidtoname_downlevel.obj
 0002:00004960       ??_C@_1M@HKKIJHGI@?$AAd?$AAe?$AA?9?$AAA?$AAT?$AA?$AA@ 000000018007b960     libucrt:lcidtoname_downlevel.obj
 0002:00004970       ??_C@_1M@KBFBEHJF@?$AAe?$AAn?$AA?9?$AAA?$AAU?$AA?$AA@ 000000018007b970     libucrt:lcidtoname_downlevel.obj
 0002:00004980       ??_C@_1M@MNPLFAAH@?$AAe?$AAs?$AA?9?$AAE?$AAS?$AA?$AA@ 000000018007b980     libucrt:lcidtoname_downlevel.obj
 0002:00004990       ??_C@_1M@HJOOJFMA@?$AAf?$AAr?$AA?9?$AAC?$AAA?$AA?$AA@ 000000018007b990     libucrt:lcidtoname_downlevel.obj
 0002:000049a0       ??_C@_1BG@JPOFPNAB@?$AAs?$AAr?$AA?9?$AAS?$AAP?$AA?9?$AAC?$AAy?$AAr?$AAl?$AA?$AA@ 000000018007b9a0     libucrt:lcidtoname_downlevel.obj
 0002:000049b8       ??_C@_1M@LNFOCMOB@?$AAs?$AAe?$AA?9?$AAF?$AAI?$AA?$AA@ 000000018007b9b8     libucrt:lcidtoname_downlevel.obj
 0002:000049c8       ??_C@_1O@MGJBOAMB@?$AAq?$AAu?$AAz?$AA?9?$AAP?$AAE?$AA?$AA@ 000000018007b9c8     libucrt:lcidtoname_downlevel.obj
 0002:000049d8       ??_C@_1M@GJINLBOK@?$AAa?$AAr?$AA?9?$AAL?$AAY?$AA?$AA@ 000000018007b9d8     libucrt:lcidtoname_downlevel.obj
 0002:000049e8       ??_C@_1M@GGMNHJNL@?$AAz?$AAh?$AA?9?$AAS?$AAG?$AA?$AA@ 000000018007b9e8     libucrt:lcidtoname_downlevel.obj
 0002:000049f8       ??_C@_1M@HOIKODND@?$AAd?$AAe?$AA?9?$AAL?$AAU?$AA?$AA@ 000000018007b9f8     libucrt:lcidtoname_downlevel.obj
 0002:00004a08       ??_C@_1M@DDOCCGFG@?$AAe?$AAn?$AA?9?$AAC?$AAA?$AA?$AA@ 000000018007ba08     libucrt:lcidtoname_downlevel.obj
 0002:00004a18       ??_C@_1M@BNOEMJLF@?$AAe?$AAs?$AA?9?$AAG?$AAT?$AA?$AA@ 000000018007ba18     libucrt:lcidtoname_downlevel.obj
 0002:00004a28       ??_C@_1M@EOGNKEK@?$AAf?$AAr?$AA?9?$AAC?$AAH?$AA?$AA@ 000000018007ba28     libucrt:lcidtoname_downlevel.obj
 0002:00004a38       ??_C@_1M@FLIDJFHL@?$AAh?$AAr?$AA?9?$AAB?$AAA?$AA?$AA@ 000000018007ba38     libucrt:lcidtoname_downlevel.obj
 0002:00004a48       ??_C@_1O@FMCELNAJ@?$AAs?$AAm?$AAj?$AA?9?$AAN?$AAO?$AA?$AA@ 000000018007ba48     libucrt:lcidtoname_downlevel.obj
 0002:00004a58       ??_C@_1M@JHGLJMGJ@?$AAa?$AAr?$AA?9?$AAD?$AAZ?$AA?$AA@ 000000018007ba58     libucrt:lcidtoname_downlevel.obj
 0002:00004a68       ??_C@_1M@JKKFDCNP@?$AAz?$AAh?$AA?9?$AAM?$AAO?$AA?$AA@ 000000018007ba68     libucrt:lcidtoname_downlevel.obj
 0002:00004a78       ??_C@_1M@GEEFALPE@?$AAd?$AAe?$AA?9?$AAL?$AAI?$AA?$AA@ 000000018007ba78     libucrt:lcidtoname_downlevel.obj
 0002:00004a88       ??_C@_1M@IGEOFBG@?$AAe?$AAn?$AA?9?$AAN?$AAZ?$AA?$AA@ 000000018007ba88     libucrt:lcidtoname_downlevel.obj
 0002:00004a98       ??_C@_1M@KDBONEHP@?$AAe?$AAs?$AA?9?$AAC?$AAR?$AA?$AA@ 000000018007ba98     libucrt:lcidtoname_downlevel.obj
 0002:00004aa8       ??_C@_1M@FHMDOHNN@?$AAf?$AAr?$AA?9?$AAL?$AAU?$AA?$AA@ 000000018007baa8     libucrt:lcidtoname_downlevel.obj
 0002:00004ab8       ??_C@_1BG@NFKKMAFG@?$AAb?$AAs?$AA?9?$AAB?$AAA?$AA?9?$AAL?$AAa?$AAt?$AAn?$AA?$AA@ 000000018007bab8     libucrt:lcidtoname_downlevel.obj
 0002:00004ad0       ??_C@_1O@IMNBEMCI@?$AAs?$AAm?$AAj?$AA?9?$AAS?$AAE?$AA?$AA@ 000000018007bad0     libucrt:lcidtoname_downlevel.obj
 0002:00004ae0       ??_C@_1M@DHHMBNDP@?$AAa?$AAr?$AA?9?$AAM?$AAA?$AA?$AA@ 000000018007bae0     libucrt:lcidtoname_downlevel.obj
 0002:00004af0       ??_C@_1M@BNBLJCGH@?$AAe?$AAn?$AA?9?$AAI?$AAE?$AA?$AA@ 000000018007baf0     libucrt:lcidtoname_downlevel.obj
 0002:00004b00       ??_C@_1M@GEPAFMDL@?$AAe?$AAs?$AA?9?$AAP?$AAA?$AA?$AA@ 000000018007bb00     libucrt:lcidtoname_downlevel.obj
 0002:00004b10       ??_C@_1M@OJONDMDL@?$AAf?$AAr?$AA?9?$AAM?$AAC?$AA?$AA@ 000000018007bb10     libucrt:lcidtoname_downlevel.obj
 0002:00004b20       ??_C@_1BG@OBCNFJB@?$AAs?$AAr?$AA?9?$AAB?$AAA?$AA?9?$AAL?$AAa?$AAt?$AAn?$AA?$AA@ 000000018007bb20     libucrt:lcidtoname_downlevel.obj
 0002:00004b38       ??_C@_1O@KEMEEGPO@?$AAs?$AAm?$AAa?$AA?9?$AAN?$AAO?$AA?$AA@ 000000018007bb38     libucrt:lcidtoname_downlevel.obj
 0002:00004b48       ??_C@_1M@ELMGFODK@?$AAa?$AAr?$AA?9?$AAT?$AAN?$AA?$AA@ 000000018007bb48     libucrt:lcidtoname_downlevel.obj
 0002:00004b58       ??_C@_1M@BHDLHFAF@?$AAe?$AAn?$AA?9?$AAZ?$AAA?$AA?$AA@ 000000018007bb58     libucrt:lcidtoname_downlevel.obj
 0002:00004b68       ??_C@_1M@BMGIGLIF@?$AAe?$AAs?$AA?9?$AAD?$AAO?$AA?$AA@ 000000018007bb68     libucrt:lcidtoname_downlevel.obj
 0002:00004b78       ??_C@_1BG@CMBHIPBE@?$AAs?$AAr?$AA?9?$AAB?$AAA?$AA?9?$AAC?$AAy?$AAr?$AAl?$AA?$AA@ 000000018007bb78     libucrt:lcidtoname_downlevel.obj
 0002:00004b90       ??_C@_1O@HEDBLHNP@?$AAs?$AAm?$AAa?$AA?9?$AAS?$AAE?$AA?$AA@ 000000018007bb90     libucrt:lcidtoname_downlevel.obj
 0002:00004ba0       ??_C@_1M@DAGCADIM@?$AAa?$AAr?$AA?9?$AAO?$AAM?$AA?$AA@ 000000018007bba0     libucrt:lcidtoname_downlevel.obj
 0002:00004bb0       ??_C@_1M@FODLMICG@?$AAe?$AAn?$AA?9?$AAJ?$AAM?$AA?$AA@ 000000018007bbb0     libucrt:lcidtoname_downlevel.obj
 0002:00004bc0       ??_C@_1M@DNMLCIHB@?$AAe?$AAs?$AA?9?$AAV?$AAE?$AA?$AA@ 000000018007bbc0     libucrt:lcidtoname_downlevel.obj
 0002:00004bd0       ??_C@_1O@EOKHMKJK@?$AAs?$AAm?$AAs?$AA?9?$AAF?$AAI?$AA?$AA@ 000000018007bbd0     libucrt:lcidtoname_downlevel.obj
 0002:00004be0       ??_C@_1M@CAFJMKOF@?$AAa?$AAr?$AA?9?$AAY?$AAE?$AA?$AA@ 000000018007bbe0     libucrt:lcidtoname_downlevel.obj
 0002:00004bf0       ??_C@_1M@CBFHIJLI@?$AAe?$AAn?$AA?9?$AAC?$AAB?$AA?$AA@ 000000018007bbf0     libucrt:lcidtoname_downlevel.obj
 0002:00004c00       ??_C@_1M@BGNFLDN@?$AAe?$AAs?$AA?9?$AAC?$AAO?$AA?$AA@ 000000018007bc00     libucrt:lcidtoname_downlevel.obj
 0002:00004c10       ??_C@_1O@JMPHMAMC@?$AAs?$AAm?$AAn?$AA?9?$AAF?$AAI?$AA?$AA@ 000000018007bc10     libucrt:lcidtoname_downlevel.obj
 0002:00004c20       ??_C@_1M@JLANABKE@?$AAa?$AAr?$AA?9?$AAS?$AAY?$AA?$AA@ 000000018007bc20     libucrt:lcidtoname_downlevel.obj
 0002:00004c30       ??_C@_1M@HPKGCFGN@?$AAe?$AAn?$AA?9?$AAB?$AAZ?$AA?$AA@ 000000018007bc30     libucrt:lcidtoname_downlevel.obj
 0002:00004c40       ??_C@_1M@OLJCMLGM@?$AAe?$AAs?$AA?9?$AAP?$AAE?$AA?$AA@ 000000018007bc40     libucrt:lcidtoname_downlevel.obj
 0002:00004c50       ??_C@_1M@MKKGFKLE@?$AAa?$AAr?$AA?9?$AAJ?$AAO?$AA?$AA@ 000000018007bc50     libucrt:lcidtoname_downlevel.obj
 0002:00004c60       ??_C@_1M@EKPGLDNI@?$AAe?$AAn?$AA?9?$AAT?$AAT?$AA?$AA@ 000000018007bc60     libucrt:lcidtoname_downlevel.obj
 0002:00004c70       ??_C@_1M@OONGHFHE@?$AAe?$AAs?$AA?9?$AAA?$AAR?$AA?$AA@ 000000018007bc70     libucrt:lcidtoname_downlevel.obj
 0002:00004c80       ??_C@_1M@OOJFGBHE@?$AAa?$AAr?$AA?9?$AAL?$AAB?$AA?$AA@ 000000018007bc80     libucrt:lcidtoname_downlevel.obj
 0002:00004c90       ??_C@_1M@GCEJHNEG@?$AAe?$AAn?$AA?9?$AAZ?$AAW?$AA?$AA@ 000000018007bc90     libucrt:lcidtoname_downlevel.obj
 0002:00004ca0       ??_C@_1M@JNOCAHJI@?$AAe?$AAs?$AA?9?$AAE?$AAC?$AA?$AA@ 000000018007bca0     libucrt:lcidtoname_downlevel.obj
 0002:00004cb0       ??_C@_1M@JEFHPGGB@?$AAa?$AAr?$AA?9?$AAK?$AAW?$AA?$AA@ 000000018007bcb0     libucrt:lcidtoname_downlevel.obj
 0002:00004cc0       ??_C@_1M@MLKIBJOJ@?$AAe?$AAn?$AA?9?$AAP?$AAH?$AA?$AA@ 000000018007bcc0     libucrt:lcidtoname_downlevel.obj
 0002:00004cd0       ??_C@_1M@BDNIPEND@?$AAe?$AAs?$AA?9?$AAC?$AAL?$AA?$AA@ 000000018007bcd0     libucrt:lcidtoname_downlevel.obj
 0002:00004ce0       ??_C@_1M@MPNMEKBD@?$AAa?$AAr?$AA?9?$AAA?$AAE?$AA?$AA@ 000000018007bce0     libucrt:lcidtoname_downlevel.obj
 0002:00004cf0       ??_C@_1M@KBJALCPI@?$AAe?$AAs?$AA?9?$AAU?$AAY?$AA?$AA@ 000000018007bcf0     libucrt:lcidtoname_downlevel.obj
 0002:00004d00       ??_C@_1M@LLCCOAGA@?$AAa?$AAr?$AA?9?$AAB?$AAH?$AA?$AA@ 000000018007bd00     libucrt:lcidtoname_downlevel.obj
 0002:00004d10       ??_C@_1M@PBFNCDEL@?$AAe?$AAs?$AA?9?$AAP?$AAY?$AA?$AA@ 000000018007bd10     libucrt:lcidtoname_downlevel.obj
 0002:00004d20       ??_C@_1M@EDGINPNP@?$AAa?$AAr?$AA?9?$AAQ?$AAA?$AA?$AA@ 000000018007bd20     libucrt:lcidtoname_downlevel.obj
 0002:00004d30       ??_C@_1M@MKDBIIJI@?$AAe?$AAs?$AA?9?$AAB?$AAO?$AA?$AA@ 000000018007bd30     libucrt:lcidtoname_downlevel.obj
 0002:00004d40       ??_C@_1M@CPKKEBLD@?$AAe?$AAs?$AA?9?$AAS?$AAV?$AA?$AA@ 000000018007bd40     libucrt:lcidtoname_downlevel.obj
 0002:00004d50       ??_C@_1M@NDBGMMJL@?$AAe?$AAs?$AA?9?$AAH?$AAN?$AA?$AA@ 000000018007bd50     libucrt:lcidtoname_downlevel.obj
 0002:00004d60       ??_C@_1M@JIJIBHDP@?$AAe?$AAs?$AA?9?$AAN?$AAI?$AA?$AA@ 000000018007bd60     libucrt:lcidtoname_downlevel.obj
 0002:00004d70       ??_C@_1M@CGFMKEEK@?$AAe?$AAs?$AA?9?$AAP?$AAR?$AA?$AA@ 000000018007bd70     libucrt:lcidtoname_downlevel.obj
 0002:00004d80       ??_C@_1O@ICJHKIIK@?$AAz?$AAh?$AA?9?$AAC?$AAH?$AAT?$AA?$AA@ 000000018007bd80     libucrt:lcidtoname_downlevel.obj
 0002:00004d90       ??_C@_15CLNEJCE@?$AAs?$AAr?$AA?$AA@ 000000018007bd90     libucrt:lcidtoname_downlevel.obj
 0002:00005be0       ??_C@_1M@KAHEKEIG@?$AAa?$AAf?$AA?9?$AAz?$AAa?$AA?$AA@ 000000018007cbe0     libucrt:lcidtoname_downlevel.obj
 0002:00005bf0       ??_C@_1M@GIECOABL@?$AAa?$AAr?$AA?9?$AAa?$AAe?$AA?$AA@ 000000018007cbf0     libucrt:lcidtoname_downlevel.obj
 0002:00005c00       ??_C@_1M@BMLMEKGI@?$AAa?$AAr?$AA?9?$AAb?$AAh?$AA?$AA@ 000000018007cc00     libucrt:lcidtoname_downlevel.obj
 0002:00005c10       ??_C@_1M@DAPFDGGB@?$AAa?$AAr?$AA?9?$AAd?$AAz?$AA?$AA@ 000000018007cc10     libucrt:lcidtoname_downlevel.obj
 0002:00005c20       ??_C@_1M@FJNKGKIG@?$AAa?$AAr?$AA?9?$AAe?$AAg?$AA?$AA@ 000000018007cc20     libucrt:lcidtoname_downlevel.obj
 0002:00005c30       ??_C@_1M@FLGKKCLO@?$AAa?$AAr?$AA?9?$AAi?$AAq?$AA?$AA@ 000000018007cc30     libucrt:lcidtoname_downlevel.obj
 0002:00005c40       ??_C@_1M@GNDIPALM@?$AAa?$AAr?$AA?9?$AAj?$AAo?$AA?$AA@ 000000018007cc40     libucrt:lcidtoname_downlevel.obj
 0002:00005c50       ??_C@_1M@DDMJFMGJ@?$AAa?$AAr?$AA?9?$AAk?$AAw?$AA?$AA@ 000000018007cc50     libucrt:lcidtoname_downlevel.obj
 0002:00005c60       ??_C@_1M@EJALMLHM@?$AAa?$AAr?$AA?9?$AAl?$AAb?$AA?$AA@ 000000018007cc60     libucrt:lcidtoname_downlevel.obj
 0002:00005c70       ??_C@_1M@MOBDBLOC@?$AAa?$AAr?$AA?9?$AAl?$AAy?$AA?$AA@ 000000018007cc70     libucrt:lcidtoname_downlevel.obj
 0002:00005c80       ??_C@_1M@JAOCLHDH@?$AAa?$AAr?$AA?9?$AAm?$AAa?$AA?$AA@ 000000018007cc80     libucrt:lcidtoname_downlevel.obj
 0002:00005c90       ??_C@_1M@JHPMKJIE@?$AAa?$AAr?$AA?9?$AAo?$AAm?$AA?$AA@ 000000018007cc90     libucrt:lcidtoname_downlevel.obj
 0002:00005ca0       ??_C@_1M@OEPGHFNH@?$AAa?$AAr?$AA?9?$AAq?$AAa?$AA?$AA@ 000000018007cca0     libucrt:lcidtoname_downlevel.obj
 0002:00005cb0       ??_C@_1M@KJDONENM@?$AAa?$AAr?$AA?9?$AAs?$AAa?$AA?$AA@ 000000018007ccb0     libucrt:lcidtoname_downlevel.obj
 0002:00005cc0       ??_C@_1M@DMJDKLKM@?$AAa?$AAr?$AA?9?$AAs?$AAy?$AA?$AA@ 000000018007ccc0     libucrt:lcidtoname_downlevel.obj
 0002:00005cd0       ??_C@_1M@OMFIPEDC@?$AAa?$AAr?$AA?9?$AAt?$AAn?$AA?$AA@ 000000018007ccd0     libucrt:lcidtoname_downlevel.obj
 0002:00005ce0       ??_C@_1M@IHMHGAON@?$AAa?$AAr?$AA?9?$AAy?$AAe?$AA?$AA@ 000000018007cce0     libucrt:lcidtoname_downlevel.obj
 0002:00005cf0       ??_C@_1BG@KDCPGJGB@?$AAa?$AAz?$AA?9?$AAa?$AAz?$AA?9?$AAc?$AAy?$AAr?$AAl?$AA?$AA@ 000000018007ccf0     libucrt:lcidtoname_downlevel.obj
 0002:00005d08       ??_C@_1BG@IBCKDDOE@?$AAa?$AAz?$AA?9?$AAa?$AAz?$AA?9?$AAl?$AAa?$AAt?$AAn?$AA?$AA@ 000000018007cd08     libucrt:lcidtoname_downlevel.obj
 0002:00005d20       ??_C@_1M@EGPFDCPD@?$AAb?$AAe?$AA?9?$AAb?$AAy?$AA?$AA@ 000000018007cd20     libucrt:lcidtoname_downlevel.obj
 0002:00005d30       ??_C@_1M@PCMGMCGC@?$AAb?$AAg?$AA?9?$AAb?$AAg?$AA?$AA@ 000000018007cd30     libucrt:lcidtoname_downlevel.obj
 0002:00005d40       ??_C@_1M@BJBMFGOB@?$AAb?$AAn?$AA?9?$AAi?$AAn?$AA?$AA@ 000000018007cd40     libucrt:lcidtoname_downlevel.obj
 0002:00005d50       ??_C@_1BG@EAKMMACD@?$AAb?$AAs?$AA?9?$AAb?$AAa?$AA?9?$AAl?$AAa?$AAt?$AAn?$AA?$AA@ 000000018007cd50     libucrt:lcidtoname_downlevel.obj
 0002:00005d68       ??_C@_1M@KGADAODK@?$AAc?$AAa?$AA?9?$AAe?$AAs?$AA?$AA@ 000000018007cd68     libucrt:lcidtoname_downlevel.obj
 0002:00005d78       ??_C@_1M@COAJPDHI@?$AAc?$AAs?$AA?9?$AAc?$AAz?$AA?$AA@ 000000018007cd78     libucrt:lcidtoname_downlevel.obj
 0002:00005d88       ??_C@_1M@DHBHFONH@?$AAc?$AAy?$AA?9?$AAg?$AAb?$AA?$AA@ 000000018007cd88     libucrt:lcidtoname_downlevel.obj
 0002:00005d98       ??_C@_1M@IMGKELGA@?$AAd?$AAa?$AA?9?$AAd?$AAk?$AA?$AA@ 000000018007cd98     libucrt:lcidtoname_downlevel.obj
 0002:00005da8       ??_C@_1M@NNDGDNGA@?$AAd?$AAe?$AA?9?$AAa?$AAt?$AA?$AA@ 000000018007cda8     libucrt:lcidtoname_downlevel.obj
 0002:00005db8       ??_C@_1M@IKDBHEEM@?$AAd?$AAe?$AA?9?$AAc?$AAh?$AA?$AA@ 000000018007cdb8     libucrt:lcidtoname_downlevel.obj
 0002:00005dc8       ??_C@_1M@GFFOJMCJ@?$AAd?$AAe?$AA?9?$AAd?$AAe?$AA?$AA@ 000000018007cdc8     libucrt:lcidtoname_downlevel.obj
 0002:00005dd8       ??_C@_1M@MDNLKBPM@?$AAd?$AAe?$AA?9?$AAl?$AAi?$AA?$AA@ 000000018007cdd8     libucrt:lcidtoname_downlevel.obj
 0002:00005de8       ??_C@_1M@NJBEEJNL@?$AAd?$AAe?$AA?9?$AAl?$AAu?$AA?$AA@ 000000018007cde8     libucrt:lcidtoname_downlevel.obj
 0002:00005df8       ??_C@_1O@GNNELBAP@?$AAd?$AAi?$AAv?$AA?9?$AAm?$AAv?$AA?$AA@ 000000018007cdf8     libucrt:lcidtoname_downlevel.obj
 0002:00005e08       ??_C@_1M@EJLEOGAE@?$AAe?$AAl?$AA?9?$AAg?$AAr?$AA?$AA@ 000000018007ce08     libucrt:lcidtoname_downlevel.obj
 0002:00005e18       ??_C@_1M@GMPONJN@?$AAe?$AAn?$AA?9?$AAa?$AAu?$AA?$AA@ 000000018007ce18     libucrt:lcidtoname_downlevel.obj
 0002:00005e28       ??_C@_1M@NIDIIPGF@?$AAe?$AAn?$AA?9?$AAb?$AAz?$AA?$AA@ 000000018007ce28     libucrt:lcidtoname_downlevel.obj
 0002:00005e38       ??_C@_1M@JEHMIMFO@?$AAe?$AAn?$AA?9?$AAc?$AAa?$AA?$AA@ 000000018007ce38     libucrt:lcidtoname_downlevel.obj
 0002:00005e48       ??_C@_1M@IGMJCDLA@?$AAe?$AAn?$AA?9?$AAc?$AAb?$AA?$AA@ 000000018007ce48     libucrt:lcidtoname_downlevel.obj
 0002:00005e58       ??_C@_1M@BNFIGBKG@?$AAe?$AAn?$AA?9?$AAg?$AAb?$AA?$AA@ 000000018007ce58     libucrt:lcidtoname_downlevel.obj
 0002:00005e68       ??_C@_1M@LKIFDIGP@?$AAe?$AAn?$AA?9?$AAi?$AAe?$AA?$AA@ 000000018007ce68     libucrt:lcidtoname_downlevel.obj
 0002:00005e78       ??_C@_1M@PJKFGCCO@?$AAe?$AAn?$AA?9?$AAj?$AAm?$AA?$AA@ 000000018007ce78     libucrt:lcidtoname_downlevel.obj
 0002:00005e88       ??_C@_1M@KPPKEPBO@?$AAe?$AAn?$AA?9?$AAn?$AAz?$AA?$AA@ 000000018007ce88     libucrt:lcidtoname_downlevel.obj
 0002:00005e98       ??_C@_1M@GMDGLDOB@?$AAe?$AAn?$AA?9?$AAp?$AAh?$AA?$AA@ 000000018007ce98     libucrt:lcidtoname_downlevel.obj
 0002:00005ea8       ??_C@_1M@ONGIBJNA@?$AAe?$AAn?$AA?9?$AAt?$AAt?$AA?$AA@ 000000018007cea8     libucrt:lcidtoname_downlevel.obj
 0002:00005eb8       ??_C@_1M@LLODPCMM@?$AAe?$AAn?$AA?9?$AAu?$AAs?$AA?$AA@ 000000018007ceb8     libucrt:lcidtoname_downlevel.obj
 0002:00005ec8       ??_C@_1M@LAKFNPAN@?$AAe?$AAn?$AA?9?$AAz?$AAa?$AA?$AA@ 000000018007cec8     libucrt:lcidtoname_downlevel.obj
 0002:00005ed8       ??_C@_1M@MFNHNHEO@?$AAe?$AAn?$AA?9?$AAz?$AAw?$AA?$AA@ 000000018007ced8     libucrt:lcidtoname_downlevel.obj
 0002:00005ee8       ??_C@_1M@EJEINPHM@?$AAe?$AAs?$AA?9?$AAa?$AAr?$AA?$AA@ 000000018007cee8     libucrt:lcidtoname_downlevel.obj
 0002:00005ef8       ??_C@_1M@GNKPCCJA@?$AAe?$AAs?$AA?9?$AAb?$AAo?$AA?$AA@ 000000018007cef8     libucrt:lcidtoname_downlevel.obj
 0002:00005f08       ??_C@_1M@LEEGFONL@?$AAe?$AAs?$AA?9?$AAc?$AAl?$AA?$AA@ 000000018007cf08     libucrt:lcidtoname_downlevel.obj
 0002:00005f18       ??_C@_1M@KGPDPBDF@?$AAe?$AAs?$AA?9?$AAc?$AAo?$AA?$AA@ 000000018007cf18     libucrt:lcidtoname_downlevel.obj
 0002:00005f28       ??_C@_1M@EIAHOHH@?$AAe?$AAs?$AA?9?$AAc?$AAr?$AA?$AA@ 000000018007cf28     libucrt:lcidtoname_downlevel.obj
 0002:00005f38       ??_C@_1M@LLPGMBIN@?$AAe?$AAs?$AA?9?$AAd?$AAo?$AA?$AA@ 000000018007cf38     libucrt:lcidtoname_downlevel.obj
 0002:00005f48       ??_C@_1M@DKHMKNJA@?$AAe?$AAs?$AA?9?$AAe?$AAc?$AA?$AA@ 000000018007cf48     libucrt:lcidtoname_downlevel.obj
 0002:00005f58       ??_C@_1M@GKGFPKAP@?$AAe?$AAs?$AA?9?$AAe?$AAs?$AA?$AA@ 000000018007cf58     libucrt:lcidtoname_downlevel.obj
 0002:00005f68       ??_C@_1M@LKHKGDLN@?$AAe?$AAs?$AA?9?$AAg?$AAt?$AA?$AA@ 000000018007cf68     libucrt:lcidtoname_downlevel.obj
 0002:00005f78       ??_C@_1M@HEIIGGJD@?$AAe?$AAs?$AA?9?$AAh?$AAn?$AA?$AA@ 000000018007cf78     libucrt:lcidtoname_downlevel.obj
 0002:00005f88       ??_C@_1M@FBDHPPGD@?$AAe?$AAs?$AA?9?$AAm?$AAx?$AA?$AA@ 000000018007cf88     libucrt:lcidtoname_downlevel.obj
 0002:00005f98       ??_C@_1M@DPAGLNDH@?$AAe?$AAs?$AA?9?$AAn?$AAi?$AA?$AA@ 000000018007cf98     libucrt:lcidtoname_downlevel.obj
 0002:00005fa8       ??_C@_1M@MDGOPGDD@?$AAe?$AAs?$AA?9?$AAp?$AAa?$AA?$AA@ 000000018007cfa8     libucrt:lcidtoname_downlevel.obj
 0002:00005fb8       ??_C@_1M@EMAMGBGE@?$AAe?$AAs?$AA?9?$AAp?$AAe?$AA?$AA@ 000000018007cfb8     libucrt:lcidtoname_downlevel.obj
 0002:00005fc8       ??_C@_1M@IBMCAOEC@?$AAe?$AAs?$AA?9?$AAp?$AAr?$AA?$AA@ 000000018007cfc8     libucrt:lcidtoname_downlevel.obj
 0002:00005fd8       ??_C@_1M@FGMDIJED@?$AAe?$AAs?$AA?9?$AAp?$AAy?$AA?$AA@ 000000018007cfd8     libucrt:lcidtoname_downlevel.obj
 0002:00005fe8       ??_C@_1M@IIDEOLLL@?$AAe?$AAs?$AA?9?$AAs?$AAv?$AA?$AA@ 000000018007cfe8     libucrt:lcidtoname_downlevel.obj
 0002:00005ff8       ??_C@_1M@GAOBIPA@?$AAe?$AAs?$AA?9?$AAu?$AAy?$AA?$AA@ 000000018007cff8     libucrt:lcidtoname_downlevel.obj
 0002:00006008       ??_C@_1M@JKFFICHJ@?$AAe?$AAs?$AA?9?$AAv?$AAe?$AA?$AA@ 000000018007d008     libucrt:lcidtoname_downlevel.obj
 0002:00006018       ??_C@_1M@PNMLOJDF@?$AAe?$AAt?$AA?9?$AAe?$AAe?$AA?$AA@ 000000018007d018     libucrt:lcidtoname_downlevel.obj
 0002:00006028       ??_C@_1M@GHHLIKEI@?$AAe?$AAu?$AA?9?$AAe?$AAs?$AA?$AA@ 000000018007d028     libucrt:lcidtoname_downlevel.obj
 0002:00006038       ??_C@_1M@PBNONODE@?$AAf?$AAa?$AA?9?$AAi?$AAr?$AA?$AA@ 000000018007d038     libucrt:lcidtoname_downlevel.obj
 0002:00006048       ??_C@_1M@JEEHPMIL@?$AAf?$AAi?$AA?9?$AAf?$AAi?$AA?$AA@ 000000018007d048     libucrt:lcidtoname_downlevel.obj
 0002:00006058       ??_C@_1M@LMDCNDBA@?$AAf?$AAo?$AA?9?$AAf?$AAo?$AA?$AA@ 000000018007d058     libucrt:lcidtoname_downlevel.obj
 0002:00006068       ??_C@_1M@JKEOHLDK@?$AAf?$AAr?$AA?9?$AAb?$AAe?$AA?$AA@ 000000018007d068     libucrt:lcidtoname_downlevel.obj
 0002:00006078       ??_C@_1M@NOHADPMI@?$AAf?$AAr?$AA?9?$AAc?$AAa?$AA?$AA@ 000000018007d078     libucrt:lcidtoname_downlevel.obj
 0002:00006088       ??_C@_1M@KDHIHAEC@?$AAf?$AAr?$AA?9?$AAc?$AAh?$AA?$AA@ 000000018007d088     libucrt:lcidtoname_downlevel.obj
 0002:00006098       ??_C@_1M@MMBBFGAK@?$AAf?$AAr?$AA?9?$AAf?$AAr?$AA?$AA@ 000000018007d098     libucrt:lcidtoname_downlevel.obj
 0002:000060a8       ??_C@_1M@PAFNENNF@?$AAf?$AAr?$AA?9?$AAl?$AAu?$AA?$AA@ 000000018007d0a8     libucrt:lcidtoname_downlevel.obj
 0002:000060b8       ??_C@_1M@EOHDJGDD@?$AAf?$AAr?$AA?9?$AAm?$AAc?$AA?$AA@ 000000018007d0b8     libucrt:lcidtoname_downlevel.obj
 0002:000060c8       ??_C@_1M@FAPLLOPF@?$AAg?$AAl?$AA?9?$AAe?$AAs?$AA?$AA@ 000000018007d0c8     libucrt:lcidtoname_downlevel.obj
 0002:000060d8       ??_C@_1M@FOPBFLOO@?$AAg?$AAu?$AA?9?$AAi?$AAn?$AA?$AA@ 000000018007d0d8     libucrt:lcidtoname_downlevel.obj
 0002:000060e8       ??_C@_1M@KBMCINPM@?$AAh?$AAe?$AA?9?$AAi?$AAl?$AA?$AA@ 000000018007d0e8     libucrt:lcidtoname_downlevel.obj
 0002:000060f8       ??_C@_1M@BBPHKFPJ@?$AAh?$AAi?$AA?9?$AAi?$AAn?$AA?$AA@ 000000018007d0f8     libucrt:lcidtoname_downlevel.obj
 0002:00006108       ??_C@_1M@PMBNDPHD@?$AAh?$AAr?$AA?9?$AAb?$AAa?$AA?$AA@ 000000018007d108     libucrt:lcidtoname_downlevel.obj
 0002:00006118       ??_C@_1M@BPCKOEGE@?$AAh?$AAr?$AA?9?$AAh?$AAr?$AA?$AA@ 000000018007d118     libucrt:lcidtoname_downlevel.obj
 0002:00006128       ??_C@_1M@GACBMHKE@?$AAh?$AAu?$AA?9?$AAh?$AAu?$AA?$AA@ 000000018007d128     libucrt:lcidtoname_downlevel.obj
 0002:00006138       ??_C@_1M@MILPAJJC@?$AAh?$AAy?$AA?9?$AAa?$AAm?$AA?$AA@ 000000018007d138     libucrt:lcidtoname_downlevel.obj
 0002:00006148       ??_C@_1M@BABBICEC@?$AAi?$AAd?$AA?9?$AAi?$AAd?$AA?$AA@ 000000018007d148     libucrt:lcidtoname_downlevel.obj
 0002:00006158       ??_C@_1M@BIKNHHPF@?$AAi?$AAs?$AA?9?$AAi?$AAs?$AA?$AA@ 000000018007d158     libucrt:lcidtoname_downlevel.obj
 0002:00006168       ??_C@_1M@NMPCJPHE@?$AAi?$AAt?$AA?9?$AAc?$AAh?$AA?$AA@ 000000018007d168     libucrt:lcidtoname_downlevel.obj
 0002:00006178       ??_C@_1M@GHKGFEDF@?$AAi?$AAt?$AA?9?$AAi?$AAt?$AA?$AA@ 000000018007d178     libucrt:lcidtoname_downlevel.obj
 0002:00006188       ??_C@_1M@NIEJCJJA@?$AAj?$AAa?$AA?9?$AAj?$AAp?$AA?$AA@ 000000018007d188     libucrt:lcidtoname_downlevel.obj
 0002:00006198       ??_C@_1M@JILFNBIM@?$AAk?$AAa?$AA?9?$AAg?$AAe?$AA?$AA@ 000000018007d198     libucrt:lcidtoname_downlevel.obj
 0002:000061a8       ??_C@_1M@PACPMGPH@?$AAk?$AAk?$AA?9?$AAk?$AAz?$AA?$AA@ 000000018007d1a8     libucrt:lcidtoname_downlevel.obj
 0002:000061b8       ??_C@_1M@IELFGMHA@?$AAk?$AAn?$AA?9?$AAi?$AAn?$AA?$AA@ 000000018007d1b8     libucrt:lcidtoname_downlevel.obj
 0002:000061c8       ??_C@_1O@IBBJHCH@?$AAk?$AAo?$AAk?$AA?9?$AAi?$AAn?$AA?$AA@ 000000018007d1c8     libucrt:lcidtoname_downlevel.obj
 0002:000061d8       ??_C@_1M@DMHAEOGC@?$AAk?$AAo?$AA?9?$AAk?$AAr?$AA?$AA@ 000000018007d1d8     libucrt:lcidtoname_downlevel.obj
 0002:000061e8       ??_C@_1M@HBAHBIGA@?$AAk?$AAy?$AA?9?$AAk?$AAg?$AA?$AA@ 000000018007d1e8     libucrt:lcidtoname_downlevel.obj
 0002:000061f8       ??_C@_1M@KPMILCJG@?$AAl?$AAt?$AA?9?$AAl?$AAt?$AA?$AA@ 000000018007d1f8     libucrt:lcidtoname_downlevel.obj
 0002:00006208       ??_C@_1M@BDEKKCA@?$AAl?$AAv?$AA?9?$AAl?$AAv?$AA?$AA@ 000000018007d208     libucrt:lcidtoname_downlevel.obj
 0002:00006218       ??_C@_1M@ELCKCCJJ@?$AAm?$AAi?$AA?9?$AAn?$AAz?$AA?$AA@ 000000018007d218     libucrt:lcidtoname_downlevel.obj
 0002:00006228       ??_C@_1M@CBOOLAPA@?$AAm?$AAk?$AA?9?$AAm?$AAk?$AA?$AA@ 000000018007d228     libucrt:lcidtoname_downlevel.obj
 0002:00006238       ??_C@_1M@GPHNBJKN@?$AAm?$AAl?$AA?9?$AAi?$AAn?$AA?$AA@ 000000018007d238     libucrt:lcidtoname_downlevel.obj
 0002:00006248       ??_C@_1M@PABJILIG@?$AAm?$AAn?$AA?9?$AAm?$AAn?$AA?$AA@ 000000018007d248     libucrt:lcidtoname_downlevel.obj
 0002:00006258       ??_C@_1M@FGBKKIPG@?$AAm?$AAr?$AA?9?$AAi?$AAn?$AA?$AA@ 000000018007d258     libucrt:lcidtoname_downlevel.obj
 0002:00006268       ??_C@_1M@NDBPDDAL@?$AAm?$AAs?$AA?9?$AAb?$AAn?$AA?$AA@ 000000018007d268     libucrt:lcidtoname_downlevel.obj
 0002:00006278       ??_C@_1M@OPIHOOPI@?$AAm?$AAs?$AA?9?$AAm?$AAy?$AA?$AA@ 000000018007d278     libucrt:lcidtoname_downlevel.obj
 0002:00006288       ??_C@_1M@PPDBCNFM@?$AAm?$AAt?$AA?9?$AAm?$AAt?$AA?$AA@ 000000018007d288     libucrt:lcidtoname_downlevel.obj
 0002:00006298       ??_C@_1M@KDJDKMDD@?$AAn?$AAb?$AA?9?$AAn?$AAo?$AA?$AA@ 000000018007d298     libucrt:lcidtoname_downlevel.obj
 0002:000062a8       ??_C@_1M@KFCFLMJP@?$AAn?$AAl?$AA?9?$AAb?$AAe?$AA?$AA@ 000000018007d2a8     libucrt:lcidtoname_downlevel.obj
 0002:000062b8       ??_C@_1M@KPOPDDGO@?$AAn?$AAl?$AA?9?$AAn?$AAl?$AA?$AA@ 000000018007d2b8     libucrt:lcidtoname_downlevel.obj
 0002:000062c8       ??_C@_1M@LJKPEMLN@?$AAn?$AAn?$AA?9?$AAn?$AAo?$AA?$AA@ 000000018007d2c8     libucrt:lcidtoname_downlevel.obj
 0002:000062d8       ??_C@_1M@BDGHHBFL@?$AAn?$AAs?$AA?9?$AAz?$AAa?$AA?$AA@ 000000018007d2d8     libucrt:lcidtoname_downlevel.obj
 0002:000062e8       ??_C@_1M@IDEHOAP@?$AAp?$AAa?$AA?9?$AAi?$AAn?$AA?$AA@ 000000018007d2e8     libucrt:lcidtoname_downlevel.obj
 0002:000062f8       ??_C@_1M@HDBKGOGH@?$AAp?$AAl?$AA?9?$AAp?$AAl?$AA?$AA@ 000000018007d2f8     libucrt:lcidtoname_downlevel.obj
 0002:00006308       ??_C@_1M@LJLLCMEH@?$AAp?$AAt?$AA?9?$AAb?$AAr?$AA?$AA@ 000000018007d308     libucrt:lcidtoname_downlevel.obj
 0002:00006318       ??_C@_1M@NCMONAAL@?$AAp?$AAt?$AA?9?$AAp?$AAt?$AA?$AA@ 000000018007d318     libucrt:lcidtoname_downlevel.obj
 0002:00006328       ??_C@_1O@EAKMAJDN@?$AAq?$AAu?$AAz?$AA?9?$AAb?$AAo?$AA?$AA@ 000000018007d328     libucrt:lcidtoname_downlevel.obj
 0002:00006338       ??_C@_1O@BHHPIGDN@?$AAq?$AAu?$AAz?$AA?9?$AAe?$AAc?$AA?$AA@ 000000018007d338     libucrt:lcidtoname_downlevel.obj
 0002:00006348       ??_C@_1O@GBAPEKMJ@?$AAq?$AAu?$AAz?$AA?9?$AAp?$AAe?$AA?$AA@ 000000018007d348     libucrt:lcidtoname_downlevel.obj
 0002:00006358       ??_C@_1M@CLGLEFBO@?$AAr?$AAo?$AA?9?$AAr?$AAo?$AA?$AA@ 000000018007d358     libucrt:lcidtoname_downlevel.obj
 0002:00006368       ??_C@_1M@CEEDODME@?$AAr?$AAu?$AA?9?$AAr?$AAu?$AA?$AA@ 000000018007d368     libucrt:lcidtoname_downlevel.obj
 0002:00006378       ??_C@_1M@HPKKKMPP@?$AAs?$AAa?$AA?9?$AAi?$AAn?$AA?$AA@ 000000018007d378     libucrt:lcidtoname_downlevel.obj
 0002:00006388       ??_C@_1M@BKMAIGOJ@?$AAs?$AAe?$AA?9?$AAf?$AAi?$AA?$AA@ 000000018007d388     libucrt:lcidtoname_downlevel.obj
 0002:00006398       ??_C@_1M@NDPIFLFI@?$AAs?$AAe?$AA?9?$AAn?$AAo?$AA?$AA@ 000000018007d398     libucrt:lcidtoname_downlevel.obj
 0002:000063a8       ??_C@_1M@DANKKHJ@?$AAs?$AAe?$AA?9?$AAs?$AAe?$AA?$AA@ 000000018007d3a8     libucrt:lcidtoname_downlevel.obj
 0002:000063b8       ??_C@_1M@PNBLONPJ@?$AAs?$AAk?$AA?9?$AAs?$AAk?$AA?$AA@ 000000018007d3b8     libucrt:lcidtoname_downlevel.obj
 0002:000063c8       ??_C@_1M@LFMODOAL@?$AAs?$AAl?$AA?9?$AAs?$AAi?$AA?$AA@ 000000018007d3c8     libucrt:lcidtoname_downlevel.obj
 0002:000063d8       ??_C@_1O@DFKOMPG@?$AAs?$AAm?$AAa?$AA?9?$AAn?$AAo?$AA?$AA@ 000000018007d3d8     libucrt:lcidtoname_downlevel.obj
 0002:000063e8       ??_C@_1O@NDKPBNNH@?$AAs?$AAm?$AAa?$AA?9?$AAs?$AAe?$AA?$AA@ 000000018007d3e8     libucrt:lcidtoname_downlevel.obj
 0002:000063f8       ??_C@_1O@PLLKBHAB@?$AAs?$AAm?$AAj?$AA?9?$AAn?$AAo?$AA?$AA@ 000000018007d3f8     libucrt:lcidtoname_downlevel.obj
 0002:00006408       ??_C@_1O@CLEPOGCA@?$AAs?$AAm?$AAj?$AA?9?$AAs?$AAe?$AA?$AA@ 000000018007d408     libucrt:lcidtoname_downlevel.obj
 0002:00006418       ??_C@_1O@DLGJGKMK@?$AAs?$AAm?$AAn?$AA?9?$AAf?$AAi?$AA?$AA@ 000000018007d418     libucrt:lcidtoname_downlevel.obj
 0002:00006428       ??_C@_1O@OJDJGAJC@?$AAs?$AAm?$AAs?$AA?9?$AAf?$AAi?$AA?$AA@ 000000018007d428     libucrt:lcidtoname_downlevel.obj
 0002:00006438       ??_C@_1M@BOFOGHPB@?$AAs?$AAq?$AA?9?$AAa?$AAl?$AA?$AA@ 000000018007d438     libucrt:lcidtoname_downlevel.obj
 0002:00006448       ??_C@_1BG@LJBBIPGB@?$AAs?$AAr?$AA?9?$AAb?$AAa?$AA?9?$AAc?$AAy?$AAr?$AAl?$AA?$AA@ 000000018007d448     libucrt:lcidtoname_downlevel.obj
 0002:00006460       ??_C@_1BG@JLBENFOE@?$AAs?$AAr?$AA?9?$AAb?$AAa?$AA?9?$AAl?$AAa?$AAt?$AAn?$AA?$AA@ 000000018007d460     libucrt:lcidtoname_downlevel.obj
 0002:00006478       ??_C@_1BG@KODPNHE@?$AAs?$AAr?$AA?9?$AAs?$AAp?$AA?9?$AAc?$AAy?$AAr?$AAl?$AA?$AA@ 000000018007d478     libucrt:lcidtoname_downlevel.obj
 0002:00006490       ??_C@_1BG@CIOGKHPB@?$AAs?$AAr?$AA?9?$AAs?$AAp?$AA?9?$AAl?$AAa?$AAt?$AAn?$AA?$AA@ 000000018007d490     libucrt:lcidtoname_downlevel.obj
 0002:000064a8       ??_C@_1M@NGFJLMAC@?$AAs?$AAv?$AA?9?$AAf?$AAi?$AA?$AA@ 000000018007d4a8     libucrt:lcidtoname_downlevel.obj
 0002:000064b8       ??_C@_1M@MPJEJAJC@?$AAs?$AAv?$AA?9?$AAs?$AAe?$AA?$AA@ 000000018007d4b8     libucrt:lcidtoname_downlevel.obj
 0002:000064c8       ??_C@_1M@MPNDHLFK@?$AAs?$AAw?$AA?9?$AAk?$AAe?$AA?$AA@ 000000018007d4c8     libucrt:lcidtoname_downlevel.obj
 0002:000064d8       ??_C@_1O@KOHBJJI@?$AAs?$AAy?$AAr?$AA?9?$AAs?$AAy?$AA?$AA@ 000000018007d4d8     libucrt:lcidtoname_downlevel.obj
 0002:000064e8       ??_C@_1M@LDCEFHA@?$AAt?$AAa?$AA?9?$AAi?$AAn?$AA?$AA@ 000000018007d4e8     libucrt:lcidtoname_downlevel.obj
 0002:000064f8       ??_C@_1M@CNJOFAK@?$AAt?$AAe?$AA?9?$AAi?$AAn?$AA?$AA@ 000000018007d4f8     libucrt:lcidtoname_downlevel.obj
 0002:00006508       ??_C@_1M@GNAECACD@?$AAt?$AAh?$AA?9?$AAt?$AAh?$AA?$AA@ 000000018007d508     libucrt:lcidtoname_downlevel.obj
 0002:00006518       ??_C@_1M@CHBIHOJO@?$AAt?$AAn?$AA?9?$AAz?$AAa?$AA?$AA@ 000000018007d518     libucrt:lcidtoname_downlevel.obj
 0002:00006528       ??_C@_1M@GCCMIGPJ@?$AAt?$AAr?$AA?9?$AAt?$AAr?$AA?$AA@ 000000018007d528     libucrt:lcidtoname_downlevel.obj
 0002:00006538       ??_C@_1M@CELMCNBK@?$AAt?$AAt?$AA?9?$AAr?$AAu?$AA?$AA@ 000000018007d538     libucrt:lcidtoname_downlevel.obj
 0002:00006548       ??_C@_1M@KLMCELGA@?$AAu?$AAk?$AA?9?$AAu?$AAa?$AA?$AA@ 000000018007d548     libucrt:lcidtoname_downlevel.obj
 0002:00006558       ??_C@_1M@EPAJJAJF@?$AAu?$AAr?$AA?9?$AAp?$AAk?$AA?$AA@ 000000018007d558     libucrt:lcidtoname_downlevel.obj
 0002:00006568       ??_C@_1BG@GEGPMCDJ@?$AAu?$AAz?$AA?9?$AAu?$AAz?$AA?9?$AAc?$AAy?$AAr?$AAl?$AA?$AA@ 000000018007d568     libucrt:lcidtoname_downlevel.obj
 0002:00006580       ??_C@_1BG@EGGKJILM@?$AAu?$AAz?$AA?9?$AAu?$AAz?$AA?9?$AAl?$AAa?$AAt?$AAn?$AA?$AA@ 000000018007d580     libucrt:lcidtoname_downlevel.obj
 0002:00006598       ??_C@_1M@GFOCLFF@?$AAv?$AAi?$AA?9?$AAv?$AAn?$AA?$AA@ 000000018007d598     libucrt:lcidtoname_downlevel.obj
 0002:000065a8       ??_C@_1M@CPAMEDFI@?$AAx?$AAh?$AA?9?$AAz?$AAa?$AA?$AA@ 000000018007d5a8     libucrt:lcidtoname_downlevel.obj
 0002:000065b8       ??_C@_1O@EBKIFIGN@?$AAz?$AAh?$AA?9?$AAc?$AAh?$AAs?$AA?$AA@ 000000018007d5b8     libucrt:lcidtoname_downlevel.obj
 0002:000065c8       ??_C@_1O@NMHPGANE@?$AAz?$AAh?$AA?9?$AAc?$AAh?$AAt?$AA?$AA@ 000000018007d5c8     libucrt:lcidtoname_downlevel.obj
 0002:000065d8       ??_C@_1M@LPINJOMC@?$AAz?$AAh?$AA?9?$AAc?$AAn?$AA?$AA@ 000000018007d5d8     libucrt:lcidtoname_downlevel.obj
 0002:000065e8       ??_C@_1M@OCJEJODD@?$AAz?$AAh?$AA?9?$AAh?$AAk?$AA?$AA@ 000000018007d5e8     libucrt:lcidtoname_downlevel.obj
 0002:000065f8       ??_C@_1M@DNDLJINH@?$AAz?$AAh?$AA?9?$AAm?$AAo?$AA?$AA@ 000000018007d5f8     libucrt:lcidtoname_downlevel.obj
 0002:00006608       ??_C@_1M@MBFDNDND@?$AAz?$AAh?$AA?9?$AAs?$AAg?$AA?$AA@ 000000018007d608     libucrt:lcidtoname_downlevel.obj
 0002:00006618       ??_C@_1M@IMEPLEPE@?$AAz?$AAh?$AA?9?$AAt?$AAw?$AA?$AA@ 000000018007d618     libucrt:lcidtoname_downlevel.obj
 0002:00006628       ??_C@_1M@BBGHNHJP@?$AAz?$AAu?$AA?9?$AAz?$AAa?$AA?$AA@ 000000018007d628     libucrt:lcidtoname_downlevel.obj
 0002:00006890       ??_C@_1BA@BALFACEM@?$AAC?$AAO?$AAN?$AAO?$AAU?$AAT?$AA$?$AA?$AA@ 000000018007d890     libucrt:initcon.obj
 0002:000068a0       __log10_256_lead           000000018007d8a0     libucrt:log10_256_lead_tail_table.obj
 0002:000070b0       __log10_256_tail           000000018007e0b0     libucrt:log10_256_lead_tail_table.obj
 0002:000078c0       __log_F_inv_qword          000000018007e8c0     libucrt:log_f_inv_qword_table.obj
 0002:000080d0       ??_C@_06KDGOKGLH@log10f?$AA@ 000000018007f0d0     libucrt:log_special.obj
 0002:000080d8       ??_C@_03MGHMBJCF@log?$AA@  000000018007f0d8     libucrt:log_special.obj
 0002:000080dc       ??_C@_05HGHHAHAP@log10?$AA@ 000000018007f0dc     libucrt:log_special.obj
 0002:00008100       ??_C@_03KHJOGHMM@exp?$AA@  000000018007f100     libucrt:fpexcept.obj
 0002:00008104       ??_C@_03JGHBODFD@pow?$AA@  000000018007f104     libucrt:fpexcept.obj
 0002:00008108       ??_C@_04EIAKFFMI@sqrt?$AA@ 000000018007f108     libucrt:fpexcept.obj
 0002:00008110       ??_C@_03BLEJJJBH@sin?$AA@  000000018007f110     libucrt:fpexcept.obj
 0002:00008114       ??_C@_03LALBNOCG@cos?$AA@  000000018007f114     libucrt:fpexcept.obj
 0002:00008118       ??_C@_03IIINPABG@tan?$AA@  000000018007f118     libucrt:fpexcept.obj
 0002:00008120       ??_C@_1BK@DBDEIDLH@?$AAK?$AAE?$AAR?$AAN?$AAE?$AAL?$AA3?$AA2?$AA?4?$AAD?$AAL?$AAL@ 000000018007f120     DelayImp:delayhlp.obj
 0002:00008140       ??_C@_0BI@OMNLIJDB@AcquireSRWLockExclusive@ 000000018007f140     DelayImp:delayhlp.obj
 0002:00008158       ??_C@_0BI@HMIEPCNJ@ReleaseSRWLockExclusive@ 000000018007f158     DelayImp:delayhlp.obj
 0002:00008170       __pfnDliFailureHook2       000000018007f170     DelayImp:delayhk1.obj
 0002:00008180       _load_config_used          000000018007f180     LIBCMT:loadcfg.obj
 0002:00008280       ??_C@_0EL@JKEFHELI@d?3?2project?2alexa?5mirror?2alexa?5m@ 000000018007f280     bindings.obj
 0002:000082d0       ??_C@_08OKHKOBIL@bindings@ 000000018007f2d0     bindings.obj
 0002:000082e0       ??_C@_0N@HCFJOAIA@sizeof_short@ 000000018007f2e0     node_lame.obj
 0002:000082f0       ??_C@_0L@HFOINIMP@sizeof_int@ 000000018007f2f0     node_lame.obj
 0002:00008300       ??_C@_0N@MKKCMIEB@sizeof_float@ 000000018007f300     node_lame.obj
 0002:00008310       ??_C@_0O@CCEAPNKO@sizeof_double@ 000000018007f310     node_lame.obj
 0002:00008320       ??_C@_07MNKINHL@vbr_off@   000000018007f320     node_lame.obj
 0002:00008328       ??_C@_06LDDHCDBL@vbr_mt@   000000018007f328     node_lame.obj
 0002:00008330       ??_C@_06ECDKJKAL@vbr_rh@   000000018007f330     node_lame.obj
 0002:00008338       ??_C@_07MFKCIFMB@vbr_abr@  000000018007f338     node_lame.obj
 0002:00008340       ??_C@_08PBAAFEEO@vbr_mtrh@ 000000018007f340     node_lame.obj
 0002:00008350       ??_C@_0M@LJBNEINO@vbr_default@ 000000018007f350     node_lame.obj
 0002:0000835c       ??_C@_06BHBGJFLL@STEREO@   000000018007f35c     node_lame.obj
 0002:00008368       ??_C@_0N@MOOFDCCC@JOINT_STEREO@ 000000018007f368     node_lame.obj
 0002:00008378       ??_C@_04FHCMCPHB@MONO@     000000018007f378     node_lame.obj
 0002:00008380       ??_C@_07EIOLJABF@NOT_SET@  000000018007f380     node_lame.obj
 0002:00008388       ??_C@_06LGLKACIC@PAD_NO@   000000018007f388     node_lame.obj
 0002:00008390       ??_C@_07FOJPGAI@PAD_ALL@   000000018007f390     node_lame.obj
 0002:00008398       ??_C@_0L@LKMOMNLO@PAD_ADJUST@ 000000018007f398     node_lame.obj
 0002:000083a8       ??_C@_0BB@LKKMFMHE@LAME_MAXALBUMART@ 000000018007f3a8     node_lame.obj
 0002:000083c0       ??_C@_09IEPOEBGN@LAME_OKAY@ 000000018007f3c0     node_lame.obj
 0002:000083d0       ??_C@_0N@LFIDJMCA@LAME_NOERROR@ 000000018007f3d0     node_lame.obj
 0002:000083e0       ??_C@_0BC@EPKINKOL@LAME_GENERICERROR@ 000000018007f3e0     node_lame.obj
 0002:000083f8       ??_C@_0L@BHGGECCF@LAME_NOMEM@ 000000018007f3f8     node_lame.obj
 0002:00008408       ??_C@_0BA@CHMAOONN@LAME_BADBITRATE@ 000000018007f408     node_lame.obj
 0002:00008418       ??_C@_0BB@BLHOLEMP@LAME_BADSAMPFREQ@ 000000018007f418     node_lame.obj
 0002:00008430       ??_C@_0BD@GOOFOBGH@LAME_INTERNALERROR@ 000000018007f430     node_lame.obj
 0002:00008448       ??_C@_0BD@PJEEMHKK@PCM_TYPE_SHORT_INT@ 000000018007f448     node_lame.obj
 0002:00008460       ??_C@_0P@EMANICNI@PCM_TYPE_FLOAT@ 000000018007f460     node_lame.obj
 0002:00008470       ??_C@_0BA@DOJBFNKG@PCM_TYPE_DOUBLE@ 000000018007f470     node_lame.obj
 0002:00008480       ??_C@_0BB@EIOJNDGB@get_lame_version@ 000000018007f480     node_lame.obj
 0002:00008498       ??_C@_0BE@DBDODLKK@get_lame_os_bitness@ 000000018007f498     node_lame.obj
 0002:000084b0       ??_C@_0L@OPPDDNNG@lame_close@ 000000018007f4b0     node_lame.obj
 0002:000084c0       ??_C@_0BD@GAOANCEM@lame_encode_buffer@ 000000018007f4c0     node_lame.obj
 0002:000084d8       ??_C@_0BI@PNBKFHNJ@lame_encode_flush_nogap@ 000000018007f4d8     node_lame.obj
 0002:000084f0       ??_C@_0BD@DCKJDHKG@lame_get_id3v1_tag@ 000000018007f4f0     node_lame.obj
 0002:00008508       ??_C@_0BD@LEDNEFAI@lame_get_id3v2_tag@ 000000018007f508     node_lame.obj
 0002:00008520       ??_C@_0BB@PMHPDBB@lame_init_params@ 000000018007f520     node_lame.obj
 0002:00008538       ??_C@_0BC@GMKFNJB@lame_print_config@ 000000018007f538     node_lame.obj
 0002:00008550       ??_C@_0BF@PGPLHBLM@lame_print_internals@ 000000018007f550     node_lame.obj
 0002:00008568       ??_C@_09LAIAFDML@lame_init@ 000000018007f568     node_lame.obj
 0002:00008578       ??_C@_0O@GNJFBBDG@lame_bitrates@ 000000018007f578     node_lame.obj
 0002:00008588       ??_C@_0BB@NLGFHPLJ@lame_samplerates@ 000000018007f588     node_lame.obj
 0002:000085a0       ??_C@_0BF@KFDNKOEP@lame_get_num_samples@ 000000018007f5a0     node_lame.obj
 0002:000085b8       ??_C@_0BF@JHCLNMFG@lame_set_num_samples@ 000000018007f5b8     node_lame.obj
 0002:000085d0       ??_C@_0BH@MCBKNEIL@lame_get_in_samplerate@ 000000018007f5d0     node_lame.obj
 0002:000085e8       ??_C@_0BH@OHBBFPJF@lame_set_in_samplerate@ 000000018007f5e8     node_lame.obj
 0002:00008600       ??_C@_0BG@MCJNKMHC@lame_get_num_channels@ 000000018007f600     node_lame.obj
 0002:00008618       ??_C@_0BG@KGMEBCMA@lame_set_num_channels@ 000000018007f618     node_lame.obj
 0002:00008630       ??_C@_0P@HNOMGEHO@lame_get_scale@ 000000018007f630     node_lame.obj
 0002:00008640       ??_C@_0P@FDKJEFOM@lame_set_scale@ 000000018007f640     node_lame.obj
 0002:00008650       ??_C@_0BE@GCCEDMLK@lame_get_scale_left@ 000000018007f650     node_lame.obj
 0002:00008668       ??_C@_0BE@KMDKMGJG@lame_set_scale_left@ 000000018007f668     node_lame.obj
 0002:00008680       ??_C@_0BF@DBCJHBMH@lame_get_scale_right@ 000000018007f680     node_lame.obj
 0002:00008698       ??_C@_0BF@DDPADNO@lame_set_scale_right@ 000000018007f698     node_lame.obj
 0002:000086b0       ??_C@_0BI@GMMLIGEM@lame_get_out_samplerate@ 000000018007f6b0     node_lame.obj
 0002:000086c8       ??_C@_0BI@JGOBLAKE@lame_set_out_samplerate@ 000000018007f6c8     node_lame.obj
 0002:000086e0       ??_C@_0BC@HAPPJFJK@lame_get_analysis@ 000000018007f6e0     node_lame.obj
 0002:000086f8       ??_C@_0BC@EEBFJNG@lame_set_analysis@ 000000018007f6f8     node_lame.obj
 0002:00008710       ??_C@_0BG@HGJNFCBD@lame_get_bWriteVbrTag@ 000000018007f710     node_lame.obj
 0002:00008728       ??_C@_0BG@BCMEOMKB@lame_set_bWriteVbrTag@ 000000018007f728     node_lame.obj
 0002:00008740       ??_C@_0BB@FKJLJPNH@lame_get_quality@ 000000018007f740     node_lame.obj
 0002:00008758       ??_C@_0BB@FFIFEJFE@lame_set_quality@ 000000018007f758     node_lame.obj
 0002:00008770       ??_C@_0O@JECNLFKB@lame_get_mode@ 000000018007f770     node_lame.obj
 0002:00008780       ??_C@_0O@GFABKGNM@lame_set_mode@ 000000018007f780     node_lame.obj
 0002:00008790       ??_C@_0P@PKNDPJLK@lame_get_brate@ 000000018007f790     node_lame.obj
 0002:000087a0       ??_C@_0P@NEJGNICI@lame_set_brate@ 000000018007f7a0     node_lame.obj
 0002:000087b0       ??_C@_0BL@CFKPDPDD@lame_get_compression_ratio@ 000000018007f7b0     node_lame.obj
 0002:000087d0       ??_C@_0BL@NAPJOGHC@lame_set_compression_ratio@ 000000018007f7d0     node_lame.obj
 0002:000087f0       ??_C@_0BD@HNLLDLNN@lame_get_copyright@ 000000018007f7f0     node_lame.obj
 0002:00008808       ??_C@_0BD@CKFIIKK@lame_set_copyright@ 000000018007f808     node_lame.obj
 0002:00008820       ??_C@_0BC@MLNLJDCO@lame_get_original@ 000000018007f820     node_lame.obj
 0002:00008838       ??_C@_0BC@LPGFFPGC@lame_set_original@ 000000018007f838     node_lame.obj
 0002:00008850       ??_C@_0BK@MLPJODGE@lame_get_error_protection@ 000000018007f850     node_lame.obj
 0002:00008870       ??_C@_0BK@JCOEPFDD@lame_set_error_protection@ 000000018007f870     node_lame.obj
 0002:00008890       ??_C@_0BD@JHMJEKMM@lame_get_extension@ 000000018007f890     node_lame.obj
 0002:000088a8       ??_C@_0BD@OINHPJLL@lame_set_extension@ 000000018007f8a8     node_lame.obj
 0002:000088c0       ??_C@_0BE@GGDHAMKH@lame_get_strict_ISO@ 000000018007f8c0     node_lame.obj
 0002:000088d8       ??_C@_0BE@KICJPGIL@lame_set_strict_ISO@ 000000018007f8d8     node_lame.obj
 0002:000088f0       ??_C@_0BL@NNHELEDC@lame_get_disable_reservoir@ 000000018007f8f0     node_lame.obj
 0002:00008910       ??_C@_0BL@CICCGNHD@lame_set_disable_reservoir@ 000000018007f910     node_lame.obj
 0002:00008930       ??_C@_0BE@BGKALJID@lame_get_quant_comp@ 000000018007f930     node_lame.obj
 0002:00008948       ??_C@_0BE@NILOEDKP@lame_set_quant_comp@ 000000018007f948     node_lame.obj
 0002:00008960       ??_C@_0BK@FODJPHPA@lame_get_quant_comp_short@ 000000018007f960     node_lame.obj
 0002:00008980       ??_C@_0BK@HCEOBKH@lame_set_quant_comp_short@ 000000018007f980     node_lame.obj
 0002:000089a0       ??_C@_0BH@CLCPJKFP@lame_get_exp_nspsytune@ 000000018007f9a0     node_lame.obj
 0002:000089b8       ??_C@_0BH@OCEBBEB@lame_set_exp_nspsytune@ 000000018007f9b8     node_lame.obj
 0002:000089d0       ??_C@_0N@OKPFILDI@lame_get_VBR@ 000000018007f9d0     node_lame.obj
 0002:000089e0       ??_C@_0N@BCAELEOJ@lame_set_VBR@ 000000018007f9e0     node_lame.obj
 0002:000089f0       ??_C@_0P@DMDBCNJM@lame_get_VBR_q@ 000000018007f9f0     node_lame.obj
 0002:00008a00       ??_C@_0P@BCHEAMAO@lame_set_VBR_q@ 000000018007fa00     node_lame.obj
 0002:00008a10       ??_C@_0BF@PMACLNDI@lame_get_VBR_quality@ 000000018007fa10     node_lame.obj
 0002:00008a28       ??_C@_0BF@MOBEMPCB@lame_set_VBR_quality@ 000000018007fa28     node_lame.obj
 0002:00008a40       ??_C@_0BP@DBKKLIFJ@lame_get_VBR_mean_bitrate_kbps@ 000000018007fa40     node_lame.obj
 0002:00008a60       ??_C@_0BP@LBGMHFPP@lame_set_VBR_mean_bitrate_kbps@ 000000018007fa60     node_lame.obj
 0002:00008a80       ??_C@_0BO@EJIKHEDA@lame_get_VBR_min_bitrate_kbps@ 000000018007fa80     node_lame.obj
 0002:00008aa0       ??_C@_0BO@OKCABJKF@lame_set_VBR_min_bitrate_kbps@ 000000018007faa0     node_lame.obj
 0002:00008ac0       ??_C@_0BO@FMABKAMC@lame_get_VBR_max_bitrate_kbps@ 000000018007fac0     node_lame.obj
 0002:00008ae0       ??_C@_0BO@PPKLMNFH@lame_set_VBR_max_bitrate_kbps@ 000000018007fae0     node_lame.obj
 0002:00008b00       ??_C@_0BG@IOCBMFIM@lame_get_VBR_hard_min@ 000000018007fb00     node_lame.obj
 0002:00008b18       ??_C@_0BG@OKHIHLDO@lame_set_VBR_hard_min@ 000000018007fb18     node_lame.obj
 0002:00008b30       ??_C@_0BF@PCMIAIJK@lame_get_lowpassfreq@ 000000018007fb30     node_lame.obj
 0002:00008b48       ??_C@_0BF@MANOHKID@lame_set_lowpassfreq@ 000000018007fb48     node_lame.obj
 0002:00008b60       ??_C@_0BG@NMMBIBNO@lame_get_lowpasswidth@ 000000018007fb60     node_lame.obj
 0002:00008b78       ??_C@_0BG@LIJIDPGM@lame_set_lowpasswidth@ 000000018007fb78     node_lame.obj
 0002:00008b90       ??_C@_0BG@GLIJGMA@lame_get_highpassfreq@ 000000018007fb90     node_lame.obj
 0002:00008ba8       ??_C@_0BG@GCOBCIHC@lame_set_highpassfreq@ 000000018007fba8     node_lame.obj
 0002:00008bc0       ??_C@_0BH@FHILEJKK@lame_get_highpasswidth@ 000000018007fbc0     node_lame.obj
 0002:00008bd8       ??_C@_0BH@HCIAMCLE@lame_set_highpasswidth@ 000000018007fbd8     node_lame.obj
 0002:00008bf0       ??_C@_0N@NENCCFLL@raw_encoding@ 000000018007fbf0     node_mpg123.obj
 0002:00008c00       ??_C@_0L@FCPFAJBH@sampleRate@ 000000018007fc00     node_mpg123.obj
 0002:00008c10       ??_C@_08PAMBCCJ@channels@  000000018007fc10     node_mpg123.obj
 0002:00008c1c       ??_C@_06CPIODIKA@signed@   000000018007fc1c     node_mpg123.obj
 0002:00008c24       ??_C@_05KNFBNCOH@float@    000000018007fc24     node_mpg123.obj
 0002:00008c2c       ??_C@_04FAHEGBMA@ulaw@     000000018007fc2c     node_mpg123.obj
 0002:00008c34       ??_C@_04MFBEFAIC@alaw@     000000018007fc34     node_mpg123.obj
 0002:00008c40       ??_C@_08OMBIDMCD@bitDepth@ 000000018007fc40     node_mpg123.obj
 0002:00008c4c       ??_C@_03FJEPELFP@tag@      000000018007fc4c     node_mpg123.obj
 0002:00008c50       ??_C@_05PHLGJONK@title@    000000018007fc50     node_mpg123.obj
 0002:00008c58       ??_C@_06FOCAFPGH@artist@   000000018007fc58     node_mpg123.obj
 0002:00008c60       ??_C@_05MCBBJIDG@album@    000000018007fc60     node_mpg123.obj
 0002:00008c68       ??_C@_04JFPLDHAO@year@     000000018007fc68     node_mpg123.obj
 0002:00008c70       ??_C@_07GJGNEJFD@comment@  000000018007fc70     node_mpg123.obj
 0002:00008c78       ??_C@_0M@DPCBAKHG@trackNumber@ 000000018007fc78     node_mpg123.obj
 0002:00008c84       ??_C@_05JOBIDKGP@genre@    000000018007fc84     node_mpg123.obj
 0002:00008c8c       ??_C@_04IOHABJIC@lang@     000000018007fc8c     node_mpg123.obj
 0002:00008c94       ??_C@_02EGCJHIOB@id@       000000018007fc94     node_mpg123.obj
 0002:00008c98       ??_C@_0M@PPJNHBMP@description@ 000000018007fc98     node_mpg123.obj
 0002:00008ca4       ??_C@_04CIMGMMMG@text@     000000018007fca4     node_mpg123.obj
 0002:00008cb0       ??_C@_08PGBJEHDC@comments@ 000000018007fcb0     node_mpg123.obj
 0002:00008cbc       ??_C@_05HGDNILHM@texts@    000000018007fcbc     node_mpg123.obj
 0002:00008cc4       ??_C@_06NMAPGJFF@extras@   000000018007fcc4     node_mpg123.obj
 0002:00008cd0       ??_C@_0M@CNMBGGGH@MPG123_DONE@ 000000018007fcd0     node_mpg123.obj
 0002:00008ce0       ??_C@_0BC@LIIFGLEN@MPG123_NEW_FORMAT@ 000000018007fce0     node_mpg123.obj
 0002:00008cf8       ??_C@_0BB@IAPDIHIA@MPG123_NEED_MORE@ 000000018007fcf8     node_mpg123.obj
 0002:00008d10       ??_C@_0L@IPAKFFPL@MPG123_ERR@ 000000018007fd10     node_mpg123.obj
 0002:00008d20       ??_C@_09HMDJBIMK@MPG123_OK@ 000000018007fd20     node_mpg123.obj
 0002:00008d30       ??_C@_0BF@IAHLMKJA@MPG123_BAD_OUTFORMAT@ 000000018007fd30     node_mpg123.obj
 0002:00008d48       ??_C@_0BD@CHHBFPLJ@MPG123_BAD_CHANNEL@ 000000018007fd48     node_mpg123.obj
 0002:00008d60       ??_C@_0BA@JKPIEJIG@MPG123_BAD_RATE@ 000000018007fd60     node_mpg123.obj
 0002:00008d70       ??_C@_0BG@FLJMFMFG@MPG123_ERR_16TO8TABLE@ 000000018007fd70     node_mpg123.obj
 0002:00008d88       ??_C@_0BB@CODMLJBP@MPG123_BAD_PARAM@ 000000018007fd88     node_mpg123.obj
 0002:00008da0       ??_C@_0BC@GLAJJLLD@MPG123_BAD_BUFFER@ 000000018007fda0     node_mpg123.obj
 0002:00008db8       ??_C@_0BC@LBCGNIMO@MPG123_OUT_OF_MEM@ 000000018007fdb8     node_mpg123.obj
 0002:00008dd0       ??_C@_0BH@HNHBPFHH@MPG123_NOT_INITIALIZED@ 000000018007fdd0     node_mpg123.obj
 0002:00008de8       ??_C@_0BD@IHDHGAGA@MPG123_BAD_DECODER@ 000000018007fde8     node_mpg123.obj
 0002:00008e00       ??_C@_0BC@MHBFLICD@MPG123_BAD_HANDLE@ 000000018007fe00     node_mpg123.obj
 0002:00008e18       ??_C@_0BC@IDANDILO@MPG123_NO_BUFFERS@ 000000018007fe18     node_mpg123.obj
 0002:00008e30       ??_C@_0P@GPJANGHP@MPG123_BAD_RVA@ 000000018007fe30     node_mpg123.obj
 0002:00008e40       ??_C@_0BC@MGIBBNBH@MPG123_NO_GAPLESS@ 000000018007fe40     node_mpg123.obj
 0002:00008e58       ??_C@_0BA@BIPEEGHK@MPG123_NO_SPACE@ 000000018007fe58     node_mpg123.obj
 0002:00008e68       ??_C@_0BB@JMHMHIMC@MPG123_BAD_TYPES@ 000000018007fe68     node_mpg123.obj
 0002:00008e80       ??_C@_0BA@PCLCMJOD@MPG123_BAD_BAND@ 000000018007fe80     node_mpg123.obj
 0002:00008e90       ??_C@_0BA@LBDPEILJ@MPG123_ERR_NULL@ 000000018007fe90     node_mpg123.obj
 0002:00008ea0       ??_C@_0BC@CNFAAFOO@MPG123_ERR_READER@ 000000018007fea0     node_mpg123.obj
 0002:00008eb8       ??_C@_0BI@KHCPNMEP@MPG123_NO_SEEK_FROM_END@ 000000018007feb8     node_mpg123.obj
 0002:00008ed0       ??_C@_0BC@GCLNJDIE@MPG123_BAD_WHENCE@ 000000018007fed0     node_mpg123.obj
 0002:00008ee8       ??_C@_0BC@JBHDBMJN@MPG123_NO_TIMEOUT@ 000000018007fee8     node_mpg123.obj
 0002:00008f00       ??_C@_0BA@NIBJKCOD@MPG123_BAD_FILE@ 000000018007ff00     node_mpg123.obj
 0002:00008f10       ??_C@_0P@ONKADNLB@MPG123_NO_SEEK@ 000000018007ff10     node_mpg123.obj
 0002:00008f20       ??_C@_0BB@FAPOPDJH@MPG123_NO_READER@ 000000018007ff20     node_mpg123.obj
 0002:00008f38       ??_C@_0BA@PICNNDID@MPG123_BAD_PARS@ 000000018007ff38     node_mpg123.obj
 0002:00008f48       ??_C@_0BF@PMMJJDJL@MPG123_BAD_INDEX_PAR@ 000000018007ff48     node_mpg123.obj
 0002:00008f60       ??_C@_0BD@GAGAKKDE@MPG123_OUT_OF_SYNC@ 000000018007ff60     node_mpg123.obj
 0002:00008f78       ??_C@_0BD@OMAPKCOP@MPG123_RESYNC_FAIL@ 000000018007ff78     node_mpg123.obj
 0002:00008f90       ??_C@_0P@FKNFLEKO@MPG123_NO_8BIT@ 000000018007ff90     node_mpg123.obj
 0002:00008fa0       ??_C@_0BB@LGJOFDHP@MPG123_BAD_ALIGN@ 000000018007ffa0     node_mpg123.obj
 0002:00008fb8       ??_C@_0BD@IMGIPMGH@MPG123_NULL_BUFFER@ 000000018007ffb8     node_mpg123.obj
 0002:00008fd0       ??_C@_0BC@KIBIDGD@MPG123_NO_RELSEEK@ 000000018007ffd0     node_mpg123.obj
 0002:00008fe8       ??_C@_0BE@JGANCKBM@MPG123_NULL_POINTER@ 000000018007ffe8     node_mpg123.obj
 0002:00009000       ??_C@_0P@NOPKELBK@MPG123_BAD_KEY@ 0000000180080000     node_mpg123.obj
 0002:00009010       ??_C@_0BA@KJFGKOPI@MPG123_NO_INDEX@ 0000000180080010     node_mpg123.obj
 0002:00009020       ??_C@_0BC@HGOBHEHN@MPG123_INDEX_FAIL@ 0000000180080020     node_mpg123.obj
 0002:00009038       ??_C@_0BJ@EDHHKIMO@MPG123_BAD_DECODER_SETUP@ 0000000180080038     node_mpg123.obj
 0002:00009058       ??_C@_0BH@EEDIMKJC@MPG123_MISSING_FEATURE@ 0000000180080058     node_mpg123.obj
 0002:00009070       ??_C@_0BB@JLFFPLAK@MPG123_BAD_VALUE@ 0000000180080070     node_mpg123.obj
 0002:00009088       ??_C@_0BE@PEOGPPCA@MPG123_LSEEK_FAILED@ 0000000180080088     node_mpg123.obj
 0002:000090a0       ??_C@_0BF@NPEGKLIF@MPG123_BAD_CUSTOM_IO@ 00000001800800a0     node_mpg123.obj
 0002:000090b8       ??_C@_0BE@OLDAJHP@MPG123_LFS_OVERFLOW@ 00000001800800b8     node_mpg123.obj
 0002:000090d0       ??_C@_0N@NBIDINAI@MPG123_ENC_8@ 00000001800800d0     node_mpg123.obj
 0002:000090e0       ??_C@_0O@IIMHKBEF@MPG123_ENC_16@ 00000001800800e0     node_mpg123.obj
 0002:000090f0       ??_C@_0O@LILHHNJO@MPG123_ENC_24@ 00000001800800f0     node_mpg123.obj
 0002:00009100       ??_C@_0O@OPCPLACP@MPG123_ENC_32@ 0000000180080100     node_mpg123.obj
 0002:00009110       ??_C@_0BC@IGKJFJGG@MPG123_ENC_SIGNED@ 0000000180080110     node_mpg123.obj
 0002:00009128       ??_C@_0BB@NPAGHMD@MPG123_ENC_FLOAT@ 0000000180080128     node_mpg123.obj
 0002:00009140       ??_C@_0BF@LHPCELGD@MPG123_ENC_SIGNED_16@ 0000000180080140     node_mpg123.obj
 0002:00009158       ??_C@_0BH@LMENFLJM@MPG123_ENC_UNSIGNED_16@ 0000000180080158     node_mpg123.obj
 0002:00009170       ??_C@_0BG@DFKAKIGB@MPG123_ENC_UNSIGNED_8@ 0000000180080170     node_mpg123.obj
 0002:00009188       ??_C@_0BE@FBGPHGKO@MPG123_ENC_SIGNED_8@ 0000000180080188     node_mpg123.obj
 0002:000091a0       ??_C@_0BC@IFNOAAAG@MPG123_ENC_ULAW_8@ 00000001800801a0     node_mpg123.obj
 0002:000091b8       ??_C@_0BC@BGEPLINL@MPG123_ENC_ALAW_8@ 00000001800801b8     node_mpg123.obj
 0002:000091d0       ??_C@_0BF@NABKFKAJ@MPG123_ENC_SIGNED_32@ 00000001800801d0     node_mpg123.obj
 0002:000091e8       ??_C@_0BH@NLKFEKPG@MPG123_ENC_UNSIGNED_32@ 00000001800801e8     node_mpg123.obj
 0002:00009200       ??_C@_0BF@IHICJHLI@MPG123_ENC_SIGNED_24@ 0000000180080200     node_mpg123.obj
 0002:00009218       ??_C@_0BH@IMDNIHEH@MPG123_ENC_UNSIGNED_24@ 0000000180080218     node_mpg123.obj
 0002:00009230       ??_C@_0BE@FMNLDHCE@MPG123_ENC_FLOAT_32@ 0000000180080230     node_mpg123.obj
 0002:00009248       ??_C@_0BE@MEKFCEJ@MPG123_ENC_FLOAT_64@ 0000000180080248     node_mpg123.obj
 0002:00009260       ??_C@_0P@FMJKANNH@MPG123_ENC_ANY@ 0000000180080260     node_mpg123.obj
 0002:00009270       ??_C@_0M@NKDOOMJM@MPG123_MONO@ 0000000180080270     node_mpg123.obj
 0002:00009280       ??_C@_0O@POKLAGAC@MPG123_STEREO@ 0000000180080280     node_mpg123.obj
 0002:00009290       ??_C@_0M@CPMGLPGK@MPG123_LEFT@ 0000000180080290     node_mpg123.obj
 0002:000092a0       ??_C@_0N@CCDDGFDC@MPG123_RIGHT@ 00000001800802a0     node_mpg123.obj
 0002:000092b0       ??_C@_09OFHPAPIL@MPG123_LR@ 00000001800802b0     node_mpg123.obj
 0002:000092c0       ??_C@_0L@KBJBGPGH@MPG123_ID3@ 00000001800802c0     node_mpg123.obj
 0002:000092d0       ??_C@_0P@MMIBCLOC@MPG123_NEW_ID3@ 00000001800802d0     node_mpg123.obj
 0002:000092e0       ??_C@_0L@DLMMPKMP@MPG123_ICY@ 00000001800802e0     node_mpg123.obj
 0002:000092f0       ??_C@_0P@FGNMLOEK@MPG123_NEW_ICY@ 00000001800802f0     node_mpg123.obj
 0002:00009300       ??_C@_0M@CGLBEFKB@mpg123_init@ 0000000180080300     node_mpg123.obj
 0002:00009310       ??_C@_0M@JGDDKAOD@mpg123_exit@ 0000000180080310     node_mpg123.obj
 0002:00009320       ??_C@_0L@HKNOFAJC@mpg123_new@ 0000000180080320     node_mpg123.obj
 0002:00009330       ??_C@_0BA@PODMDNOP@mpg123_decoders@ 0000000180080330     node_mpg123.obj
 0002:00009340       ??_C@_0BH@NAEKGCEB@mpg123_current_decoder@ 0000000180080340     node_mpg123.obj
 0002:00009358       ??_C@_0BK@HLGBELBA@mpg123_supported_decoders@ 0000000180080358     node_mpg123.obj
 0002:00009378       ??_C@_0BB@NMBGDCEC@mpg123_getformat@ 0000000180080378     node_mpg123.obj
 0002:00009390       ??_C@_0BD@LJDKHGPO@mpg123_safe_buffer@ 0000000180080390     node_mpg123.obj
 0002:000093a8       ??_C@_0BA@NOAHNJDM@mpg123_outblock@ 00000001800803a8     node_mpg123.obj
 0002:000093b8       ??_C@_0BA@DCLKCDEH@mpg123_framepos@ 00000001800803b8     node_mpg123.obj
 0002:000093c8       ??_C@_0M@ONBAMLCB@mpg123_tell@ 00000001800803c8     node_mpg123.obj
 0002:000093d8       ??_C@_0BB@CMLLEJHN@mpg123_tellframe@ 00000001800803d8     node_mpg123.obj
 0002:000093f0       ??_C@_0BD@IBIJLGFA@mpg123_tell_stream@ 00000001800803f0     node_mpg123.obj
 0002:00009408       ??_C@_0BB@LDANKONH@mpg123_open_feed@ 0000000180080408     node_mpg123.obj
 0002:00009420       ??_C@_0M@DADILOEE@mpg123_feed@ 0000000180080420     node_mpg123.obj
 0002:00009430       ??_C@_0M@KCFBCHNK@mpg123_read@ 0000000180080430     node_mpg123.obj
 0002:00009440       ??_C@_0L@HCNOIIBN@mpg123_id3@ 0000000180080440     node_mpg123.obj
 0002:00009450       ??_C@_08HCOMDCCD@iojs?4exe@ 0000000180080450     win_delay_load_hook.obj
 0002:00009460       ??_C@_08JDDNMFDB@node?4exe@ 0000000180080460     win_delay_load_hook.obj
 0002:00009470       __pfnDliNotifyHook2        0000000180080470     win_delay_load_hook.obj
 0002:00009930       bitrate_table              0000000180080930     libmp3lame:tables.obj
 0002:00009bf0       t33l                       0000000180080bf0     libmp3lame:tables.obj
 0002:00009c24       t1l                        0000000180080c24     libmp3lame:tables.obj
 0002:00009e90       samplerate_table           0000000180080e90     libmp3lame:tables.obj
 0002:00009ec0       ht                         0000000180080ec0     libmp3lame:tables.obj
 0002:0000aab0       table56                    0000000180081ab0     libmp3lame:tables.obj
 0002:0000ae60       table23                    0000000180081e60     libmp3lame:tables.obj
 0002:0000aeb0       largetbl                   0000000180081eb0     libmp3lame:tables.obj
 0002:0000b330       scfsi_band                 0000000180082330     libmp3lame:tables.obj
 0002:0000b350       t32l                       0000000180082350     libmp3lame:tables.obj
 0002:0000bb10       sfBandIndex                0000000180082b10     libmp3lame:quantize_pvt.obj
 0002:0000c280       nr_of_sfb_block            0000000180083280     libmp3lame:quantize_pvt.obj
 0002:0000c3a0       pretab                     00000001800833a0     libmp3lame:quantize_pvt.obj
 0002:0000cc20       slen1_tab                  0000000180083c20     libmp3lame:takehiro.obj
 0002:0000cc60       slen2_tab                  0000000180083c60     libmp3lame:takehiro.obj
 0002:0000d920       plain_i386                 0000000180084920     libmpg123:optimize.obj
 0002:00010da0       INT123_pnts                0000000180087da0     libmpg123:tabinit.obj
 0002:00010e20       ??_C@_0EC@JBHANONC@Warning?3?5highpass?5filter?5disabl@ 0000000180087e20     libmp3lame:lame.obj
 0002:00010e68       ??_C@_0BB@OFOFPBOF@LAME?5?$CFs?5?$CFs?5?$CI?$CFs?$CJ?6@ 0000000180087e68     libmp3lame:lame.obj
 0002:00010e7c       ??_C@_03LNOFGJMM@MMX@      0000000180087e7c     libmp3lame:lame.obj
 0002:00010e80       ??_C@_02KEGNLNML@?0?5@     0000000180087e80     libmp3lame:lame.obj
 0002:00010e84       ??_C@_06DGHGLNHP@3DNow?$CB@ 0000000180087e84     libmp3lame:lame.obj
 0002:00010e90       ??_C@_0P@MNBBAJAB@SSE?5?$CIASM?5used?$CJ@ 0000000180087e90     libmp3lame:lame.obj
 0002:00010ea0       ??_C@_04EPHAGOP@SSE2@      0000000180087ea0     libmp3lame:lame.obj
 0002:00010ea8       ??_C@_0BC@PGNIENLH@CPU?5features?3?5?$CFs?6@ 0000000180087ea8     libmp3lame:lame.obj
 0002:00010ec0       ??_C@_0EE@CDLHFDAJ@Autoconverting?5from?5stereo?5to?5m@ 0000000180087ec0     libmp3lame:lame.obj
 0002:00010f08       ??_C@_0CK@LIDEKOCP@Resampling?3?5?5input?5?$CFg?5kHz?5?5outp@ 0000000180087f08     libmp3lame:lame.obj
 0002:00010f40       ??_C@_0EH@JGACDABP@Using?5polyphase?5highpass?5filter@ 0000000180087f40     libmp3lame:lame.obj
 0002:00010f90       ??_C@_0EG@JGKNCGCO@Using?5polyphase?5lowpass?5filter?0@ 0000000180087f90     libmp3lame:lame.obj
 0002:00010fd8       ??_C@_0CD@BBFGAKHA@polyphase?5lowpass?5filter?5disabl@ 0000000180087fd8     libmp3lame:lame.obj
 0002:00011000       ??_C@_0DN@IGHDGMCM@Warning?3?5many?5decoders?5cannot?5h@ 0000000180088000     libmp3lame:lame.obj
 0002:00011040       ??_C@_0FJ@NFPDEENL@Warning?3?5many?5decoders?5cannot?5h@ 0000000180088040     libmp3lame:lame.obj
 0002:00011099       ??_C@_00CNPNBAHC@@         0000000180088099     libmp3lame:lame.obj
 0002:000110a0       ??_C@_08OCNCNKPI@?6misc?3?6?6@ 00000001800880a0     libmp3lame:lame.obj
 0002:000110b0       ??_C@_0O@LNGKOMDN@?7scaling?3?5?$CFg?6@ 00000001800880b0     libmp3lame:lame.obj
 0002:000110c0       ??_C@_0BJ@HAOMIKFL@?7ch0?5?$CIleft?$CJ?5scaling?3?5?$CFg?6@ 00000001800880c0     libmp3lame:lame.obj
 0002:000110e0       ??_C@_0BK@FCKAIEIP@?7ch1?5?$CIright?$CJ?5scaling?3?5?$CFg?6@ 00000001800880e0     libmp3lame:lame.obj
 0002:000110fc       ??_C@_06IKLLLDHL@normal@   00000001800880fc     libmp3lame:lame.obj
 0002:00011108       ??_C@_0BE@HFLEPBKE@best?5?$CIoutside?5loop?$CJ@ 0000000180088108     libmp3lame:lame.obj
 0002:00011120       ??_C@_0BJ@HJEFKPHH@best?5?$CIinside?5loop?0?5slow?$CJ@ 0000000180088120     libmp3lame:lame.obj
 0002:00011140       ??_C@_0BF@NJFGMMBM@?7huffman?5search?3?5?$CFs?6@ 0000000180088140     libmp3lame:lame.obj
 0002:00011158       ??_C@_0BE@HPHGPAOL@?7experimental?5Y?$DN?$CFd?6@ 0000000180088158     libmp3lame:lame.obj
 0002:0001116c       ??_C@_05JPBCMFJM@?7?4?4?4?6@ 000000018008816c     libmp3lame:lame.obj
 0002:00011178       ??_C@_0BC@PJLJKCE@?6stream?5format?3?6?6@ 0000000180088178     libmp3lame:lame.obj
 0002:0001118c       ??_C@_03BEHLLJJF@2?45@     000000018008818c     libmp3lame:lame.obj
 0002:00011190       ??_C@_01HIHLOKLC@1@        0000000180088190     libmp3lame:lame.obj
 0002:00011194       ??_C@_01FDFGLJHB@2@        0000000180088194     libmp3lame:lame.obj
 0002:00011198       ??_C@_01OGPIMHDM@?$DP@     0000000180088198     libmp3lame:lame.obj
 0002:000111a0       ??_C@_0BC@JMNPPKKO@?7MPEG?9?$CFs?5Layer?53?6@ 00000001800881a0     libmp3lame:lame.obj
 0002:000111b8       ??_C@_0N@FPMBPBGF@joint?5stereo@ 00000001800881b8     libmp3lame:lame.obj
 0002:000111c8       ??_C@_06BDDNELGJ@stereo@   00000001800881c8     libmp3lame:lame.obj
 0002:000111d0       ??_C@_0N@FGCMNKN@dual?5channel@ 00000001800881d0     libmp3lame:lame.obj
 0002:000111e0       ??_C@_04JLBGMNAJ@mono@     00000001800881e0     libmp3lame:lame.obj
 0002:000111e8       ??_C@_0BA@BFBLDBCI@not?5set?5?$CIerror?$CJ@ 00000001800881e8     libmp3lame:lame.obj
 0002:000111f8       ??_C@_0BA@KIFFCGDE@unknown?5?$CIerror?$CJ@ 00000001800881f8     libmp3lame:lame.obj
 0002:00011208       ??_C@_0BC@BKCCBDAM@?7?$CFd?5channel?5?9?5?$CFs?6@ 0000000180088208     libmp3lame:lame.obj
 0002:0001121c       ??_C@_03MCADLMAF@off@      000000018008821c     libmp3lame:lame.obj
 0002:00011220       ??_C@_03NFKEKGGK@all@      0000000180088220     libmp3lame:lame.obj
 0002:00011228       ??_C@_0O@JFDEPJHG@?7padding?3?5?$CFs?6@ 0000000180088228     libmp3lame:lame.obj
 0002:00011238       ??_C@_09KFMJHHJJ@?$CIdefault?$CJ@ 0000000180088238     libmp3lame:lame.obj
 0002:00011248       ??_C@_0O@PKLEMINE@?$CIfree?5format?$CJ@ 0000000180088248     libmp3lame:lame.obj
 0002:00011258       ??_C@_0BM@BAGDDFON@?7constant?5bitrate?5?9?5CBR?5?$CFs?6@ 0000000180088258     libmp3lame:lame.obj
 0002:00011278       ??_C@_0BM@FALEJJDH@?7variable?5bitrate?5?9?5ABR?5?$CFs?6@ 0000000180088278     libmp3lame:lame.obj
 0002:00011298       ??_C@_0BP@PFMABHIA@?7variable?5bitrate?5?9?5VBR?5rh?5?$CFs?6@ 0000000180088298     libmp3lame:lame.obj
 0002:000112b8       ??_C@_0BP@BAECDJEH@?7variable?5bitrate?5?9?5VBR?5mt?5?$CFs?6@ 00000001800882b8     libmp3lame:lame.obj
 0002:000112d8       ??_C@_0CB@MMALJEFE@?7variable?5bitrate?5?9?5VBR?5mtrh?5?$CFs@ 00000001800882d8     libmp3lame:lame.obj
 0002:00011300       ??_C@_0BN@OPDANJLJ@?7?5?$DP?$DP?5oops?0?5some?5new?5one?5?$DP?$DP?5?6@ 0000000180088300     libmp3lame:lame.obj
 0002:00011320       ??_C@_0BB@POGGEMGO@?7using?5LAME?5Tag?6@ 0000000180088320     libmp3lame:lame.obj
 0002:00011338       ??_C@_0BD@CCJLGNJG@?6psychoacoustic?3?6?6@ 0000000180088338     libmp3lame:lame.obj
 0002:00011350       ??_C@_07BHLLLGNC@allowed@  0000000180088350     libmp3lame:lame.obj
 0002:00011358       ??_C@_0BA@HNKNFHAB@channel?5coupled@ 0000000180088358     libmp3lame:lame.obj
 0002:00011368       ??_C@_09LCDCLNPL@dispensed@ 0000000180088368     libmp3lame:lame.obj
 0002:00011374       ??_C@_06JGFLKIPL@forced@   0000000180088374     libmp3lame:lame.obj
 0002:00011380       ??_C@_0BJ@CPDFMACD@?7using?5short?5blocks?3?5?$CFs?6@ 0000000180088380     libmp3lame:lame.obj
 0002:000113a0       ??_C@_0BE@HMLAMLHB@?7subblock?5gain?3?5?$CFd?6@ 00000001800883a0     libmp3lame:lame.obj
 0002:000113b8       ??_C@_0BI@PKGHKFLP@?7adjust?5masking?3?5?$CFg?5dB?6@ 00000001800883b8     libmp3lame:lame.obj
 0002:000113d0       ??_C@_0BO@JJOCCODN@?7adjust?5masking?5short?3?5?$CFg?5dB?6@ 00000001800883d0     libmp3lame:lame.obj
 0002:000113f0       ??_C@_0BO@MCFMHOJB@?7quantization?5comparison?3?5?$CFd?6@ 00000001800883f0     libmp3lame:lame.obj
 0002:00011410       ??_C@_0CB@FCDDLJCJ@?7?5?$FO?5comparison?5short?5blocks?3?5?$CFd@ 0000000180088410     libmp3lame:lame.obj
 0002:00011438       ??_C@_0BE@MNMNNAOI@?7noise?5shaping?3?5?$CFd?6@ 0000000180088438     libmp3lame:lame.obj
 0002:00011450       ??_C@_0BH@CGJLJHGN@?7?5?$FO?5amplification?3?5?$CFd?6@ 0000000180088450     libmp3lame:lame.obj
 0002:00011468       ??_C@_0BC@KNPJJGMC@?7?5?$FO?5stopping?3?5?$CFd?6@ 0000000180088468     libmp3lame:lame.obj
 0002:0001147c       ??_C@_05IFHLPLPC@using@    000000018008847c     libmp3lame:lame.obj
 0002:00011488       ??_C@_0CC@ENIHMMMK@the?5only?5masking?5for?5short?5bloc@ 0000000180088488     libmp3lame:lame.obj
 0002:000114b0       ??_C@_0BB@MGAAIGDO@the?5only?5masking@ 00000001800884b0     libmp3lame:lame.obj
 0002:000114c8       ??_C@_08JMCCDFNL@not?5used@ 00000001800884c8     libmp3lame:lame.obj
 0002:000114d8       ??_C@_09NAJFAHGF@?7ATH?3?5?$CFs?6@ 00000001800884d8     libmp3lame:lame.obj
 0002:000114e8       ??_C@_0O@PADLEJED@?7?5?$FO?5type?3?5?$CFd?6@ 00000001800884e8     libmp3lame:lame.obj
 0002:000114f8       ??_C@_0BD@KNEOFMFP@?5?$CIonly?5for?5type?54?$CJ@ 00000001800884f8     libmp3lame:lame.obj
 0002:00011510       ??_C@_0BB@CKOHFPDE@?7?5?$FO?5shape?3?5?$CFg?$CFs?6@ 0000000180088510     libmp3lame:lame.obj
 0002:00011528       ??_C@_0BO@NIJDNPLD@?7?5?$FO?5level?5adjustement?3?5?$CFg?5dB?6@ 0000000180088528     libmp3lame:lame.obj
 0002:00011548       ??_C@_0BF@ONPPHJJO@?7?5?$FO?5adjust?5type?3?5?$CFd?6@ 0000000180088548     libmp3lame:lame.obj
 0002:00011560       ??_C@_0CC@OLDHKLNJ@?7?5?$FO?5adjust?5sensitivity?5power?3?5?$CF@ 0000000180088560     libmp3lame:lame.obj
 0002:00011588       ??_C@_0CM@KKMCAGDD@?7experimental?5psy?5tunings?5by?5Na@ 0000000180088588     libmp3lame:lame.obj
 0002:000115c0       ??_C@_0EG@KOKLKHDL@?7?5?5?5adjust?5masking?5bass?$DN?$CFg?5dB?0?5@ 00000001800885c0     libmp3lame:lame.obj
 0002:00011608       ??_C@_03ICICOMAL@yes@      0000000180088608     libmp3lame:lame.obj
 0002:0001160c       ??_C@_02KAJCLHKP@no@       000000018008860c     libmp3lame:lame.obj
 0002:00011610       ??_C@_0CE@HPIHCFGL@?7using?5temporal?5masking?5effect?3@ 0000000180088610     libmp3lame:lame.obj
 0002:00011638       ??_C@_0CB@KFKIJBOH@?7interchannel?5masking?5ratio?3?5?$CFg@ 0000000180088638     libmp3lame:lame.obj
 0002:0001165c       ??_C@_01EEMJAFIK@?6@       000000018008865c     libmp3lame:lame.obj
 0002:00011660       ??_C@_0CI@DOBFAMDB@Error?3?5can?8t?5allocate?5in_buffer@ 0000000180088660     libmp3lame:lame.obj
 0002:00011688       ??_C@_05EGIABMCH@Blues@    0000000180088688     libmp3lame:id3tag.obj
 0002:00011690       ??_C@_0N@HMGLJNH@Classic?5Rock@ 0000000180088690     libmp3lame:id3tag.obj
 0002:000116a0       ??_C@_07HAAJMFIA@Country@  00000001800886a0     libmp3lame:id3tag.obj
 0002:000116a8       ??_C@_05PHEECCHA@Dance@    00000001800886a8     libmp3lame:id3tag.obj
 0002:000116b0       ??_C@_05JPKIAOHJ@Disco@    00000001800886b0     libmp3lame:id3tag.obj
 0002:000116b8       ??_C@_04HGMPKBOD@Funk@     00000001800886b8     libmp3lame:id3tag.obj
 0002:000116c0       ??_C@_06BKAMGKHE@Grunge@   00000001800886c0     libmp3lame:id3tag.obj
 0002:000116c8       ??_C@_07HOOMJDLF@Hip?9Hop@ 00000001800886c8     libmp3lame:id3tag.obj
 0002:000116d0       ??_C@_04CELCKEJG@Jazz@     00000001800886d0     libmp3lame:id3tag.obj
 0002:000116d8       ??_C@_05MICJANKE@Metal@    00000001800886d8     libmp3lame:id3tag.obj
 0002:000116e0       ??_C@_07NOBIPMGJ@New?5Age@ 00000001800886e0     libmp3lame:id3tag.obj
 0002:000116e8       ??_C@_06MPHEKAMK@Oldies@   00000001800886e8     libmp3lame:id3tag.obj
 0002:000116f0       ??_C@_05BBOGGNLJ@Other@    00000001800886f0     libmp3lame:id3tag.obj
 0002:000116f8       ??_C@_03HJACNKKK@Pop@      00000001800886f8     libmp3lame:id3tag.obj
 0002:000116fc       ??_C@_03EBDAPABP@R?$CGB@   00000001800886fc     libmp3lame:id3tag.obj
 0002:00011700       ??_C@_03NJJFDPCL@Rap@      0000000180088700     libmp3lame:id3tag.obj
 0002:00011704       ??_C@_06FCJMBMOE@Reggae@   0000000180088704     libmp3lame:id3tag.obj
 0002:0001170c       ??_C@_04NENDLEAJ@Rock@     000000018008870c     libmp3lame:id3tag.obj
 0002:00011714       ??_C@_06GNBMDAPP@Techno@   0000000180088714     libmp3lame:id3tag.obj
 0002:00011720       ??_C@_0L@BLDOBJBN@Industrial@ 0000000180088720     libmp3lame:id3tag.obj
 0002:00011730       ??_C@_0M@GIKKCPNF@Alternative@ 0000000180088730     libmp3lame:id3tag.obj
 0002:0001173c       ??_C@_03DPGHPOII@Ska@      000000018008873c     libmp3lame:id3tag.obj
 0002:00011740       ??_C@_0M@EPABKDJI@Death?5Metal@ 0000000180088740     libmp3lame:id3tag.obj
 0002:0001174c       ??_C@_06DIJHLFMF@Pranks@   000000018008874c     libmp3lame:id3tag.obj
 0002:00011758       ??_C@_0L@JMHFNCF@Soundtrack@ 0000000180088758     libmp3lame:id3tag.obj
 0002:00011768       ??_C@_0M@LPAFHLOI@Euro?9Techno@ 0000000180088768     libmp3lame:id3tag.obj
 0002:00011778       ??_C@_07EBHHCJEE@Ambient@  0000000180088778     libmp3lame:id3tag.obj
 0002:00011780       ??_C@_08MGHEAHLN@Trip?9Hop@ 0000000180088780     libmp3lame:id3tag.obj
 0002:0001178c       ??_C@_05CGEGIIHL@Vocal@    000000018008878c     libmp3lame:id3tag.obj
 0002:00011798       ??_C@_09IJAEMLMO@Jazz?$CLFunk@ 0000000180088798     libmp3lame:id3tag.obj
 0002:000117a4       ??_C@_06FOAOBEBC@Fusion@   00000001800887a4     libmp3lame:id3tag.obj
 0002:000117ac       ??_C@_06NOFDHFLJ@Trance@   00000001800887ac     libmp3lame:id3tag.obj
 0002:000117b8       ??_C@_09KCDEIEAL@Classical@ 00000001800887b8     libmp3lame:id3tag.obj
 0002:000117c8       ??_C@_0N@FJCNDAAI@Instrumental@ 00000001800887c8     libmp3lame:id3tag.obj
 0002:000117d8       ??_C@_04DDEKHPPK@Acid@     00000001800887d8     libmp3lame:id3tag.obj
 0002:000117e0       ??_C@_05KEIICPIE@House@    00000001800887e0     libmp3lame:id3tag.obj
 0002:000117e8       ??_C@_04IBBNLEM@Game@      00000001800887e8     libmp3lame:id3tag.obj
 0002:000117f0       ??_C@_0L@FEFCBAGD@Sound?5Clip@ 00000001800887f0     libmp3lame:id3tag.obj
 0002:000117fc       ??_C@_06EIIEMBBK@Gospel@   00000001800887fc     libmp3lame:id3tag.obj
 0002:00011804       ??_C@_05GIBOCELO@Noise@    0000000180088804     libmp3lame:id3tag.obj
 0002:00011810       ??_C@_0BB@CKCNMPIF@Alternative?5Rock@ 0000000180088810     libmp3lame:id3tag.obj
 0002:00011824       ??_C@_04MKNBGPJB@Bass@     0000000180088824     libmp3lame:id3tag.obj
 0002:0001182c       ??_C@_04LOFJNELM@Soul@     000000018008882c     libmp3lame:id3tag.obj
 0002:00011834       ??_C@_04JJGPMDMB@Punk@     0000000180088834     libmp3lame:id3tag.obj
 0002:0001183c       ??_C@_05OMHELODH@Space@    000000018008883c     libmp3lame:id3tag.obj
 0002:00011848       ??_C@_0L@KJEEODLG@Meditative@ 0000000180088848     libmp3lame:id3tag.obj
 0002:00011858       ??_C@_0BB@LFDKKLIN@Instrumental?5Pop@ 0000000180088858     libmp3lame:id3tag.obj
 0002:00011870       ??_C@_0BC@HBBFDJBD@Instrumental?5Rock@ 0000000180088870     libmp3lame:id3tag.obj
 0002:00011884       ??_C@_06JPHOEBPP@Ethnic@   0000000180088884     libmp3lame:id3tag.obj
 0002:0001188c       ??_C@_06OBILIHNB@Gothic@   000000018008888c     libmp3lame:id3tag.obj
 0002:00011898       ??_C@_08BPJDAAFN@Darkwave@ 0000000180088898     libmp3lame:id3tag.obj
 0002:000118a8       ??_C@_0BC@HKAKJIIF@Techno?9Industrial@ 00000001800888a8     libmp3lame:id3tag.obj
 0002:000118c0       ??_C@_0L@CHKMIMGG@Electronic@ 00000001800888c0     libmp3lame:id3tag.obj
 0002:000118d0       ??_C@_08EGAHBEGH@Pop?9Folk@ 00000001800888d0     libmp3lame:id3tag.obj
 0002:000118e0       ??_C@_09PDIMAOAM@Eurodance@ 00000001800888e0     libmp3lame:id3tag.obj
 0002:000118ec       ??_C@_05MMFIBGEF@Dream@    00000001800888ec     libmp3lame:id3tag.obj
 0002:000118f8       ??_C@_0O@KFCFCIGH@Southern?5Rock@ 00000001800888f8     libmp3lame:id3tag.obj
 0002:00011908       ??_C@_06DCKLOHGE@Comedy@   0000000180088908     libmp3lame:id3tag.obj
 0002:00011910       ??_C@_04HAPBPEGD@Cult@     0000000180088910     libmp3lame:id3tag.obj
 0002:00011918       ??_C@_07NLDMPMFM@Gangsta@  0000000180088918     libmp3lame:id3tag.obj
 0002:00011920       ??_C@_06OJGPGEOE@Top?540@  0000000180088920     libmp3lame:id3tag.obj
 0002:00011928       ??_C@_0O@CMBOEJC@Christian?5Rap@ 0000000180088928     libmp3lame:id3tag.obj
 0002:00011938       ??_C@_08DHOPNGPJ@Pop?1Funk@ 0000000180088938     libmp3lame:id3tag.obj
 0002:00011944       ??_C@_06LDDNPE@Jungle@     0000000180088944     libmp3lame:id3tag.obj
 0002:00011950       ??_C@_09DGFAPIDC@Native?5US@ 0000000180088950     libmp3lame:id3tag.obj
 0002:00011960       ??_C@_07DFBJIPEL@Cabaret@  0000000180088960     libmp3lame:id3tag.obj
 0002:00011968       ??_C@_08PIJBHODF@New?5Wave@ 0000000180088968     libmp3lame:id3tag.obj
 0002:00011978       ??_C@_0M@NADCKJBA@Psychedelic@ 0000000180088978     libmp3lame:id3tag.obj
 0002:00011984       ??_C@_04LAGCIPCP@Rave@     0000000180088984     libmp3lame:id3tag.obj
 0002:00011990       ??_C@_09LJJPFGGK@Showtunes@ 0000000180088990     libmp3lame:id3tag.obj
 0002:000119a0       ??_C@_07EFCJIPGP@Trailer@  00000001800889a0     libmp3lame:id3tag.obj
 0002:000119a8       ??_C@_05LPLFCCKI@Lo?9Fi@   00000001800889a8     libmp3lame:id3tag.obj
 0002:000119b0       ??_C@_06HGLDOOOH@Tribal@   00000001800889b0     libmp3lame:id3tag.obj
 0002:000119b8       ??_C@_09BPKAFLAF@Acid?5Punk@ 00000001800889b8     libmp3lame:id3tag.obj
 0002:000119c8       ??_C@_09KCHNDMFC@Acid?5Jazz@ 00000001800889c8     libmp3lame:id3tag.obj
 0002:000119d4       ??_C@_05BAEFIAKL@Polka@    00000001800889d4     libmp3lame:id3tag.obj
 0002:000119dc       ??_C@_05POEPDAA@Retro@     00000001800889dc     libmp3lame:id3tag.obj
 0002:000119e8       ??_C@_07CGEPLPCE@Musical@  00000001800889e8     libmp3lame:id3tag.obj
 0002:000119f0       ??_C@_0M@IIAEDJCA@Rock?5?$CG?5Roll@ 00000001800889f0     libmp3lame:id3tag.obj
 0002:00011a00       ??_C@_09KBCOACPM@Hard?5Rock@ 0000000180088a00     libmp3lame:id3tag.obj
 0002:00011a0c       ??_C@_04EKOPMCHG@Folk@     0000000180088a0c     libmp3lame:id3tag.obj
 0002:00011a18       ??_C@_09FEMCKJPD@Folk?9Rock@ 0000000180088a18     libmp3lame:id3tag.obj
 0002:00011a28       ??_C@_0O@OLFCHJHJ@National?5Folk@ 0000000180088a28     libmp3lame:id3tag.obj
 0002:00011a38       ??_C@_05KBAOLLBJ@Swing@    0000000180088a38     libmp3lame:id3tag.obj
 0002:00011a40       ??_C@_0M@LPPEJIPP@Fast?5Fusion@ 0000000180088a40     libmp3lame:id3tag.obj
 0002:00011a4c       ??_C@_05NIBALHLG@Bebob@    0000000180088a4c     libmp3lame:id3tag.obj
 0002:00011a54       ??_C@_05MKNAELPL@Latin@    0000000180088a54     libmp3lame:id3tag.obj
 0002:00011a60       ??_C@_07NDAADGHD@Revival@  0000000180088a60     libmp3lame:id3tag.obj
 0002:00011a68       ??_C@_06POAALEMA@Celtic@   0000000180088a68     libmp3lame:id3tag.obj
 0002:00011a70       ??_C@_09EGIPCOAF@Bluegrass@ 0000000180088a70     libmp3lame:id3tag.obj
 0002:00011a80       ??_C@_0L@MJHGFLKD@Avantgarde@ 0000000180088a80     libmp3lame:id3tag.obj
 0002:00011a90       ??_C@_0M@IELMFHHK@Gothic?5Rock@ 0000000180088a90     libmp3lame:id3tag.obj
 0002:00011aa0       ??_C@_0BB@GCFDGKOP@Progressive?5Rock@ 0000000180088aa0     libmp3lame:id3tag.obj
 0002:00011ab8       ??_C@_0BB@BMPGIMDB@Psychedelic?5Rock@ 0000000180088ab8     libmp3lame:id3tag.obj
 0002:00011ad0       ??_C@_0P@FPGGCDAB@Symphonic?5Rock@ 0000000180088ad0     libmp3lame:id3tag.obj
 0002:00011ae0       ??_C@_09DOKHDNBN@Slow?5Rock@ 0000000180088ae0     libmp3lame:id3tag.obj
 0002:00011af0       ??_C@_08INPKNPNL@Big?5Band@ 0000000180088af0     libmp3lame:id3tag.obj
 0002:00011afc       ??_C@_06HPKLMKFH@Chorus@   0000000180088afc     libmp3lame:id3tag.obj
 0002:00011b08       ??_C@_0P@OGJNDFNF@Easy?5Listening@ 0000000180088b08     libmp3lame:id3tag.obj
 0002:00011b18       ??_C@_08PLJDJOCM@Acoustic@ 0000000180088b18     libmp3lame:id3tag.obj
 0002:00011b24       ??_C@_06DEMGCIL@Humour@    0000000180088b24     libmp3lame:id3tag.obj
 0002:00011b2c       ??_C@_06MBBDLFLA@Speech@   0000000180088b2c     libmp3lame:id3tag.obj
 0002:00011b38       ??_C@_07KBEDDHIP@Chanson@  0000000180088b38     libmp3lame:id3tag.obj
 0002:00011b40       ??_C@_05GOIKOHMD@Opera@    0000000180088b40     libmp3lame:id3tag.obj
 0002:00011b48       ??_C@_0O@HPFNKIBK@Chamber?5Music@ 0000000180088b48     libmp3lame:id3tag.obj
 0002:00011b58       ??_C@_06DIKKNAE@Sonata@    0000000180088b58     libmp3lame:id3tag.obj
 0002:00011b60       ??_C@_08HGMGMDPB@Symphony@ 0000000180088b60     libmp3lame:id3tag.obj
 0002:00011b70       ??_C@_0L@BMCAJHGC@Booty?5Bass@ 0000000180088b70     libmp3lame:id3tag.obj
 0002:00011b7c       ??_C@_06MOKNPJA@Primus@    0000000180088b7c     libmp3lame:id3tag.obj
 0002:00011b88       ??_C@_0M@BDIBAHFD@Porn?5Groove@ 0000000180088b88     libmp3lame:id3tag.obj
 0002:00011b94       ??_C@_06LGIFNCAO@Satire@   0000000180088b94     libmp3lame:id3tag.obj
 0002:00011ba0       ??_C@_08BCJKABMD@Slow?5Jam@ 0000000180088ba0     libmp3lame:id3tag.obj
 0002:00011bac       ??_C@_04FCIPMBFO@Club@     0000000180088bac     libmp3lame:id3tag.obj
 0002:00011bb4       ??_C@_05JHEGALN@Tango@     0000000180088bb4     libmp3lame:id3tag.obj
 0002:00011bbc       ??_C@_05JOIMBAIO@Samba@    0000000180088bbc     libmp3lame:id3tag.obj
 0002:00011bc8       ??_C@_08ODOIKEAG@Folklore@ 0000000180088bc8     libmp3lame:id3tag.obj
 0002:00011bd4       ??_C@_06BHBJEFGN@Ballad@   0000000180088bd4     libmp3lame:id3tag.obj
 0002:00011be0       ??_C@_0N@BBLJBJNI@Power?5Ballad@ 0000000180088be0     libmp3lame:id3tag.obj
 0002:00011bf0       ??_C@_0O@NBAHAMNI@Rhythmic?5Soul@ 0000000180088bf0     libmp3lame:id3tag.obj
 0002:00011c00       ??_C@_09NOJFLNHA@Freestyle@ 0000000180088c00     libmp3lame:id3tag.obj
 0002:00011c0c       ??_C@_04MNAABDPM@Duet@     0000000180088c0c     libmp3lame:id3tag.obj
 0002:00011c18       ??_C@_09LJCHIEBA@Punk?5Rock@ 0000000180088c18     libmp3lame:id3tag.obj
 0002:00011c28       ??_C@_09ODFCHLIF@Drum?5Solo@ 0000000180088c28     libmp3lame:id3tag.obj
 0002:00011c38       ??_C@_0L@MNPOBBMF@A?5Cappella@ 0000000180088c38     libmp3lame:id3tag.obj
 0002:00011c48       ??_C@_0L@LAEGMFKC@Euro?9House@ 0000000180088c48     libmp3lame:id3tag.obj
 0002:00011c58       ??_C@_0L@LLLHEFCL@Dance?5Hall@ 0000000180088c58     libmp3lame:id3tag.obj
 0002:00011c64       ??_C@_03OHBFJGJM@Goa@      0000000180088c64     libmp3lame:id3tag.obj
 0002:00011c68       ??_C@_0M@NPGHKLH@Drum?5?$CG?5Bass@ 0000000180088c68     libmp3lame:id3tag.obj
 0002:00011c78       ??_C@_0L@HMCMNNNL@Club?9House@ 0000000180088c78     libmp3lame:id3tag.obj
 0002:00011c88       ??_C@_08HKEHKPDB@Hardcore@ 0000000180088c88     libmp3lame:id3tag.obj
 0002:00011c94       ??_C@_06PBJGDPBN@Terror@   0000000180088c94     libmp3lame:id3tag.obj
 0002:00011c9c       ??_C@_05KLKAMDMN@Indie@    0000000180088c9c     libmp3lame:id3tag.obj
 0002:00011ca8       ??_C@_07OICMGNA@BritPop@   0000000180088ca8     libmp3lame:id3tag.obj
 0002:00011cb0       ??_C@_09KOMLOGHM@Negerpunk@ 0000000180088cb0     libmp3lame:id3tag.obj
 0002:00011cc0       ??_C@_0L@HKANPOAD@Polsk?5Punk@ 0000000180088cc0     libmp3lame:id3tag.obj
 0002:00011ccc       ??_C@_04BFFABJBP@Beat@     0000000180088ccc     libmp3lame:id3tag.obj
 0002:00011cd8       ??_C@_0BC@PFEMLEJB@Christian?5Gangsta@ 0000000180088cd8     libmp3lame:id3tag.obj
 0002:00011cf0       ??_C@_0M@NEOMPHCK@Heavy?5Metal@ 0000000180088cf0     libmp3lame:id3tag.obj
 0002:00011d00       ??_C@_0M@JNFPBAKG@Black?5Metal@ 0000000180088d00     libmp3lame:id3tag.obj
 0002:00011d10       ??_C@_09OIHDMKNE@Crossover@ 0000000180088d10     libmp3lame:id3tag.obj
 0002:00011d20       ??_C@_0BH@IOJICMPF@Contemporary?5Christian@ 0000000180088d20     libmp3lame:id3tag.obj
 0002:00011d38       ??_C@_0P@GGLFOLPK@Christian?5Rock@ 0000000180088d38     libmp3lame:id3tag.obj
 0002:00011d48       ??_C@_08EHKNMNPK@Merengue@ 0000000180088d48     libmp3lame:id3tag.obj
 0002:00011d54       ??_C@_05DLNELOKM@Salsa@    0000000180088d54     libmp3lame:id3tag.obj
 0002:00011d60       ??_C@_0N@MAEFEGK@Thrash?5Metal@ 0000000180088d60     libmp3lame:id3tag.obj
 0002:00011d70       ??_C@_05LCJADBKB@Anime@    0000000180088d70     libmp3lame:id3tag.obj
 0002:00011d78       ??_C@_04IMCHLCED@JPop@     0000000180088d78     libmp3lame:id3tag.obj
 0002:00011d80       ??_C@_08KEPHKCPD@SynthPop@ 0000000180088d80     libmp3lame:id3tag.obj
 0002:00011d8c       ??_C@_03MAMPKPPK@XXX@      0000000180088d8c     libmp3lame:id3tag.obj
 0002:00011d90       ??_C@_03FKNCMABI@?$CFlu@   0000000180088d90     libmp3lame:id3tag.obj
 0002:00011d98       ??_C@_0L@PJKHLKFB@image?1jpeg@ 0000000180088d98     libmp3lame:id3tag.obj
 0002:00011da8       ??_C@_09NGJJJBGE@image?1png@ 0000000180088da8     libmp3lame:id3tag.obj
 0002:00011db8       ??_C@_09HADNJIG@image?1gif@ 0000000180088db8     libmp3lame:id3tag.obj
 0002:00011dc4       ??_C@_02DPKJAMEF@?$CFd@    0000000180088dc4     libmp3lame:id3tag.obj
 0002:00011dc8       ??_C@_06HHEODPII@3?499?45@ 0000000180088dc8     libmp3lame:version.obj
 0002:00011dd0       ??_C@_0BD@CIOPPHEI@http?3?1?1lame?4sf?4net@ 0000000180088dd0     libmp3lame:version.obj
 0002:00011de4       ??_C@_06EAJMEPPF@32bits@   0000000180088de4     libmp3lame:version.obj
 0002:00011dec       ??_C@_06MEPNIDEP@64bits@   0000000180088dec     libmp3lame:version.obj
 0002:00011df8       ??_C@_0DB@EJLADBBI@Error?3?5MAX_HEADER_BUF?5too?5small@ 0000000180088df8     libmp3lame:bitstream.obj
 0002:00011e30       ??_C@_0CE@MLJFCMKN@strange?5error?5flushing?5buffer?5?4@ 0000000180088e30     libmp3lame:bitstream.obj
 0002:00011e58       ??_C@_0DF@BPHLLGHC@Internal?5buffer?5inconsistency?4?5@ 0000000180088e58     libmp3lame:bitstream.obj
 0002:00011e90       ??_C@_0BBH@PPBGFIEC@bit?5reservoir?5error?3?5?6l3_side?9?$DO@ 0000000180088e90     libmp3lame:bitstream.obj
 0002:00011fa8       ??_C@_0DI@DFGHOLND@This?5is?5a?5fatal?5error?4?5?5It?5has?5@ 0000000180088fa8     libmp3lame:bitstream.obj
 0002:00011fe0       ??_C@_0EL@BNOLJPOH@90?$CF?$CF?5?5LAME?5compiled?5with?5buggy?5@ 0000000180088fe0     libmp3lame:bitstream.obj
 0002:00012030       ??_C@_0CB@CHENHKNJ@?59?$CF?$CF?5?5Your?5system?5is?5overclocke@ 0000000180089030     libmp3lame:bitstream.obj
 0002:00012058       ??_C@_0CD@OBIAECME@?51?$CF?$CF?5?5bug?5in?5LAME?5encoding?5libr@ 0000000180089058     libmp3lame:bitstream.obj
 0002:00012080       ??_C@_0CI@LELFCFFB@Error?3?5can?8t?5allocate?5VbrFrames@ 0000000180089080     libmp3lame:VbrTag.obj
 0002:000120a8       ??_C@_0DI@PCNINCMI@INTERNAL?5ERROR?5IN?5VBR?5NEW?5CODE?0@ 00000001800890a8     libmp3lame:quantize.obj
 0002:000120e0       ??_C@_0CG@GKEADOFJ@intensity?5stereo?5not?5implemente@ 00000001800890e0     libmp3lame:takehiro.obj
 0002:00012108       ??_C@_0DO@BNLHIGAN@INTERNAL?5ERROR?5IN?5VBR?5NEW?5CODE?5@ 0000000180089108     libmp3lame:vbrquantize.obj
 0002:00012150       ??_C@_0FG@KBFNAJMM@INTERNAL?5ERROR?5IN?5VBR?5NEW?5CODE?5@ 0000000180089150     libmp3lame:vbrquantize.obj
 0002:000121b0       ??_C@_0FC@LNEJEKEJ@?6Note?3?5Cut?5frame?5?$CFli?5buffer?5on?5@ 00000001800891b0     libmpg123:libmpg123.obj
 0002:00012210       ??_C@_0FI@JAPEDGDK@?6Note?3?5Cut?5frame?5?$CFli?5buffer?5on?5@ 0000000180089210     libmpg123:libmpg123.obj
 0002:00012270       ??_C@_0MP@DNCBJEPF@?$FLd?3?2project?2alexa?5mirror?2alexa?5@ 0000000180089270     libmpg123:libmpg123.obj
 0002:00012340       ??_C@_0DO@EKAFLIIH@Note?3?5broken?5frame?5?$CFli?0?5filling@ 0000000180089340     libmpg123:libmpg123.obj
 0002:00012380       ??_C@_04HAPDLBFF@auto@     0000000180089380     libmpg123:optimize.obj
 0002:00012388       ??_C@_07DCLBNMLN@generic@  0000000180089388     libmpg123:optimize.obj
 0002:00012390       ??_C@_0P@COAKLPOI@generic_dither@ 0000000180089390     libmpg123:optimize.obj
 0002:000123a0       ??_C@_04OMAFGPMM@i386@     00000001800893a0     libmpg123:optimize.obj
 0002:000123a8       ??_C@_04HBNCFHHF@i486@     00000001800893a8     libmpg123:optimize.obj
 0002:000123b0       ??_C@_04MJGODABA@i586@     00000001800893b0     libmpg123:optimize.obj
 0002:000123b8       ??_C@_0M@DDDCKPJB@i586_dither@ 00000001800893b8     libmpg123:optimize.obj
 0002:000123c4       ??_C@_05DJJOJJPE@3DNow@    00000001800893c4     libmpg123:optimize.obj
 0002:000123d0       ??_C@_08LIICHJDA@3DNowExt@ 00000001800893d0     libmpg123:optimize.obj
 0002:000123e0       ??_C@_07NJMHPPEO@AltiVec@  00000001800893e0     libmpg123:optimize.obj
 0002:000123e8       ??_C@_03OEPHKLAG@SSE@      00000001800893e8     libmpg123:optimize.obj
 0002:000123ec       ??_C@_06LCMIGLBN@x86?964@  00000001800893ec     libmpg123:optimize.obj
 0002:000123f4       ??_C@_03NHPMNECN@ARM@      00000001800893f4     libmpg123:optimize.obj
 0002:000123f8       ??_C@_04GHOIOOLD@NEON@     00000001800893f8     libmpg123:optimize.obj
 0002:00012400       ??_C@_05NDCJIBBB@nodec@    0000000180089400     libmpg123:optimize.obj
 0002:00012410       ??_C@_0LB@IOOAGCAB@?$FLd?3?2project?2alexa?5mirror?2alexa?5@ 0000000180089410     libmpg123:optimize.obj
 0002:000124d0       ??_C@_0LA@HCCBGDBE@?$FLd?3?2project?2alexa?5mirror?2alexa?5@ 00000001800894d0     libmpg123:optimize.obj
 0002:00012580       ??_C@_0LH@GNAPILAE@?$FLd?3?2project?2alexa?5mirror?2alexa?5@ 0000000180089580     libmpg123:optimize.obj
 0002:00012640       ??_C@_0IP@DMDEKFED@?$FLd?3?2project?2alexa?5mirror?2alexa?5@ 0000000180089640     libmpg123:optimize.obj
 0002:000126d0       ??_C@_0IP@LDGEAHPJ@?$FLd?3?2project?2alexa?5mirror?2alexa?5@ 00000001800896d0     libmpg123:optimize.obj
 0002:00012760       ??_C@_0N@GJHDCDKJ@Decoder?3?5?$CFs?6@ 0000000180089760     libmpg123:optimize.obj
 0002:00012770       ??_C@_0JF@LKDCKCHP@?$FLd?3?2project?2alexa?5mirror?2alexa?5@ 0000000180089770     libmpg123:frame.obj
 0002:00012810       ??_C@_0JM@OOIHACHA@?$FLd?3?2project?2alexa?5mirror?2alexa?5@ 0000000180089810     libmpg123:frame.obj
 0002:000128b0       ??_C@_0JH@EAEEABI@?$FLd?3?2project?2alexa?5mirror?2alexa?5@ 00000001800898b0     libmpg123:frame.obj
 0002:00012948       ??_C@_0BO@EEJILHCB@Note?3?5doing?5RVA?5with?5gain?5?$CFf?6@ 0000000180089948     libmpg123:frame.obj
 0002:00012970       ??_C@_0LM@LAELGDEH@?$FLd?3?2project?2alexa?5mirror?2alexa?5@ 0000000180089970     libmpg123:frame.obj
 0002:00012a30       ??_C@_0IC@HFOHLLJC@?$FLd?3?2project?2alexa?5mirror?2alexa?5@ 0000000180089a30     libmpg123:index.obj
 0002:00012ab4       ??_C@_04JEJHKEED@TIT2@     0000000180089ab4     libmpg123:id3.obj
 0002:00012abc       ??_C@_04GMCJAHJC@TALB@     0000000180089abc     libmpg123:id3.obj
 0002:00012ac4       ??_C@_04IPEPCGNC@TPE1@     0000000180089ac4     libmpg123:id3.obj
 0002:00012acc       ??_C@_04LMJHFBDM@TYER@     0000000180089acc     libmpg123:id3.obj
 0002:00012ad4       ??_C@_04GINDDOEM@TCON@     0000000180089ad4     libmpg123:id3.obj
 0002:00012ae0       ??_C@_0JE@LGJAFKJK@?$FLd?3?2project?2alexa?5mirror?2alexa?5@ 0000000180089ae0     libmpg123:id3.obj
 0002:00012b80       ??_C@_0KI@IEFFNNI@?$FLd?3?2project?2alexa?5mirror?2alexa?5@ 0000000180089b80     libmpg123:id3.obj
 0002:00012c30       ??_C@_0JM@KCNDLOAP@?$FLd?3?2project?2alexa?5mirror?2alexa?5@ 0000000180089c30     libmpg123:id3.obj
 0002:00012cd0       ??_C@_0NJ@BGMACKNN@?$FLd?3?2project?2alexa?5mirror?2alexa?5@ 0000000180089cd0     libmpg123:id3.obj
 0002:00012db0       ??_C@_07OIFGCLOM@Latin?51@ 0000000180089db0     libmpg123:id3.obj
 0002:00012db8       ??_C@_0L@PAGPBKBM@UTF?916?5BOM@ 0000000180089db8     libmpg123:id3.obj
 0002:00012dc8       ??_C@_09JCALINDH@UTF?916?5BE@ 0000000180089dc8     libmpg123:id3.obj
 0002:00012dd4       ??_C@_05EGJIMALK@UTF?98@   0000000180089dd4     libmpg123:id3.obj
 0002:00012de0       ??_C@_08POLACCAH@unknown?$CB@ 0000000180089de0     libmpg123:id3.obj
 0002:00012df0       ??_C@_0CF@IOFFJPFJ@Note?3?5Storing?5text?5from?5?$CFs?5enco@ 0000000180089df0     libmpg123:id3.obj
 0002:00012e20       ??_C@_0ID@NACDECKG@?$FLd?3?2project?2alexa?5mirror?2alexa?5@ 0000000180089e20     libmpg123:id3.obj
 0002:00012ea8       ??_C@_0CF@EOOPGNF@Note?3?5ID3v2?5?$CFc?$CFc?$CFc?$CFc?5text?5frame@ 0000000180089ea8     libmpg123:id3.obj
 0002:00012ed0       ??_C@_0JM@GANHHMFE@?$FLd?3?2project?2alexa?5mirror?2alexa?5@ 0000000180089ed0     libmpg123:id3.obj
 0002:00012f70       ??_C@_0CI@JCLLDDIO@Note?3?5Storing?5comment?5from?5?$CFs?5e@ 0000000180089f70     libmpg123:id3.obj
 0002:00012fa0       ??_C@_0IG@PENKOBML@?$FLd?3?2project?2alexa?5mirror?2alexa?5@ 0000000180089fa0     libmpg123:id3.obj
 0002:00013030       ??_C@_0IN@GICCFBPL@?$FLd?3?2project?2alexa?5mirror?2alexa?5@ 000000018008a030     libmpg123:id3.obj
 0002:000130c0       ??_C@_0CJ@JPPNAMLH@Note?3?5ID3?5comm?1uslt?5desc?5of?5len@ 000000018008a0c0     libmpg123:id3.obj
 0002:000130f0       ??_C@_0CJ@LBGDNDAL@Note?3?5ID3?5comm?1uslt?5text?5of?5len@ 000000018008a0f0     libmpg123:id3.obj
 0002:0001311c       ??_C@_03DDBHAGPA@rva@      000000018008a11c     libmpg123:id3.obj
 0002:00013120       ??_C@_07OLFHPLAA@rva_mix@  000000018008a120     libmpg123:id3.obj
 0002:00013128       ??_C@_09PIAPOKAD@rva_track@ 000000018008a128     libmpg123:id3.obj
 0002:00013138       ??_C@_09FHDDFEKM@rva_radio@ 000000018008a138     libmpg123:id3.obj
 0002:00013148       ??_C@_09CIIAIHGC@rva_album@ 000000018008a148     libmpg123:id3.obj
 0002:00013158       ??_C@_0P@IGDHNNAC@rva_audiophile@ 000000018008a158     libmpg123:id3.obj
 0002:00013168       ??_C@_08GGCIBHBE@rva_user@ 000000018008a168     libmpg123:id3.obj
 0002:00013178       ??_C@_0BG@GOHMJNID@Note?3?5RVA?5value?5?$CFfdB?6@ 000000018008a178     libmpg123:id3.obj
 0002:00013190       ??_C@_0CG@CANBKPAO@Note?3?5Storing?5extra?5from?5?$CFs?5enc@ 000000018008a190     libmpg123:id3.obj
 0002:000131c0       ??_C@_0JB@JHBGLKCN@?$FLd?3?2project?2alexa?5mirror?2alexa?5@ 000000018008a1c0     libmpg123:id3.obj
 0002:00013260       ??_C@_0IJ@DGPPPCCH@?$FLd?3?2project?2alexa?5mirror?2alexa?5@ 000000018008a260     libmpg123:id3.obj
 0002:000132f0       ??_C@_0BC@HFGFFAPH@replaygain_track_@ 000000018008a2f0     libmpg123:id3.obj
 0002:00013308       ??_C@_0CG@LHFMHPFF@Note?3?5RVA?5ReplayGain?5track?5gain@ 000000018008a308     libmpg123:id3.obj
 0002:00013330       ??_C@_0BG@HFNOOOHK@replaygain_track_peak@ 000000018008a330     libmpg123:id3.obj
 0002:00013348       ??_C@_0BG@FLBIJHEC@replaygain_track_gain@ 000000018008a348     libmpg123:id3.obj
 0002:00013360       ??_C@_0BC@EPAAIOFE@replaygain_album_@ 000000018008a360     libmpg123:id3.obj
 0002:00013378       ??_C@_0CG@LNOOAAOP@Note?3?5RVA?5ReplayGain?5album?5gain@ 000000018008a378     libmpg123:id3.obj
 0002:000133a0       ??_C@_0BG@HDJBAGPL@replaygain_album_peak@ 000000018008a3a0     libmpg123:id3.obj
 0002:000133b8       ??_C@_0BG@FNFHHPMD@replaygain_album_gain@ 000000018008a3b8     libmpg123:id3.obj
 0002:000133d0       ??_C@_0BD@PKJHPPNP@Note?3?5RVA?5peak?5?$CFf?6@ 000000018008a3d0     libmpg123:id3.obj
 0002:000133e8       ??_C@_0BF@ELECAJA@Note?3?5RVA?5gain?5?$CFfdB?6@ 000000018008a3e8     libmpg123:id3.obj
 0002:00013400       ??_C@_03GJALCMIF@COM@      000000018008a400     libmpg123:id3.obj
 0002:00013404       ??_C@_03LHEAFPOI@TAL@      000000018008a404     libmpg123:id3.obj
 0002:00013408       ??_C@_03FDHBLMOM@TBP@      000000018008a408     libmpg123:id3.obj
 0002:0001340c       ??_C@_03KNNPLKMH@TCM@      000000018008a40c     libmpg123:id3.obj
 0002:00013410       ??_C@_03JPOJNIEF@TCO@      000000018008a410     libmpg123:id3.obj
 0002:00013414       ??_C@_03GAIFLEFJ@TCR@      000000018008a414     libmpg123:id3.obj
 0002:00013418       ??_C@_03ECFODEO@TDA@       000000018008a418     libmpg123:id3.obj
 0002:0001341c       ??_C@_03IGDOHLBH@TDY@      000000018008a41c     libmpg123:id3.obj
 0002:00013420       ??_C@_03ICHPJFLG@TEN@      000000018008a420     libmpg123:id3.obj
 0002:00013424       ??_C@_03DABENBDE@TFT@      000000018008a424     libmpg123:id3.obj
 0002:00013428       ??_C@_03KAEIDPBB@TIM@      000000018008a428     libmpg123:id3.obj
 0002:0001342c       ??_C@_03GLBFGBHH@TKE@      000000018008a42c     libmpg123:id3.obj
 0002:00013430       ??_C@_03KDGLCPG@TLA@       000000018008a430     libmpg123:id3.obj
 0002:00013434       ??_C@_03GOFKHHPC@TLE@      000000018008a434     libmpg123:id3.obj
 0002:00013438       ??_C@_03DMEBDONF@TMT@      000000018008a438     libmpg123:id3.obj
 0002:0001343c       ??_C@_03IHAAMKP@TOA@       000000018008a43c     libmpg123:id3.obj
 0002:00013440       ??_C@_03EHDBJKGI@TOF@      000000018008a440     libmpg123:id3.obj
 0002:00013444       ??_C@_03LNNOHCOC@TOL@      000000018008a444     libmpg123:id3.obj
 0002:00013448       ??_C@_03GJJPENDN@TOR@      000000018008a448     libmpg123:id3.obj
 0002:0001344c       ??_C@_03DPMFOKLL@TOT@      000000018008a44c     libmpg123:id3.obj
 0002:00013450       ??_C@_03DADFJBBE@TP1@      000000018008a450     libmpg123:id3.obj
 0002:00013454       ??_C@_03BLBIMCNH@TP2@      000000018008a454     libmpg123:id3.obj
 0002:00013458       ??_C@_03CADPDJG@TP3@       000000018008a458     libmpg123:id3.obj
 0002:0001345c       ??_C@_03ENECGFFB@TP4@      000000018008a45c     libmpg123:id3.obj
 0002:00013460       ??_C@_03BPAKOIOC@TPA@      000000018008a460     libmpg123:id3.obj
 0002:00013464       ??_C@_03DECHLLCB@TPB@      000000018008a464     libmpg123:id3.obj
 0002:00013468       ??_C@_03COLIFOAO@TRC@      000000018008a468     libmpg123:id3.obj
 0002:0001346c       ??_C@_03OGGBNEAG@TRK@      000000018008a46c     libmpg123:id3.obj
 0002:00013470       ??_C@_03NFJFNMLD@TSI@      000000018008a470     libmpg123:id3.obj
 0002:00013474       ??_C@_03GFLICGGI@TSS@      000000018008a474     libmpg123:id3.obj
 0002:00013478       ??_C@_03DHDMDJMI@TT1@      000000018008a478     libmpg123:id3.obj
 0002:0001347c       ??_C@_03BMBBGKAL@TT2@      000000018008a47c     libmpg123:id3.obj
 0002:00013480       ??_C@_03FAKFLEK@TT3@       000000018008a480     libmpg123:id3.obj
 0002:00013484       ??_C@_03CGKMFPEO@TXT@      000000018008a484     libmpg123:id3.obj
 0002:00013488       ??_C@_03IKBJBAEC@TXX@      000000018008a488     libmpg123:id3.obj
 0002:0001348c       ??_C@_03HELHBGGJ@TYE@      000000018008a48c     libmpg123:id3.obj
 0002:00013490       ??_C@_04NIGMENML@COMM@     000000018008a490     libmpg123:id3.obj
 0002:00013498       ??_C@_04OMDIOOKH@TBPM@     000000018008a498     libmpg123:id3.obj
 0002:000134a0       ??_C@_04EDPOGNIP@TCOM@     000000018008a4a0     libmpg123:id3.obj
 0002:000134a8       ??_C@_04LMJCABJD@TCOP@     000000018008a4a8     libmpg123:id3.obj
 0002:000134b0       ??_C@_04EPLHNBCE@TDAT@     000000018008a4b0     libmpg123:id3.obj
 0002:000134b8       ??_C@_04PCMBDMDK@TDLY@     000000018008a4b8     libmpg123:id3.obj
 0002:000134c0       ??_C@_04PJNEHFOK@TENC@     000000018008a4c0     libmpg123:id3.obj
 0002:000134c8       ??_C@_04ONGGIKPM@TFLT@     000000018008a4c8     libmpg123:id3.obj
 0002:000134d0       ??_C@_04OHBONDIN@TIME@     000000018008a4d0     libmpg123:id3.obj
 0002:000134d8       ??_C@_04KFHDBHOD@TKEY@     000000018008a4d8     libmpg123:id3.obj
 0002:000134e0       ??_C@_04DKCOADBA@TLAN@     000000018008a4e0     libmpg123:id3.obj
 0002:000134e8       ??_C@_04DNCHKLMM@TLEN@     000000018008a4e8     libmpg123:id3.obj
 0002:000134f0       ??_C@_04HPHECECD@TMED@     000000018008a4f0     libmpg123:id3.obj
 0002:000134f8       ??_C@_04NGILLMHC@TOPE@     000000018008a4f8     libmpg123:id3.obj
 0002:00013500       ??_C@_04CNNELKHL@TOFN@     000000018008a500     libmpg123:id3.obj
 0002:00013508       ??_C@_04CFMALLDL@TOLY@     000000018008a508     libmpg123:id3.obj
 0002:00013510       ??_C@_04DDHIDFEB@TORY@     000000018008a510     libmpg123:id3.obj
 0002:00013518       ??_C@_04BKKNMOHM@TOAL@     000000018008a518     libmpg123:id3.obj
 0002:00013520       ??_C@_04KEGCHFBB@TPE2@     000000018008a520     libmpg123:id3.obj
 0002:00013528       ??_C@_04LNHJEEFA@TPE3@     000000018008a528     libmpg123:id3.obj
 0002:00013530       ??_C@_04PCDINCJH@TPE4@     000000018008a530     libmpg123:id3.obj
 0002:00013538       ??_C@_04NFBDKKCB@TPOS@     000000018008a538     libmpg123:id3.obj
 0002:00013540       ??_C@_04JHHLKPJH@TPUB@     000000018008a540     libmpg123:id3.obj
 0002:00013548       ??_C@_04JJJKCHLN@TSRC@     000000018008a548     libmpg123:id3.obj
 0002:00013550       ??_C@_04LLLPNJI@TRDA@      000000018008a550     libmpg123:id3.obj
 0002:00013558       ??_C@_04PEBLADJH@TRCK@     000000018008a558     libmpg123:id3.obj
 0002:00013560       ??_C@_04BCOJMCDE@TSIZ@     000000018008a560     libmpg123:id3.obj
 0002:00013568       ??_C@_04MOACOKAM@TSSE@     000000018008a568     libmpg123:id3.obj
 0002:00013570       ??_C@_04LPLKPHIA@TIT1@     000000018008a570     libmpg123:id3.obj
 0002:00013578       ??_C@_04INIMJFAC@TIT3@     000000018008a578     libmpg123:id3.obj
 0002:00013580       ??_C@_04OEPMCOLO@TEXT@     000000018008a580     libmpg123:id3.obj
 0002:00013588       ??_C@_04OKDKOOPA@TXXX@     000000018008a588     libmpg123:id3.obj
 0002:00013590       ??_C@_0CD@MKAHHIIM@Translated?5ID3v2?42?5frame?5?$CFs?5to?5@ 000000018008a590     libmpg123:id3.obj
 0002:000135b8       ??_C@_0CM@EBMOFCAF@Ignoring?5untranslated?5ID3v2?42?5f@ 000000018008a5b8     libmpg123:id3.obj
 0002:000135f0       ??_C@_0LI@EGGGLKLC@?$FLd?3?2project?2alexa?5mirror?2alexa?5@ 000000018008a5f0     libmpg123:id3.obj
 0002:000136a8       ??_C@_0CI@EPIBLGHH@Note?3?5ID3v2?4?$CFi?5rev?5?$CFi?5tag?5of?5?$CFl@ 000000018008a6a8     libmpg123:id3.obj
 0002:000136d0       ??_C@_0CM@HKPHPHCH@Note?3?5Skipping?5ID3v2?5tag?5per?5us@ 000000018008a6d0     libmpg123:id3.obj
 0002:00013700       ??_C@_0NB@CHCAKNCO@?$FLd?3?2project?2alexa?5mirror?2alexa?5@ 000000018008a700     libmpg123:id3.obj
 0002:000137e0       ??_C@_0JL@CDIBPCPG@?$FLd?3?2project?2alexa?5mirror?2alexa?5@ 000000018008a7e0     libmpg123:id3.obj
 0002:00013880       ??_C@_0KM@JFBFIBPD@?$FLd?3?2project?2alexa?5mirror?2alexa?5@ 000000018008a880     libmpg123:id3.obj
 0002:00013930       ??_C@_0CC@CJGBCIEO@Note?3?5ID3v2?5?$CFs?5frame?5of?5size?5?$CFl@ 000000018008a930     libmpg123:id3.obj
 0002:00013960       ??_C@_0KO@JJILBMJJ@?$FLd?3?2project?2alexa?5mirror?2alexa?5@ 000000018008a960     libmpg123:id3.obj
 0002:00013a10       ??_C@_0JE@FPELPNBP@?$FLd?3?2project?2alexa?5mirror?2alexa?5@ 000000018008aa10     libmpg123:id3.obj
 0002:00013ab0       ??_C@_0JP@GLLAIEIC@?$FLd?3?2project?2alexa?5mirror?2alexa?5@ 000000018008aab0     libmpg123:id3.obj
 0002:00013b50       ??_C@_0CA@JMPJDLMC@Note?3?5RVA2?5identification?5?$CC?$CFs?$CC?6@ 000000018008ab50     libmpg123:id3.obj
 0002:00013b70       ??_C@_0L@BLJODKGB@audiophile@ 000000018008ab70     libmpg123:id3.obj
 0002:00013b7c       ??_C@_04CCHAHKJA@user@     000000018008ab7c     libmpg123:id3.obj
 0002:00013b90       ??_C@_0IF@LEFCFFJK@?$FLd?3?2project?2alexa?5mirror?2alexa?5@ 000000018008ab90     libmpg123:id3.obj
 0002:00013c20       ??_C@_0JF@JLNEJOGH@?$FLd?3?2project?2alexa?5mirror?2alexa?5@ 000000018008ac20     libmpg123:id3.obj
 0002:00013cc0       ??_C@_0MI@CCDNBOHM@?$FLd?3?2project?2alexa?5mirror?2alexa?5@ 000000018008acc0     libmpg123:id3.obj
 0002:00013d90       ??_C@_0JH@LGHCBEEN@?$FLd?3?2project?2alexa?5mirror?2alexa?5@ 000000018008ad90     libmpg123:id3.obj
 0002:00013e28       ??_C@_06GIIPNMDE@8bit?0?5@ 000000018008ae28     libmpg123:format.obj
 0002:00013e30       ??_C@_08PBOCMAON@stereo?0?5@ 000000018008ae30     libmpg123:format.obj
 0002:00013e3c       ??_C@_06JAMEAFHE@mono?0?5@ 000000018008ae3c     libmpg123:format.obj
 0002:00013e50       ??_C@_0KD@LBKPMOHH@?$FLd?3?2project?2alexa?5mirror?2alexa?5@ 000000018008ae50     libmpg123:format.obj
 0002:00013f00       ??_C@_0KP@GGNNPAPA@?$FLd?3?2project?2alexa?5mirror?2alexa?5@ 000000018008af00     libmpg123:format.obj
 0002:00013fb0       ??_C@_0IJ@MHHNNENN@?$FLd?3?2project?2alexa?5mirror?2alexa?5@ 000000018008afb0     libmpg123:format.obj
 0002:00014040       ??_C@_0BN@NBAGODD@Note?3?5Enabling?5all?5formats?4?6@ 000000018008b040     libmpg123:format.obj
 0002:00014060       ??_C@_0KJ@DBONMICH@?$FLd?3?2project?2alexa?5mirror?2alexa?5@ 000000018008b060     libmpg123:readers.obj
 0002:00014110       ??_C@_0HO@HHCLHPLK@?$FLd?3?2project?2alexa?5mirror?2alexa?5@ 000000018008b110     libmpg123:readers.obj
 0002:00014190       ??_C@_0HN@MCNCCHLO@?$FLd?3?2project?2alexa?5mirror?2alexa?5@ 000000018008b190     libmpg123:readers.obj
 0002:00014210       ??_C@_0HN@LIPPBHHL@?$FLd?3?2project?2alexa?5mirror?2alexa?5@ 000000018008b210     libmpg123:readers.obj
 0002:00014290       ??_C@_0LO@JACFMCIG@?$FLd?3?2project?2alexa?5mirror?2alexa?5@ 000000018008b290     libmpg123:readers.obj
 0002:00014350       ??_C@_0IE@EEGKFKMA@?$FLd?3?2project?2alexa?5mirror?2alexa?5@ 000000018008b350     libmpg123:readers.obj
 0002:000143d4       ??_C@_03FELEIGCD@TAG@      000000018008b3d4     libmpg123:readers.obj
 0002:000143e0       ??_C@_0IN@PENPLGHJ@?$FLd?3?2project?2alexa?5mirror?2alexa?5@ 000000018008b3e0     libmpg123:readers.obj
 0002:00014470       ??_C@_0HL@GOCPBOEB@?$FLd?3?2project?2alexa?5mirror?2alexa?5@ 000000018008b470     libmpg123:readers.obj
 0002:000144f0       ??_C@_0IP@IIIOPGJK@?$FLd?3?2project?2alexa?5mirror?2alexa?5@ 000000018008b4f0     libmpg123:readers.obj
 0002:00014580       ??_C@_0BH@FNIFIPLL@Note?3?5Input?5data?5end?4?6@ 000000018008b580     libmpg123:readers.obj
 0002:000145a0       ??_C@_0HO@EKKKGKNA@?$FLd?3?2project?2alexa?5mirror?2alexa?5@ 000000018008b5a0     libmpg123:readers.obj
 0002:00014620       ??_C@_0JG@PFKFMJFK@?$FLd?3?2project?2alexa?5mirror?2alexa?5@ 000000018008b620     libmpg123:readers.obj
 0002:000146c0       ??_C@_0IP@BHMAFDJA@?$FLd?3?2project?2alexa?5mirror?2alexa?5@ 000000018008b6c0     libmpg123:readers.obj
 0002:00014750       ??_C@_0CP@INHFFCOL@Truncating?5stereo?5boundary?5to?5s@ 000000018008b750     libmpg123:layer2.obj
 0002:00014780       ??_C@_0BP@CPJPHBLB@Init?5rate?5converter?3?5?$CFld?9?$DO?$CFld?6@ 000000018008b780     libmpg123:ntom.obj
 0002:000147a0       ??_C@_0IH@GMACAPBF@?$FLd?3?2project?2alexa?5mirror?2alexa?5@ 000000018008b7a0     libmpg123:ntom.obj
 0002:00014830       ??_C@_0JE@MIKLKJAH@?$FLd?3?2project?2alexa?5mirror?2alexa?5@ 000000018008b830     libmpg123:ntom.obj
 0002:000148c8       ??_C@_0DH@BLNOIOAL@Note?3?5missing?5?$CFd?5bytes?5in?5bit?5r@ 000000018008b8c8     libmpg123:layer3.obj
 0002:00014900       ??_C@_0IB@DABBAPAK@?$FLd?3?2project?2alexa?5mirror?2alexa?5@ 000000018008b900     libmpg123:layer3.obj
 0002:00014990       ??_C@_0KB@OIPKMDPH@?$FLd?3?2project?2alexa?5mirror?2alexa?5@ 000000018008b990     libmpg123:layer3.obj
 0002:00014a40       ??_C@_0IP@KJAFLLOB@?$FLd?3?2project?2alexa?5mirror?2alexa?5@ 000000018008ba40     libmpg123:layer3.obj
 0002:00014ad0       ??_C@_0JE@LKJHILNM@?$FLd?3?2project?2alexa?5mirror?2alexa?5@ 000000018008bad0     libmpg123:layer3.obj
 0002:00014b70       ??_C@_0IC@FEEFJMND@?$FLd?3?2project?2alexa?5mirror?2alexa?5@ 000000018008bb70     libmpg123:layer3.obj
 0002:00014bf8       ??_C@_0CG@FEBNNJJD@Note?3?5Xing?1Lame?1Info?5header?5det@ 000000018008bbf8     libmpg123:parse.obj
 0002:00014c20       ??_C@_0EC@KFGMJMIO@Note?3?5Ignoring?5Xing?5frames?5beca@ 000000018008bc20     libmpg123:parse.obj
 0002:00014c68       ??_C@_0BI@HIACKKG@Note?3?5Xing?3?5?$CFlu?5frames?6@ 000000018008bc68     libmpg123:parse.obj
 0002:00014c80       ??_C@_0EB@EEAHJKFO@Note?3?5Ignoring?5Xing?5bytes?5becau@ 000000018008bc80     libmpg123:parse.obj
 0002:00014cd0       ??_C@_0EN@IAAKJFKG@Note?3?5Xing?5stream?5size?5?$CFlu?5diff@ 000000018008bcd0     libmpg123:parse.obj
 0002:00014d20       ??_C@_0GG@JMOOOEJL@Warning?3?5Xing?5stream?5size?5off?5b@ 000000018008bd20     libmpg123:parse.obj
 0002:00014d88       ??_C@_0BH@BIFBKPKK@Note?3?5Xing?3?5?$CFlu?5bytes?6@ 000000018008bd88     libmpg123:parse.obj
 0002:00014da0       ??_C@_0BL@OJACMGJP@Note?3?5Xing?3?5quality?5?$DN?5?$CFlu?6@ 000000018008bda0     libmpg123:parse.obj
 0002:00014dc0       ??_C@_0BJ@IEIKGDMO@Note?3?5Info?3?5Encoder?3?5?$CFs?6@ 000000018008bdc0     libmpg123:parse.obj
 0002:00014ddc       ??_C@_04HCDKCHCB@LAME@     000000018008bddc     libmpg123:parse.obj
 0002:00014de8       ??_C@_07MHOJIJIK@?$CFu?4?$CFu?$CFs@ 000000018008bde8     libmpg123:parse.obj
 0002:00014df0       ??_C@_0EC@JPDBPJCK@Note?3?5Info?3?5Old?5LAME?5detected?0?5@ 000000018008bdf0     libmpg123:parse.obj
 0002:00014e38       ??_C@_0CM@JFPLNMFH@Note?3?5Info?3?5Cannot?5determine?5LA@ 000000018008be38     libmpg123:parse.obj
 0002:00014e68       ??_C@_0BE@MKDNHGDN@Note?3?5Info?3?5rev?5?$CFu?6@ 000000018008be68     libmpg123:parse.obj
 0002:00014e80       ??_C@_0BJ@PLMCCNHP@Note?3?5Info?3?5vbr?5mode?5?$CFu?6@ 000000018008be80     libmpg123:parse.obj
 0002:00014ea0       ??_C@_0CK@LAJHGKOA@Note?3?5Info?3?5peak?5?$DN?5?$CFf?5?$CII?5won?8t?5@ 000000018008bea0     libmpg123:parse.obj
 0002:00014ed0       ??_C@_0CD@EHPANFLH@Note?3?5Info?3?5Radio?5Gain?5?$DN?5?$CF03?41f@ 000000018008bed0     libmpg123:parse.obj
 0002:00014ef8       ??_C@_0CI@CGOOAFPL@Note?3?5Info?3?5Audiophile?5Gain?5?$DN?5?$CF@ 000000018008bef8     libmpg123:parse.obj
 0002:00014f20       ??_C@_0BL@EDBCALD@Note?3?5Info?3?5ABR?5rate?5?$DN?5?$CFu?6@ 000000018008bf20     libmpg123:parse.obj
 0002:00014f40       ??_C@_0CI@KDLOPFBJ@Note?3?5Encoder?5delay?5?$DN?5?$CFi?$DL?5paddi@ 000000018008bf40     libmpg123:parse.obj
 0002:00014f70       ??_C@_0FN@OAHCNBGM@?6Warning?3?5Encountered?5more?5data@ 000000018008bf70     libmpg123:parse.obj
 0002:00014fd0       ??_C@_0LL@MIDJEKLM@?$FLd?3?2project?2alexa?5mirror?2alexa?5@ 000000018008bfd0     libmpg123:parse.obj
 0002:00015090       ??_C@_0LF@GDKALGCE@?$FLd?3?2project?2alexa?5mirror?2alexa?5@ 000000018008c090     libmpg123:parse.obj
 0002:00015148       ??_C@_0CC@LODMHIBJ@Note?3?5free?5format?5frame?5size?5?$CFl@ 000000018008c148     libmpg123:parse.obj
 0002:00015170       ??_C@_0KK@PKFHNJHJ@?$FLd?3?2project?2alexa?5mirror?2alexa?5@ 000000018008c170     libmpg123:parse.obj
 0002:00015220       ??_C@_0JF@CEGACBCB@?$FLd?3?2project?2alexa?5mirror?2alexa?5@ 000000018008c220     libmpg123:parse.obj
 0002:000152c0       ??_C@_0IB@FLACPIGJ@?$FLd?3?2project?2alexa?5mirror?2alexa?5@ 000000018008c2c0     libmpg123:parse.obj
 0002:00015350       ??_C@_0HH@PFFNMMDI@?$FLd?3?2project?2alexa?5mirror?2alexa?5@ 000000018008c350     libmpg123:parse.obj
 0002:000153d0       ??_C@_0HM@MAGPBLNH@?$FLd?3?2project?2alexa?5mirror?2alexa?5@ 000000018008c3d0     libmpg123:parse.obj
 0002:00015450       ??_C@_0KA@IIPHACDK@?$FLd?3?2project?2alexa?5mirror?2alexa?5@ 000000018008c450     libmpg123:parse.obj
 0002:000154f0       ??_C@_0IE@JINOOKPC@?$FLd?3?2project?2alexa?5mirror?2alexa?5@ 000000018008c4f0     libmpg123:parse.obj
 0002:00015578       ??_C@_0CH@GCENMFDO@Note?3?5Junk?5at?5the?5beginning?5?$CI0x@ 000000018008c578     libmpg123:parse.obj
 0002:000155a0       ??_C@_0CB@ECCJEMLC@Note?3?5Looks?5like?5a?5RIFF?5header?4@ 000000018008c5a0     libmpg123:parse.obj
 0002:000155c8       ??_C@_0BM@CBJLOCCO@Note?3?5Skipped?5RIFF?5header?$CB?6@ 000000018008c5c8     libmpg123:parse.obj
 0002:000155f0       ??_C@_0KJ@LPEBLHKJ@?$FLd?3?2project?2alexa?5mirror?2alexa?5@ 000000018008c5f0     libmpg123:parse.obj
 0002:000156a0       ??_C@_0BK@DLCCMMDH@Note?3?5Skipped?5ID3v1?5tag?4?6@ 000000018008c6a0     libmpg123:parse.obj
 0002:000156c0       ??_C@_0DI@LKIBEBJA@Note?3?5Illegal?5Audio?9MPEG?9Header@ 000000018008c6c0     libmpg123:parse.obj
 0002:000156f8       ??_C@_0CB@KNBDGNJH@Note?3?5Could?5be?5a?5BMP?5album?5art?4@ 000000018008c6f8     libmpg123:parse.obj
 0002:00015720       ??_C@_0BL@OELPIEFH@Note?3?5Trying?5to?5resync?4?4?4?6@ 000000018008c720     libmpg123:parse.obj
 0002:00015740       ??_C@_0DC@PEOGLKLI@Note?3?5Hit?5end?5of?5?$CIavailable?$CJ?5da@ 000000018008c740     libmpg123:parse.obj
 0002:00015778       ??_C@_0CD@DFPHHCBE@Note?3?5Skipped?5?$CFli?5bytes?5in?5inpu@ 000000018008c778     libmpg123:parse.obj
 0002:000157a0       ??_C@_0NE@DALLDALO@?$FLd?3?2project?2alexa?5mirror?2alexa?5@ 000000018008c7a0     libmpg123:parse.obj
 0002:00015880       ??_C@_0IG@EJOILMLD@?$FLd?3?2project?2alexa?5mirror?2alexa?5@ 000000018008c880     libmpg123:parse.obj
 0002:00015910       ??_C@_0JE@KGKOLMDD@?$FLd?3?2project?2alexa?5mirror?2alexa?5@ 000000018008c910     libmpg123:tabinit.obj
 0002:000159b0       ??_C@_0HM@CEPKNAAD@?$FLd?3?2project?2alexa?5mirror?2alexa?5@ 000000018008c9b0     libmpg123:tabinit.obj
 0002:00015a2c       __real@1e3ce508            000000018008ca2c     libmp3lame:quantize.obj
 0002:00015a30       __real@2433c3fe            000000018008ca30     libmp3lame:encoder.obj
 0002:00015a34       __real@25800000            000000018008ca34     libmp3lame:quantize_pvt.obj
 0002:00015a38       __real@283424dc            000000018008ca38     libmp3lame:quantize_pvt.obj
 0002:00015a3c       __real@2b8cbccc            000000018008ca3c     libmp3lame:quantize.obj
 0002:00015a40       __real@38000000            000000018008ca40     libmpg123:synth_real.obj
 0002:00015a48       __real@3841039d428a8b8f    000000018008ca48     libmp3lame:gain_analysis.obj
 0002:00015a50       __real@38800000            000000018008ca50     libmp3lame:util.obj
 0002:00015a54       __real@3951b717            000000018008ca54     libmp3lame:presets.obj
 0002:00015a58       __real@3a03126f            000000018008ca58     libmp3lame:presets.obj
 0002:00015a5c       __real@3a1d4952            000000018008ca5c     libmp3lame:presets.obj
 0002:00015a60       __real@3a6bedfa            000000018008ca60     libmp3lame:presets.obj
 0002:00015a64       __real@3a800000            000000018008ca64     libmp3lame:psymodel.obj
 0002:00015a68       __real@3b000000            000000018008ca68     libmp3lame:util.obj
 0002:00015a6c       __real@3b727b46            000000018008ca6c     libmp3lame:newmdct.obj
 0002:00015a70       __real@3bc79ca10c924223    000000018008ca70     libmp3lame:lame.obj
 0002:00015a78       __real@3c68a11d            000000018008ca78     libmp3lame:newmdct.obj
 0002:00015a7c       __real@3c800000            000000018008ca7c     libmp3lame:psymodel.obj
 0002:00015a80       __real@3cb0000000000000    000000018008ca80     libmp3lame:quantize_pvt.obj
 0002:00015a88       __real@3ccccccd            000000018008ca88     libmp3lame:quantize_pvt.obj
 0002:00015a8c       __real@3d000000            000000018008ca8c     libmp3lame:encoder.obj
 0002:00015a90       __real@3d27cb87            000000018008ca90     libmp3lame:newmdct.obj
 0002:00015a94       __real@3d4ccccd            000000018008ca94     libmp3lame:quantize_pvt.obj
 0002:00015a98       __real@3d71979980000000    000000018008ca98     libmp3lame:quantize_pvt.obj
 0002:00015aa0       __real@3d719799812dea11    000000018008caa0     libmp3lame:newmdct.obj
 0002:00015aa8       __real@3da3bc67458a22d1    000000018008caa8     libmp3lame:psymodel.obj
 0002:00015ab0       __real@3db4f934c242e570    000000018008cab0     libmp3lame:newmdct.obj
 0002:00015ab8       __real@3db4f934c242e573    000000018008cab8     libmp3lame:newmdct.obj
 0002:00015ac0       __real@3db6c2786cb19c4f    000000018008cac0     libmp3lame:newmdct.obj
 0002:00015ac8       __real@3dc1b01d            000000018008cac8     libmp3lame:newmdct.obj
 0002:00015acc       __real@3dcccccd            000000018008cacc     libmp3lame:quantize_pvt.obj
 0002:00015ad0       __real@3dd4e054            000000018008cad0     libmp3lame:encoder.obj
 0002:00015ad8       __real@3ddb7cdfd9d7bdbb    000000018008cad8     libmp3lame:gain_analysis.obj
 0002:00015ae0       __real@3e06cfea            000000018008cae0     libmp3lame:newmdct.obj
 0002:00015ae8       __real@3e112e0be826d695    000000018008cae8     libmp3lame:util.obj
 0002:00015af0       __real@3e1fa82f            000000018008caf0     libmp3lame:encoder.obj
 0002:00015af4       __real@3e31d0d4            000000018008caf4     libmp3lame:newmdct.obj
 0002:00015af8       __real@3e3851ec            000000018008caf8     libmp3lame:psymodel.obj
 0002:00015afc       __real@3e3a4774            000000018008cafc     libmp3lame:newmdct.obj
 0002:00015b00       __real@3e41bf59            000000018008cb00     libmp3lame:encoder.obj
 0002:00015b04       __real@3e5d6cf8            000000018008cb04     libmp3lame:encoder.obj
 0002:00015b08       __real@3e6f7c46            000000018008cb08     libmp3lame:encoder.obj
 0002:00015b0c       __real@3e800000            000000018008cb0c     libmp3lame:psymodel.obj
 0002:00015b10       __real@3ea07302            000000018008cb10     libmp3lame:newmdct.obj
 0002:00015b14       __real@3eaf1d44            000000018008cb14     libmp3lame:newmdct.obj
 0002:00015b18       __real@3eb0c6f7a0000000    000000018008cb18     libmp3lame:lame.obj
 0002:00015b20       __real@3eb851ec            000000018008cb20     libmp3lame:psymodel.obj
 0002:00015b24       __real@3ed413cd            000000018008cb24     libmp3lame:newmdct.obj
 0002:00015b28       __real@3ef186da            000000018008cb28     libmp3lame:newmdct.obj
 0002:00015b2c       __real@3f000000            000000018008cb2c     libmp3lame:newmdct.obj
 0002:00015b30       __real@3f00000000000000    000000018008cb30     libmpg123:tabinit.obj
 0002:00015b38       __real@3f012a30            000000018008cb38     libmp3lame:encoder.obj
 0002:00015b3c       __real@3f03b5fe            000000018008cb3c     libmp3lame:newmdct.obj
 0002:00015b40       __real@3f1837b4            000000018008cb40     libmp3lame:takehiro.obj
 0002:00015b48       __real@3f1a36e2eb1c432d    000000018008cb48     libmp3lame:util.obj
 0002:00015b50       __real@3f248dbb            000000018008cb50     libmp3lame:newmdct.obj
 0002:00015b54       __real@3f3504f3            000000018008cb54     libmp3lame:quantize.obj
 0002:00015b58       __real@3f41bf48            000000018008cb58     libmp3lame:encoder.obj
 0002:00015b5c       __real@3f441b7d            000000018008cb5c     libmp3lame:newmdct.obj
 0002:00015b60       __real@3f446f8b            000000018008cb60     libmp3lame:newmdct.obj
 0002:00015b68       __real@3f447ae147ae147b    000000018008cb68     libmp3lame:encoder.obj
 0002:00015b70       __real@3f50624dd2f1a9fc    000000018008cb70     libmp3lame:util.obj
 0002:00015b78       __real@3f5b84a8            000000018008cb78     libmp3lame:newmdct.obj
 0002:00015b7c       __real@3f5db3d7            000000018008cb7c     libmp3lame:newmdct.obj
 0002:00015b80       __real@3f61b9d8            000000018008cb80     libmp3lame:newmdct.obj
 0002:00015b84       __real@3f666666            000000018008cb84     libmp3lame:quantize.obj
 0002:00015b88       __real@3f6f7c46            000000018008cb88     libmp3lame:encoder.obj
 0002:00015b90       __real@3f70000000000000    000000018008cb90     libmpg123:frame.obj
 0002:00015b98       __real@3f708fb2            000000018008cb98     libmp3lame:newmdct.obj
 0002:00015b9c       __real@3f731add            000000018008cb9c     libmp3lame:newmdct.obj
 0002:00015ba0       __real@3f7851ec            000000018008cba0     libmp3lame:presets.obj
 0002:00015ba4       __real@3f7bba81            000000018008cba4     libmp3lame:newmdct.obj
 0002:00015ba8       __real@3f7c1c5c            000000018008cba8     libmp3lame:newmdct.obj
 0002:00015bac       __real@3f7eda41            000000018008cbac     libmp3lame:newmdct.obj
 0002:00015bb0       __real@3f7fc8fd            000000018008cbb0     libmp3lame:newmdct.obj
 0002:00015bb4       __real@3f7fdf3b            000000018008cbb4     libmp3lame:util.obj
 0002:00015bb8       __real@3f7ff965            000000018008cbb8     libmp3lame:newmdct.obj
 0002:00015bbc       __real@3f7fff8d            000000018008cbbc     libmp3lame:newmdct.obj
 0002:00015bc0       __real@3f800000            000000018008cbc0     libmp3lame:fft.obj
 0002:00015bc4       __real@3f801062            000000018008cbc4     libmp3lame:util.obj
 0002:00015bc8       __real@3f847ae147ae147b    000000018008cbc8     libmp3lame:psymodel.obj
 0002:00015bd0       __real@3f8bafff            000000018008cbd0     libmp3lame:newmdct.obj
 0002:00015bd8       __real@3f964bf964bf964c    000000018008cbd8     libmp3lame:lame.obj
 0002:00015be0       __real@3f9db22d0e560419    000000018008cbe0     libmp3lame:quantize.obj
 0002:00015be8       __real@3fa00000            000000018008cbe8     libmp3lame:presets.obj
 0002:00015bf0       __real@3fa11114663de4a6    000000018008cbf0     libmp3lame:quantize_pvt.obj
 0002:00015bf8       __real@3fa47ae147ae147b    000000018008cbf8     libmp3lame:util.obj
 0002:00015c00       __real@3fa5fed7            000000018008cc00     libmp3lame:quantize.obj
 0002:00015c08       __real@3fa657184ae74487    000000018008cc08     libmpg123:layer3.obj
 0002:00015c10       __real@3fa6d017            000000018008cc10     libmp3lame:newmdct.obj
 0002:00015c18       __real@3fa999999999999a    000000018008cc18     libmp3lame:quantize.obj
 0002:00015c20       __real@3fa99999999999a0    000000018008cc20     libmp3lame:gain_analysis.obj
 0002:00015c28       __real@3fb1eb851eb851ec    000000018008cc28     libmp3lame:quantize.obj
 0002:00015c30       __real@3fb3333333333333    000000018008cc30     libmp3lame:encoder.obj
 0002:00015c38       __real@3fb47ae147ae147b    000000018008cc38     libmp3lame:util.obj
 0002:00015c40       __real@3fb999999999999a    000000018008cc40     libmp3lame:reservoir.obj
 0002:00015c48       __real@3fbeb852            000000018008cc48     libmp3lame:presets.obj
 0002:00015c50       __real@3fc0c152382d7365    000000018008cc50     libmpg123:layer3.obj
 0002:00015c58       __real@3fc1eb851eb851ec    000000018008cc58     libmp3lame:quantize.obj
 0002:00015c60       __real@3fc3333333333333    000000018008cc60     libmp3lame:quantize.obj
 0002:00015c68       __real@3fc657184ae74487    000000018008cc68     libmpg123:layer3.obj
 0002:00015c70       __real@3fc8eb75            000000018008cc70     libmp3lame:newmdct.obj
 0002:00015c78       __real@3fc999999999999a    000000018008cc78     libmp3lame:quantize.obj
 0002:00015c80       __real@3fca3d71            000000018008cc80     libmp3lame:psymodel.obj
 0002:00015c88       __real@3fcd791c5f88dbef    000000018008cc88     libmp3lame:psymodel.obj
 0002:00015c90       __real@3fd0000000000000    000000018008cc90     libmp3lame:quantize_pvt.obj
 0002:00015c98       __real@3fd3333333333333    000000018008cc98     libmp3lame:psymodel.obj
 0002:00015ca0       __real@3fd34413509f79fe    000000018008cca0     libmp3lame:psymodel.obj
 0002:00015ca8       __real@3fd51eb851eb851f    000000018008cca8     libmp3lame:quantize_pvt.obj
 0002:00015cb0       __real@3fd5c28f5c28f5c3    000000018008ccb0     libmp3lame:psymodel.obj
 0002:00015cb8       __real@3fd657184ae74487    000000018008ccb8     libmpg123:layer3.obj
 0002:00015cc0       __real@3fd744fd            000000018008ccc0     libmp3lame:quantize.obj
 0002:00015cc8       __real@3fd78d4fdf3b645a    000000018008ccc8     libmp3lame:quantize.obj
 0002:00015cd0       __real@3fd9999a            000000018008ccd0     libmp3lame:psymodel.obj
 0002:00015cd8       __real@3fdae147ae147ae1    000000018008ccd8     libmp3lame:util.obj
 0002:00015ce0       __real@3fde5604189374bc    000000018008cce0     libmp3lame:psymodel.obj
 0002:00015ce8       __real@3fe0000000000000    000000018008cce8     libmp3lame:newmdct.obj
 0002:00015cf0       __real@3fe0c152382d7365    000000018008ccf0     libmpg123:layer3.obj
 0002:00015cf8       __real@3fe2000000000000    000000018008ccf8     libmp3lame:psymodel.obj
 0002:00015d00       __real@3fe3333333333333    000000018008cd00     libmp3lame:util.obj
 0002:00015d08       __real@3fe4395810624dd3    000000018008cd08     libmp3lame:quantize.obj
 0002:00015d10       __real@3fe44e006a3ab199    000000018008cd10     libmp3lame:takehiro.obj
 0002:00015d18       __real@3fe526403b597262    000000018008cd18     libmp3lame:psymodel.obj
 0002:00015d20       __real@3fe8000000000000    000000018008cd20     libmp3lame:lame.obj
 0002:00015d28       __real@3fe851eb851eb852    000000018008cd28     libmp3lame:util.obj
 0002:00015d30       __real@3fe999999999999a    000000018008cd30     libmp3lame:psymodel.obj
 0002:00015d38       __real@3febb67ae8584cab    000000018008cd38     libmp3lame:newmdct.obj
 0002:00015d40       __real@3feccccccccccccd    000000018008cd40     libmp3lame:reservoir.obj
 0002:00015d48       __real@3fed99999999999a    000000018008cd48     libmp3lame:encoder.obj
 0002:00015d50       __real@3fedc28f5c28f5c3    000000018008cd50     libmp3lame:quantize.obj
 0002:00015d58       __real@3fee666666666666    000000018008cd58     libmp3lame:quantize.obj
 0002:00015d60       __real@3fef0a3d70a3d70a    000000018008cd60     libmp3lame:lame.obj
 0002:00015d68       __real@3ff0000000000000    000000018008cd68     libmpg123:tabinit.obj
 0002:00015d70       __real@3ff0000e5ae1a2f3    000000018008cd70     libmpg123:layer3.obj
 0002:00015d78       __real@3ff000d36f5349ff    000000018008cd78     libmpg123:layer3.obj
 0002:00015d80       __real@3ff006e2a80064aa    000000018008cd80     libmpg123:layer3.obj
 0002:00015d88       __real@3ff024f765fd8adb    000000018008cd88     libmpg123:layer3.obj
 0002:00015d90       __real@3ff08c2f837b4a23    000000018008cd90     libmpg123:layer3.obj
 0002:00015d98       __real@3ff0c152382d7365    000000018008cd98     libmpg123:layer3.obj
 0002:00015da0       __real@3ff170a3d70a3d71    000000018008cda0     libmp3lame:quantize.obj
 0002:00015da8       __real@3ff199999999999a    000000018008cda8     libmp3lame:presets.obj
 0002:00015db0       __real@3ff1be0ded288ce7    000000018008cdb0     libmpg123:layer3.obj
 0002:00015db8       __real@3ff4000000000000    000000018008cdb8     libmp3lame:psymodel.obj
 0002:00015dc0       __real@3ff47ae147ae147b    000000018008cdc0     libmp3lame:quantize.obj
 0002:00015dc8       __real@3ff49460aa64c2f8    000000018008cdc8     libmpg123:layer3.obj
 0002:00015dd0       __real@3ff5555555555555    000000018008cdd0     libmpg123:layer3.obj
 0002:00015dd8       __real@3ff5c28f5c28f5c2    000000018008cdd8     libmpg123:layer3.obj
 0002:00015de0       __real@3ff5e2be            000000018008cde0     libmp3lame:newmdct.obj
 0002:00015de8       __real@3ff6666666666666    000000018008cde8     libmp3lame:quantize.obj
 0002:00015df0       __real@3ff6a09e667f3bcd    000000018008cdf0     libmpg123:layer3.obj
 0002:00015df8       __real@3ff8000000000000    000000018008cdf8     libmp3lame:psymodel.obj
 0002:00015e00       __real@3ff921fb54442d18    000000018008ce00     libmp3lame:lame.obj
 0002:00015e08       __real@3ff9999a            000000018008ce08     libmp3lame:presets.obj
 0002:00015e10       __real@3ffbecde5da115a9    000000018008ce10     libmpg123:layer3.obj
 0002:00015e18       __real@3ffeb7c166fdfe39    000000018008ce18     libmpg123:layer3.obj
 0002:00015e20       __real@40000000            000000018008ce20     libmp3lame:presets.obj
 0002:00015e28       __real@4000000000000000    000000018008ce28     libmpg123:layer3.obj
 0002:00015e30       __real@400226c3bcdbe7ae    000000018008ce30     libmpg123:layer3.obj
 0002:00015e38       __real@4002666666666666    000000018008ce38     libmp3lame:psymodel.obj
 0002:00015e40       __real@40038c35418a5bf6    000000018008ce40     libmpg123:layer3.obj
 0002:00015e48       __real@4004000000000000    000000018008ce48     libmp3lame:psymodel.obj
 0002:00015e50       __real@40047ae147ae147b    000000018008ce50     libmp3lame:quantize.obj
 0002:00015e58       __real@4008000000000000    000000018008ce58     libmpg123:layer2.obj
 0002:00015e60       __real@4008151824c7587e    000000018008ce60     libmp3lame:quantize_pvt.obj
 0002:00015e68       __real@4008cccccccccccd    000000018008ce68     libmp3lame:psymodel.obj
 0002:00015e70       __real@400921fb54442d18    000000018008ce70     libmpg123:tabinit.obj
 0002:00015e78       __real@400b333333333333    000000018008ce78     libmp3lame:util.obj
 0002:00015e80       __real@400c000000000000    000000018008ce80     libmp3lame:util.obj
 0002:00015e88       __real@400d1eb851eb851f    000000018008ce88     libmp3lame:util.obj
 0002:00015e90       __real@40100000            000000018008ce90     libmp3lame:presets.obj
 0002:00015e98       __real@4010000000000000    000000018008ce98     libmp3lame:util.obj
 0002:00015ea0       __real@40134413509f79fe    000000018008cea0     libmp3lame:psymodel.obj
 0002:00015ea8       __real@4014000000000000    000000018008cea8     libmp3lame:presets.obj
 0002:00015eb0       __real@4016000000000000    000000018008ceb0     libmp3lame:quantize.obj
 0002:00015eb8       __real@4018000000000000    000000018008ceb8     libmp3lame:util.obj
 0002:00015ec0       __real@401a827a            000000018008cec0     libmp3lame:newmdct.obj
 0002:00015ec8       __real@401b333333333333    000000018008cec8     libmp3lame:util.obj
 0002:00015ed0       __real@401c000000000000    000000018008ced0     libmp3lame:psymodel.obj
 0002:00015ed8       __real@401e000000000000    000000018008ced8     libmp3lame:psymodel.obj
 0002:00015ee0       __real@40200000            000000018008cee0     libmp3lame:psymodel.obj
 0002:00015ee8       __real@4020000000000000    000000018008cee8     libmp3lame:psymodel.obj
 0002:00015ef0       __real@4021666666666666    000000018008cef0     libmp3lame:util.obj
 0002:00015ef8       __real@4023ff7ced916873    000000018008cef8     libmp3lame:set_get.obj
 0002:00015f00       __real@4024000000000000    000000018008cf00     libmp3lame:psymodel.obj
 0002:00015f08       __real@4026000000000000    000000018008cf08     libmp3lame:quantize.obj
 0002:00015f10       __real@4028000000000000    000000018008cf10     libmpg123:layer3.obj
 0002:00015f18       __real@402a000000000000    000000018008cf18     libmp3lame:quantize.obj
 0002:00015f20       __real@402f000000000000    000000018008cf20     libmp3lame:psymodel.obj
 0002:00015f28       __real@402f9f6e6106ab15    000000018008cf28     libmp3lame:psymodel.obj
 0002:00015f30       __real@4031800000000000    000000018008cf30     libmp3lame:psymodel.obj
 0002:00015f38       __real@4034000000000000    000000018008cf38     libmp3lame:lame.obj
 0002:00015f40       __real@4036000000000000    000000018008cf40     libmp3lame:quantize.obj
 0002:00015f48       __real@4037069e2aa2aa5c    000000018008cf48     libmp3lame:psymodel.obj
 0002:00015f50       __real@4038000000000000    000000018008cf50     libmpg123:layer3.obj
 0002:00015f58       __real@403e000000000000    000000018008cf58     libmp3lame:psymodel.obj
 0002:00015f60       __real@403f000000000000    000000018008cf60     libmp3lame:lame.obj
 0002:00015f68       __real@403ffae147ae147b    000000018008cf68     libmp3lame:encoder.obj
 0002:00015f70       __real@40400000            000000018008cf70     libmp3lame:psymodel.obj
 0002:00015f78       __real@4042000000000000    000000018008cf78     libmpg123:layer3.obj
 0002:00015f80       __real@404afb69            000000018008cf80     libmp3lame:newmdct.obj
 0002:00015f88       __real@404c200000000000    000000018008cf88     libmp3lame:util.obj
 0002:00015f90       __real@4052000000000000    000000018008cf90     libmpg123:layer3.obj
 0002:00015f98       __real@4059000000000000    000000018008cf98     libmpg123:frame.obj
 0002:00015fa0       __real@405a3d71            000000018008cfa0     libmp3lame:util.obj
 0002:00015fa8       __real@405fc00000000000    000000018008cfa8     libmpg123:tabinit.obj
 0002:00015fb0       __real@40600000            000000018008cfb0     libmp3lame:psymodel.obj
 0002:00015fb8       __real@4068000000000000    000000018008cfb8     libmp3lame:psymodel.obj
 0002:00015fc0       __real@406fe00000000000    000000018008cfc0     libmpg123:tabinit.obj
 0002:00015fc8       __real@4070000000000000    000000018008cfc8     libmpg123:tabinit.obj
 0002:00015fd0       __real@4072c00000000000    000000018008cfd0     libmp3lame:quantize.obj
 0002:00015fd8       __real@4074000000000000    000000018008cfd8     libmp3lame:presets.obj
 0002:00015fe0       __real@40800000            000000018008cfe0     libmp3lame:util.obj
 0002:00015fe8       __real@4082000000000000    000000018008cfe8     libmp3lame:psymodel.obj
 0002:00015ff0       __real@4085e00000000000    000000018008cff0     libmp3lame:quantize_pvt.obj
 0002:00015ff8       __real@408ccccd            000000018008cff8     libmp3lame:psymodel.obj
 0002:00016000       __real@408f400000000000    000000018008d000     libmp3lame:gain_analysis.obj
 0002:00016008       __real@40900000            000000018008d008     libmp3lame:presets.obj
 0002:0001600c       __real@409057b9            000000018008d00c     libmp3lame:newmdct.obj
 0002:00016010       __real@40a33333            000000018008d010     libmp3lame:lame.obj
 0002:00016014       __real@40a66666            000000018008d014     libmp3lame:presets.obj
 0002:00016018       __real@40b33333            000000018008d018     libmp3lame:presets.obj
 0002:0001601c       __real@40c00000            000000018008d01c     libmp3lame:psymodel.obj
 0002:00016020       __real@40d30b0000000000    000000018008d020     libmp3lame:lame.obj
 0002:00016028       __real@40d4ff0000000000    000000018008d028     libmp3lame:lame.obj
 0002:00016030       __real@40dfffc000000000    000000018008d030     libmp3lame:lame.obj
 0002:00016038       __real@40e7700000000000    000000018008d038     libmpg123:parse.obj
 0002:00016040       __real@40f3106b            000000018008d040     libmp3lame:newmdct.obj
 0002:00016048       __real@4101940000000000    000000018008d048     libmpg123:parse.obj
 0002:00016050       __real@41040000            000000018008d050     libmp3lame:psymodel.obj
 0002:00016058       __real@410f400000000000    000000018008d058     libmp3lame:psymodel.obj
 0002:00016060       __real@41100000            000000018008d060     libmp3lame:util.obj
 0002:00016064       __real@411ffbe7            000000018008d064     libmp3lame:set_get.obj
 0002:00016068       __real@41200000            000000018008d068     libmp3lame:psymodel.obj
 0002:00016070       __real@412f400000000000    000000018008d070     libmp3lame:psymodel.obj
 0002:00016078       __real@41300000            000000018008d078     libmp3lame:presets.obj
 0002:0001607c       __real@41400000            000000018008d07c     libmp3lame:psymodel.obj
 0002:00016080       __real@41500000            000000018008d080     libmp3lame:psymodel.obj
 0002:00016088       __real@4160000000000000    000000018008d088     libmp3lame:vbrquantize.obj
 0002:00016090       __real@41700000            000000018008d090     libmp3lame:lame.obj
 0002:00016094       __real@41800000            000000018008d094     libmp3lame:psymodel.obj
 0002:00016098       __real@4180cccd            000000018008d098     libmp3lame:util.obj
 0002:0001609c       __real@41840000            000000018008d09c     libmp3lame:lame.obj
 0002:000160a0       __real@41a00000            000000018008d0a0     libmp3lame:psymodel.obj
 0002:000160a4       __real@41b73ae9            000000018008d0a4     libmp3lame:newmdct.obj
 0002:000160a8       __real@41c00000            000000018008d0a8     libmp3lame:util.obj
 0002:000160ac       __real@41c80000            000000018008d0ac     libmp3lame:psymodel.obj
 0002:000160b0       __real@41dfffffffc00000    000000018008d0b0     libmpg123:synth_s32.obj
 0002:000160b8       __real@41efffffffe00000    000000018008d0b8     libmp3lame:id3tag.obj
 0002:000160c0       __real@41f80000            000000018008d0c0     libmp3lame:util.obj
 0002:000160c4       __real@42000000            000000018008d0c4     libmp3lame:lame.obj
 0002:000160c8       __real@42800000            000000018008d0c8     libmp3lame:lame.obj
 0002:000160cc       __real@4281a3d7            000000018008d0cc     libmp3lame:gain_analysis.obj
 0002:000160d0       __real@42b49e12            000000018008d0d0     libmp3lame:quantize_pvt.obj
 0002:000160d4       __real@42bda61e            000000018008d0d4     libmp3lame:quantize_pvt.obj
 0002:000160d8       __real@42c80000            000000018008d0d8     libmp3lame:gain_analysis.obj
 0002:000160dc       __real@42fa0000            000000018008d0dc     libmp3lame:presets.obj
 0002:000160e0       __real@4330000080000000    000000018008d0e0     libmpg123:synth.obj
 0002:000160e8       __real@438c875c            000000018008d0e8     libmp3lame:psymodel.obj
 0002:000160ec       __real@439a88f6            000000018008d0ec     libmp3lame:psymodel.obj
 0002:000160f0       __real@43c00000            000000018008d0f0     libmp3lame:quantize_pvt.obj
 0002:000160f8       __real@43e0000000000000    000000018008d0f8     libmp3lame:gain_analysis.obj
 0002:00016100       __real@43f0000000000000    000000018008d100     node_mpg123.obj
 0002:00016108       __real@442f0000            000000018008d108     libmp3lame:quantize.obj
 0002:0001610c       __real@447a0000            000000018008d10c     libmp3lame:util.obj
 0002:00016110       __real@44900000            000000018008d110     libmp3lame:quantize_pvt.obj
 0002:00016114       __real@45552000            000000018008d114     libmp3lame:util.obj
 0002:00016118       __real@45f00000            000000018008d118     libmp3lame:vbrquantize.obj
 0002:0001611c       __real@46003800            000000018008d11c     libmp3lame:vbrquantize.obj
 0002:00016120       __real@46fffe00            000000018008d120     libmpg123:synth_8bit.obj
 0002:00016124       __real@471c4000            000000018008d124     libmp3lame:psymodel.obj
 0002:00016128       __real@47800000            000000018008d128     libmpg123:synth_s32.obj
 0002:00016130       __real@47efffffe0000000    000000018008d130     libmp3lame:psymodel.obj
 0002:00016138       __real@501502f9            000000018008d138     libmp3lame:psymodel.obj
 0002:0001613c       __real@58635fa9            000000018008d13c     libmp3lame:quantize_pvt.obj
 0002:00016140       __real@5f800000            000000018008d140     libmp3lame:gain_analysis.obj
 0002:00016144       __real@7f7fffff            000000018008d144     libmp3lame:quantize_pvt.obj
 0002:00016148       __real@bb727b46            000000018008d148     libmp3lame:newmdct.obj
 0002:0001614c       __real@bc68a11d            000000018008d14c     libmp3lame:newmdct.obj
 0002:00016150       __real@bd27cb87            000000018008d150     libmp3lame:newmdct.obj
 0002:00016154       __real@bdc1b01d            000000018008d154     libmp3lame:newmdct.obj
 0002:00016158       __real@be31d0d4            000000018008d158     libmp3lame:newmdct.obj
 0002:0001615c       __real@be3a4774            000000018008d15c     libmp3lame:newmdct.obj
 0002:00016160       __real@bea07302            000000018008d160     libmp3lame:newmdct.obj
 0002:00016164       __real@bef186da            000000018008d164     libmp3lame:newmdct.obj
 0002:00016168       __real@bf03b5fe            000000018008d168     libmp3lame:newmdct.obj
 0002:0001616c       __real@bf441b7d            000000018008d16c     libmp3lame:newmdct.obj
 0002:00016170       __real@bf6e4f765fd8adac    000000018008d170     libmpg123:layer3.obj
 0002:00016178       __real@bf800000            000000018008d178     libmp3lame:newmdct.obj
 0002:00016180       __real@bf8d14e3bcd35a86    000000018008d180     libmpg123:layer3.obj
 0002:00016188       __real@bfa4fdf3b645a1cb    000000018008d188     libmpg123:layer3.obj
 0002:00016190       __real@bfa999999999999a    000000018008d190     libmp3lame:quantize.obj
 0002:00016198       __real@bfb851eb851eb852    000000018008d198     libmpg123:layer3.obj
 0002:000161a0       __real@bfb999999999999a    000000018008d1a0     libmp3lame:quantize.obj
 0002:000161a8       __real@bfc3333333333333    000000018008d1a8     libmp3lame:util.obj
 0002:000161b0       __real@bfc7ae147ae147ae    000000018008d1b0     libmpg123:layer3.obj
 0002:000161b8       __real@bfc8000000000000    000000018008d1b8     libmp3lame:quantize_pvt.obj
 0002:000161c0       __real@bfd0000000000000    000000018008d1c0     libmpg123:layer3.obj
 0002:000161c8       __real@bfd3333333333333    000000018008d1c8     libmp3lame:util.obj
 0002:000161d0       __real@bfd51eb851eb851f    000000018008d1d0     libmpg123:layer3.obj
 0002:000161d8       __real@bfe0000000000000    000000018008d1d8     libmpg123:tabinit.obj
 0002:000161e0       __real@bfe11eb851eb851f    000000018008d1e0     libmpg123:layer3.obj
 0002:000161e8       __real@bfe3333333333333    000000018008d1e8     libmpg123:layer3.obj
 0002:000161f0       __real@bfe999999999999a    000000018008d1f0     libmp3lame:util.obj
 0002:000161f8       __real@bff0000000000000    000000018008d1f8     libmpg123:frame.obj
 0002:00016200       __real@bff3333333333333    000000018008d200     libmp3lame:psymodel.obj
 0002:00016208       __real@bff6a09e667f3bcd    000000018008d208     libmp3lame:newmdct.obj
 0002:00016210       __real@c0000000            000000018008d210     libmp3lame:presets.obj
 0002:00016218       __real@c000000000000000    000000018008d218     libmp3lame:quantize_pvt.obj
 0002:00016220       __real@c0026bb1bbb55516    000000018008d220     libmp3lame:psymodel.obj
 0002:00016228       __real@c020800000000000    000000018008d228     libmp3lame:psymodel.obj
 0002:00016230       __real@c024000000000000    000000018008d230     libmp3lame:lame.obj
 0002:00016238       __real@c0900000            000000018008d238     libmp3lame:psymodel.obj
 0002:0001623c       __real@c0b99293            000000018008d23c     libmp3lame:vbrquantize.obj
 0002:00016240       __real@c0d8064000000000    000000018008d240     libmp3lame:lame.obj
 0002:00016248       __real@c0eccccd            000000018008d248     libmp3lame:psymodel.obj
 0002:0001624c       __real@c1700000            000000018008d24c     libmp3lame:presets.obj
 0002:00016250       __real@c1a00000            000000018008d250     libmp3lame:quantize_pvt.obj
 0002:00016254       __real@c2700000            000000018008d254     libmp3lame:psymodel.obj
 0002:00016258       __real@c2c80000            000000018008d258     libmp3lame:quantize_pvt.obj
 0002:0001625c       __real@c6c03200            000000018008d25c     libmp3lame:gain_analysis.obj
 0002:00016260       __real@c7000000            000000018008d260     libmpg123:synth_8bit.obj
 0002:00016264       __real@cf000000            000000018008d264     libmpg123:synth_s32.obj
 0002:00016270       __xmm@000000000000000041400000c1200000 000000018008d270     libmp3lame:presets.obj
 0002:00016280       __xmm@00000000000000010000000100000001 000000018008d280     libmpg123:layer2.obj
 0002:00016290       __xmm@00000000000000020000000200000000 000000018008d290     libmpg123:layer2.obj
 0002:000162a0       __xmm@00000000000000020000000200000002 000000018008d2a0     libmpg123:layer2.obj
 0002:000162b0       __xmm@00000000000000030000000300000000 000000018008d2b0     libmpg123:layer2.obj
 0002:000162c0       __xmm@00000000000000030000000300000003 000000018008d2c0     libmpg123:layer2.obj
 0002:000162d0       __xmm@00000000000000090000000900000008 000000018008d2d0     libmp3lame:presets.obj
 0002:000162e0       __xmm@00000000000000090000000900000028 000000018008d2e0     libmp3lame:presets.obj
 0002:000162f0       __xmm@00000000000000090000000900000050 000000018008d2f0     libmp3lame:presets.obj
 0002:00016300       __xmm@000000003f733333430c000040cccccd 000000018008d300     libmp3lame:presets.obj
 0002:00016310       __xmm@000000003f7333334311000040d33333 000000018008d310     libmp3lame:presets.obj
 0002:00016320       __xmm@000000004060000040a00000c0000000 000000018008d320     libmp3lame:presets.obj
 0002:00016330       __xmm@00000001000000010000000000000000 000000018008d330     libmpg123:layer2.obj
 0002:00016340       __xmm@00000001000000010000000100000001 000000018008d340     libmpg123:layer2.obj
 0002:00016350       __xmm@00000001000000080000000100000004 000000018008d350     libmpg123:layer3.obj
 0002:00016360       __xmm@000000010000000900000009000000a0 000000018008d360     libmp3lame:presets.obj
 0002:00016370       __xmm@00000001000000090000000900000140 000000018008d370     libmp3lame:presets.obj
 0002:00016380       __xmm@00000002000000020000000200000000 000000018008d380     libmpg123:layer2.obj
 0002:00016390       __xmm@00000003000000020000000100000000 000000018008d390     libmpg123:tabinit.obj
 0002:000163a0       __xmm@00000003000000030000000300000000 000000018008d3a0     libmpg123:layer2.obj
 0002:000163b0       __xmm@00000003000000050000000900000002 000000018008d3b0     libmpg123:layer3.obj
 0002:000163c0       __xmm@00000009000000090000001000000001 000000018008d3c0     libmp3lame:presets.obj
 0002:000163d0       __xmm@00000009000000090000003000000001 000000018008d3d0     libmp3lame:presets.obj
 0002:000163e0       __xmm@00000009000000090000006000000001 000000018008d3e0     libmp3lame:presets.obj
 0002:000163f0       __xmm@0000000900000009000000c000000001 000000018008d3f0     libmp3lame:presets.obj
 0002:00016400       __xmm@0000000c000000080000001e0000001b 000000018008d400     libmpg123:layer2.obj
 0002:00016410       __xmm@0000000e0000000e0000000e0000000e 000000018008d410     libmp3lame:vbrquantize.obj
 0002:00016420       __xmm@00000018000000000000001700000016 000000018008d420     libmpg123:layer2.obj
 0002:00016430       __xmm@0000001c0000001c0000001c0000001c 000000018008d430     libmp3lame:vbrquantize.obj
 0002:00016440       __xmm@00000020000000180000001000000008 000000018008d440     libmp3lame:util.obj
 0002:00016450       __xmm@000000240000000c0000002400000024 000000018008d450     libmpg123:layer3.obj
 0002:00016460       __xmm@00000040000000380000003000000028 000000018008d460     libmp3lame:util.obj
 0002:00016470       __xmm@00000040000000400000004000000040 000000018008d470     libmpg123:layer3.obj
 0002:00016480       __xmm@00000080000000700000006000000050 000000018008d480     libmp3lame:util.obj
 0002:00016490       __xmm@000000d2000000d2000000d2000000d2 000000018008d490     libmp3lame:quantize_pvt.obj
 0002:000164a0       __xmm@000000ff000000ff000000ff000000ff 000000018008d4a0     libmp3lame:vbrquantize.obj
 0002:000164b0       __xmm@00000100000000e0000000c0000000a0 000000018008d4b0     libmp3lame:util.obj
 0002:000164c0       __xmm@00000100000001000000010000000100 000000018008d4c0     libmpg123:layer3.obj
 0002:000164d0       __xmm@00000130000001300000013000000130 000000018008d4d0     libmp3lame:encoder.obj
 0002:000164e0       __xmm@00000146000001460000014600000146 000000018008d4e0     libmp3lame:quantize_pvt.obj
 0002:000164f0       __xmm@00000240000002400000024000000240 000000018008d4f0     libmp3lame:encoder.obj
 0002:00016500       __xmm@00000e7400000010000007d000000008 000000018008d500     libmp3lame:lame.obj
 0002:00016510       __xmm@00001000000010000000100000001000 000000018008d510     libmp3lame:vbrquantize.obj
 0002:00016520       __xmm@0000157c0000002000000f3c00000018 000000018008d520     libmp3lame:lame.obj
 0002:00016530       __xmm@00001d4c0000003000001b5800000028 000000018008d530     libmp3lame:lame.obj
 0002:00016540       __xmm@00002af8000000400000271000000038 000000018008d540     libmp3lame:lame.obj
 0002:00016550       __xmm@000038a400003c8c000040740000445c 000000018008d550     libmp3lame:lame.obj
 0002:00016560       __xmm@00003a3400003cf000003e800000445c 000000018008d560     libmp3lame:lame.obj
 0002:00016570       __xmm@00003afc00000060000034bc00000050 000000018008d570     libmp3lame:lame.obj
 0002:00016580       __xmm@00003cf000004074000042680000445c 000000018008d580     libmp3lame:lame.obj
 0002:00016590       __xmm@000042680000008000003cf000000070 000000018008d590     libmp3lame:lame.obj
 0002:000165a0       __xmm@000046500000484400004a3800004c2c 000000018008d5a0     libmp3lame:lame.obj
 0002:000165b0       __xmm@000046500000484400004c2c00005dc0 000000018008d5b0     libmp3lame:lame.obj
 0002:000165c0       __xmm@00004650000048a800004a3800004c2c 000000018008d5c0     libmp3lame:lame.obj
 0002:000165d0       __xmm@000048a8000000c00000445c000000a0 000000018008d5d0     libmp3lame:lame.obj
 0002:000165e0       __xmm@00004cf40000010000004bc8000000e0 000000018008d5e0     libmp3lame:lame.obj
 0002:000165f0       __xmm@00ff00ff00ff00ff00ff00ff00ff00ff 000000018008d5f0     libmpg123:tabinit.obj
 0002:00016600       __xmm@3a378034410000000000000000000000 000000018008d600     libmp3lame:presets.obj
 0002:00016610       __xmm@3a6bedfa41300000c120000000000000 000000018008d610     libmp3lame:presets.obj
 0002:00016620       __xmm@3a9d495241300000c1f0000000000000 000000018008d620     libmp3lame:presets.obj
 0002:00016630       __xmm@3b0000003b0000003b0000003b000000 000000018008d630     libmp3lame:util.obj
 0002:00016640       __xmm@3f500000000000003f50000000000000 000000018008d640     libmp3lame:fft.obj
 0002:00016650       __xmm@3f700000000000003f70000000000000 000000018008d650     libmp3lame:fft.obj
 0002:00016660       __xmm@3f7333334307000040c000003fe51eb8 000000018008d660     libmp3lame:presets.obj
 0002:00016670       __xmm@3f7333334311000040d3333300000000 000000018008d670     libmp3lame:presets.obj
 0002:00016680       __xmm@3f8000003f8000003f8000003f800000 000000018008d680     libmp3lame:util.obj
 0002:00016690       __xmm@3f80000042fa000040a666663f666666 000000018008d690     libmp3lame:presets.obj
 0002:000166a0       __xmm@3fb47ae147ae147b3fb47ae147ae147b 000000018008d6a0     libmp3lame:fft.obj
 0002:000166b0       __xmm@3fd00000000000003fd0000000000000 000000018008d6b0     libmp3lame:quantize_pvt.obj
 0002:000166c0       __xmm@3fdae147ae147ae13fdae147ae147ae1 000000018008d6c0     libmp3lame:fft.obj
 0002:000166d0       __xmm@3fe00000000000003fe0000000000000 000000018008d6d0     libmp3lame:fft.obj
 0002:000166e0       __xmm@3fe80000000000003fe8000000000000 000000018008d6e0     libmp3lame:quantize_pvt.obj
 0002:000166f0       __xmm@3ff00000000000003ff0000000000000 000000018008d6f0     libmpg123:tabinit.obj
 0002:00016700       __xmm@3ff55555555555553ff5555555555555 000000018008d700     libmpg123:layer3.obj
 0002:00016710       __xmm@40000000000000003f73333343110000 000000018008d710     libmp3lame:presets.obj
 0002:00016720       __xmm@40000000000000004000000000000000 000000018008d720     libmpg123:tabinit.obj
 0002:00016730       __xmm@400921fb54442d18400921fb54442d18 000000018008d730     libmpg123:tabinit.obj
 0002:00016740       __xmm@401921fb54442d18401921fb54442d18 000000018008d740     libmp3lame:fft.obj
 0002:00016750       __xmm@402921fb54442d18402921fb54442d18 000000018008d750     libmp3lame:fft.obj
 0002:00016760       __xmm@4040000040e00000c08000003f7851ec 000000018008d760     libmp3lame:presets.obj
 0002:00016770       __xmm@40b000003f800000000000003f733333 000000018008d770     libmp3lame:presets.obj
 0002:00016780       __xmm@4103333340e9999a40d0000040b66666 000000018008d780     libmp3lame:lame.obj
 0002:00016790       __xmm@41100000c0c000003f7ae14842fa0000 000000018008d790     libmp3lame:presets.obj
 0002:000167a0       __xmm@41300000c1200000000000003f733333 000000018008d7a0     libmp3lame:presets.obj
 0002:000167b0       __xmm@41300000c1c80000000000003f733333 000000018008d7b0     libmp3lame:presets.obj
 0002:000167c0       __xmm@41600000000000004160000000000000 000000018008d7c0     libmp3lame:vbrquantize.obj
 0002:000167d0       __xmm@4160000041500000413e666641200000 000000018008d7d0     libmp3lame:lame.obj
 0002:000167e0       __xmm@45f0000045f0000045f0000045f00000 000000018008d7e0     libmp3lame:vbrquantize.obj
 0002:000167f0       __xmm@4b0000004b0000004b0000004b000000 000000018008d7f0     libmp3lame:vbrquantize.obj
 0002:00016800       __xmm@7fffffff7fffffff7fffffff7fffffff 000000018008d800     liblamevectorroutines:xmm_quantize_sub.obj
 0002:00016810       __xmm@7fffffffffffffff7fffffffffffffff 000000018008d810     libmp3lame:vbrquantize.obj
 0002:00016820       __xmm@80000000000000008000000000000000 000000018008d820     libmpg123:tabinit.obj
 0002:00016830       __xmm@80000000800000008000000080000000 000000018008d830     libmpg123:layer3.obj
 0002:00016840       __xmm@80808080808080808080808080808080 000000018008d840     libmpg123:tabinit.obj
 0002:00016850       __xmm@bfc8000000000000bfc8000000000000 000000018008d850     libmp3lame:quantize_pvt.obj
 0002:00016860       __xmm@c0c00000000000003f73333343110000 000000018008d860     libmp3lame:presets.obj
 0002:00016870       __xmm@c10000003f80000042fa000040a66666 000000018008d870     libmp3lame:presets.obj
 0002:00016880       __xmm@c1a00000000000003f73333343110000 000000018008d880     libmp3lame:presets.obj
 0002:0001d338       __real@3c7007887af0cbbc    0000000180094338     libucrt:atan.obj
 0002:0001d340       __real@3c7a2b7f222f65e0    0000000180094340     libucrt:atan.obj
 0002:0001d348       __real@3c81a62633145c06    0000000180094348     libucrt:atan.obj
 0002:0001d350       __real@3c91a62633145c06    0000000180094350     libucrt:atan.obj
 0002:0001d358       __real@3f22a75ce41b9f87    0000000180094358     libucrt:atan.obj
 0002:0001d360       __real@3f9f2d2116f053f2    0000000180094360     libucrt:atan.obj
 0002:0001d368       __real@3fa3f197f1e85ed9    0000000180094368     libucrt:atan.obj
 0002:0001d370       __real@3fcc3de43db425c0    0000000180094370     libucrt:atan.obj
 0002:0001d378       __real@3fd12bcb0a9169f3    0000000180094378     libucrt:atan.obj
 0002:0001d380       __real@3fdb2cb05bf9beff    0000000180094380     libucrt:atan.obj
 0002:0001d388       __real@3fdca6be4c993b3c    0000000180094388     libucrt:atan.obj
 0002:0001d390       __real@3fddac670561bb4f    0000000180094390     libucrt:atan.obj
 0002:0001d398       __real@3fe921fb54442d18    0000000180094398     libucrt:atan.obj
 0002:0001d3a0       __real@3fe9c1b08fda1eec    00000001800943a0     libucrt:atan.obj
 0002:0001d3a8       __real@3fef730bd281f69b    00000001800943a8     libucrt:atan.obj
 0002:0001d3b0       __real@3ff699c644c48d2e    00000001800943b0     libucrt:atan.obj
 0002:0001d3b8       __real@3ffd372a17cdf5a0    00000001800943b8     libucrt:atan.obj
 0002:0001d3c0       __real@43d0dc0000000000    00000001800943c0     libucrt:atan.obj
 0002:0001d3c8       __real@bff921fb54442d18    00000001800943c8     libucrt:atan.obj
 0002:0001f900       __Lcosarray                0000000180096900     libucrt:lsincos_array.obj
 0002:0001f960       __Lsinarray                0000000180096960     libucrt:lsincos_array.obj
 0002:0001fce0       __two_to_jby64_table       0000000180096ce0     libucrt:two_to_jby64_table.obj
 0002:0001fee0       __two_to_jby64_head_table  0000000180096ee0     libucrt:two_to_jby64_head_tail_table.obj
 0002:000200e0       __two_to_jby64_tail_table  00000001800970e0     libucrt:two_to_jby64_head_tail_table.obj
 0002:000202e0       __log_256_lead             00000001800972e0     libucrt:log_256_lead_tail_table.obj
 0002:00020af0       __log_256_tail             0000000180097af0     libucrt:log_256_lead_tail_table.obj
 0002:00021300       __log10_128_lead           0000000180098300     libucrt:log10_128_lead_tail_table.obj
 0002:00021510       __log10_128_tail           0000000180098510     libucrt:log10_128_lead_tail_table.obj
 0002:00021720       __log_F_inv_dword          0000000180098720     libucrt:log_f_inv_dword_table.obj
 0002:00021924       ??_C@_04MBFDLNIM@powf?$AA@ 0000000180098924     libucrt:pow_special.obj
 0002:00021930       __L_2_by_pi_bits           0000000180098930     libucrt:l2_by_pi_bits.obj
 0002:00021a28       ??_R4exception@std@@6B@    0000000180098a28     LIBCMT:throw_bad_alloc.obj
 0002:00021a50       ??_R3exception@std@@8      0000000180098a50     LIBCMT:throw_bad_alloc.obj
 0002:00021a68       ??_R2exception@std@@8      0000000180098a68     LIBCMT:throw_bad_alloc.obj
 0002:00021a78       ??_R1A@?0A@EA@exception@std@@8 0000000180098a78     LIBCMT:throw_bad_alloc.obj
 0002:00021aa0       ??_R4bad_alloc@std@@6B@    0000000180098aa0     LIBCMT:throw_bad_alloc.obj
 0002:00021ac8       ??_R3bad_alloc@std@@8      0000000180098ac8     LIBCMT:throw_bad_alloc.obj
 0002:00021ae0       ??_R2bad_alloc@std@@8      0000000180098ae0     LIBCMT:throw_bad_alloc.obj
 0002:00021af8       ??_R1A@?0A@EA@bad_alloc@std@@8 0000000180098af8     LIBCMT:throw_bad_alloc.obj
 0002:00021b20       ??_R4bad_array_new_length@std@@6B@ 0000000180098b20     LIBCMT:throw_bad_alloc.obj
 0002:00021b48       ??_R3bad_array_new_length@std@@8 0000000180098b48     LIBCMT:throw_bad_alloc.obj
 0002:00021b60       ??_R2bad_array_new_length@std@@8 0000000180098b60     LIBCMT:throw_bad_alloc.obj
 0002:00021b80       ??_R1A@?0A@EA@bad_array_new_length@std@@8 0000000180098b80     LIBCMT:throw_bad_alloc.obj
 0002:00021ba8       ??_R4type_info@@6B@        0000000180098ba8     LIBCMT:std_type_info_static.obj
 0002:00021bd0       ??_R3type_info@@8          0000000180098bd0     LIBCMT:std_type_info_static.obj
 0002:00021be8       ??_R2type_info@@8          0000000180098be8     LIBCMT:std_type_info_static.obj
 0002:00021bf8       ??_R1A@?0A@EA@type_info@@8 0000000180098bf8     LIBCMT:std_type_info_static.obj
 0002:00021ff0       __rtc_iaa                  0000000180098ff0     LIBCMT:initsect.obj
 0002:00021ff8       __rtc_izz                  0000000180098ff8     LIBCMT:initsect.obj
 0002:00022000       __rtc_taa                  0000000180099000     LIBCMT:initsect.obj
 0002:00022008       __rtc_tzz                  0000000180099008     LIBCMT:initsect.obj
 0002:00026178       _TI2?AVbad_alloc@std@@     000000018009d178     LIBCMT:throw_bad_alloc.obj
 0002:00026198       _CTA2?AVbad_alloc@std@@    000000018009d198     LIBCMT:throw_bad_alloc.obj
 0002:000261b0       _CT??_R0?AVbad_alloc@std@@@8??0bad_alloc@std@@QEAA@AEBV01@@Z24 000000018009d1b0     LIBCMT:throw_bad_alloc.obj
 0002:000261d8       _CT??_R0?AVexception@std@@@8??0exception@std@@QEAA@AEBV01@@Z24 000000018009d1d8     LIBCMT:throw_bad_alloc.obj
 0002:00026200       _TI3?AVbad_array_new_length@std@@ 000000018009d200     LIBCMT:throw_bad_alloc.obj
 0002:00026220       _CTA3?AVbad_array_new_length@std@@ 000000018009d220     LIBCMT:throw_bad_alloc.obj
 0002:00026240       _CT??_R0?AVbad_array_new_length@std@@@8??0bad_array_new_length@std@@QEAA@AEBV01@@Z24 000000018009d240     LIBCMT:throw_bad_alloc.obj
 0002:00026264       __DELAY_IMPORT_DESCRIPTOR_node_exe 000000018009d264     node:node.exe
 0002:00026284       __NULL_DELAY_IMPORT_DESCRIPTOR 000000018009d284     node:node.exe
 0002:00026428       \177node_NULL_THUNK_DATA_DLN 000000018009d428     node:node.exe
 0002:00027090       \177node_NULL_THUNK_DATA_DLB 000000018009e090     node:node.exe
 0002:00027264       __IMPORT_DESCRIPTOR_KERNEL32 000000018009e264     kernel32:KERNEL32.dll
 0002:00027278       __NULL_IMPORT_DESCRIPTOR   000000018009e278     kernel32:KERNEL32.dll
 0003:00000000       __security_cookie_complement 000000018009f000     LIBCMT:gs_cookie.obj
 0003:00000008       __security_cookie          000000018009f008     LIBCMT:gs_cookie.obj
 0003:00000010       __scrt_native_dllmain_reason 000000018009f010     LIBCMT:utility.obj
 0003:00000018       __isa_available            000000018009f018     LIBCMT:cpu_disp.obj
 0003:0000001c       __isa_enabled              000000018009f01c     LIBCMT:cpu_disp.obj
 0003:00000020       __memcpy_nt_iters          000000018009f020     LIBCMT:cpu_disp.obj
 0003:00000040       _iob                       000000018009f040     libucrt:_file.obj
 0003:00000160       _lookuptrailbytes          000000018009f160     libucrt:read.obj
 0003:00000260       __abort_behavior           000000018009f260     libucrt:abort.obj
 0003:00000270       __acrt_initial_locale_data 000000018009f270     libucrt:nlsdata.obj
 0003:000003c8       __acrt_initial_locale_pointers 000000018009f3c8     libucrt:nlsdata.obj
 0003:000003d8       __acrt_wide_c_locale_string 000000018009f3d8     libucrt:nlsdata.obj
 0003:000003e0       __badioinfo                000000018009f3e0     libucrt:ioinit.obj
 0003:00000740       __acrt_initial_multibyte_data 000000018009f740     libucrt:mbctype.obj
 0003:00000968       __globallocalestatus       000000018009f968     libucrt:glstatus.obj
 0003:00000970       __acrt_lconv_c             000000018009f970     libucrt:localeconv.obj
 0003:00000a08       __acrt_lconv_static_decimal 000000018009fa08     libucrt:localeconv.obj
 0003:00000a0c       __acrt_lconv_static_W_decimal 000000018009fa0c     libucrt:localeconv.obj
 0003:00000a30       _fltused                   000000018009fa30     LIBCMT:fltused.obj
 0003:00000d00       ??_R0?AVbad_alloc@std@@@8  000000018009fd00     LIBCMT:throw_bad_alloc.obj
 0003:00000d28       ??_R0?AVexception@std@@@8  000000018009fd28     LIBCMT:throw_bad_alloc.obj
 0003:00000d50       ??_R0?AVbad_array_new_length@std@@@8 000000018009fd50     LIBCMT:throw_bad_alloc.obj
 0003:00000d80       ??_R0?AVtype_info@@@8      000000018009fd80     LIBCMT:std_type_info_static.obj
 0003:00000da0       __imp_?GetCurrent@Isolate@v8@@SAPEAV12@XZ 000000018009fda0     node:node.exe
 0003:00000da8       __imp_?New@Object@v8@@SA?AV?$Local@VObject@v8@@@2@PEAVIsolate@2@@Z 000000018009fda8     node:node.exe
 0003:00000db0       __imp_??1HandleScope@v8@@QEAA@XZ 000000018009fdb0     node:node.exe
 0003:00000db8       __imp_??0HandleScope@v8@@QEAA@PEAVIsolate@1@@Z 000000018009fdb8     node:node.exe
 0003:00000dc0       __imp_node_module_register 000000018009fdc0     node:node.exe
 0003:00000dc8       __imp_uv_queue_work        000000018009fdc8     node:node.exe
 0003:00000dd0       __imp_?Global@Context@v8@@QEAA?AV?$Local@VObject@v8@@@2@XZ 000000018009fdd0     node:node.exe
 0003:00000dd8       __imp_?Value@External@v8@@QEBAPEAXXZ 000000018009fdd8     node:node.exe
 0003:00000de0       __imp_?New@External@v8@@SA?AV?$Local@VExternal@v8@@@2@PEAVIsolate@2@PEAX@Z 000000018009fde0     node:node.exe
 0003:00000de8       __imp_?NewFromUnsigned@Integer@v8@@SA?AV?$Local@VInteger@v8@@@2@PEAVIsolate@2@I@Z 000000018009fde8     node:node.exe
 0003:00000df0       __imp_?New@Integer@v8@@SA?AV?$Local@VInteger@v8@@@2@PEAVIsolate@2@H@Z 000000018009fdf0     node:node.exe
 0003:00000df8       __imp_?GetCurrentContext@Isolate@v8@@QEAA?AV?$Local@VContext@v8@@@2@XZ 000000018009fdf8     node:node.exe
 0003:00000e00       __imp_?CreateHandle@HandleScope@v8@@KAPEAPEAVObject@internal@2@PEAVIsolate@42@PEAV342@@Z 000000018009fe00     node:node.exe
 0003:00000e08       __imp_?CreateHandle@HandleScope@v8@@CAPEAPEAVObject@internal@2@PEAVHeapObject@42@PEAV342@@Z 000000018009fe08     node:node.exe
 0003:00000e10       __imp_?New@Array@v8@@SA?AV?$Local@VArray@v8@@@2@PEAVIsolate@2@H@Z 000000018009fe10     node:node.exe
 0003:00000e18       __imp_?SetClassName@FunctionTemplate@v8@@QEAAXV?$Local@VString@v8@@@2@@Z 000000018009fe18     node:node.exe
 0003:00000e20       __imp_?GetFunction@FunctionTemplate@v8@@QEAA?AV?$MaybeLocal@VFunction@v8@@@2@V?$Local@VContext@v8@@@2@@Z 000000018009fe20     node:node.exe
 0003:00000e28       __imp_?New@FunctionTemplate@v8@@SA?AV?$Local@VFunctionTemplate@v8@@@2@PEAVIsolate@2@P6AXAEBV?$FunctionCallbackInfo@VValue@v8@@@2@@ZV?$Local@VValue@v8@@@2@V?$Local@VSignature@v8@@@2@HW4ConstructorBehavior@2@@Z 000000018009fe28     node:node.exe
 0003:00000e30       __imp_?ToLocalEmpty@V8@v8@@CAXXZ 000000018009fe30     node:node.exe
 0003:00000e38       __imp_?DisposeGlobal@V8@v8@@CAXPEAPEAVObject@internal@2@@Z 000000018009fe38     node:node.exe
 0003:00000e40       __imp_?GlobalizeReference@V8@v8@@CAPEAPEAVObject@internal@2@PEAVIsolate@42@PEAPEAV342@@Z 000000018009fe40     node:node.exe
 0003:00000e48       __imp_?Int32Value@Value@v8@@QEBA?AV?$Maybe@H@2@V?$Local@VContext@v8@@@2@@Z 000000018009fe48     node:node.exe
 0003:00000e50       __imp_?Int32Value@Value@v8@@QEBAHXZ 000000018009fe50     node:node.exe
 0003:00000e58       __imp_?NumberValue@Value@v8@@QEBANXZ 000000018009fe58     node:node.exe
 0003:00000e60       __imp_?ToInteger@Value@v8@@QEBA?AV?$MaybeLocal@VInteger@v8@@@2@V?$Local@VContext@v8@@@2@@Z 000000018009fe60     node:node.exe
 0003:00000e68       __imp_?HasCaught@TryCatch@v8@@QEBA_NXZ 000000018009fe68     node:node.exe
 0003:00000e70       __imp_??1TryCatch@v8@@QEAA@XZ 000000018009fe70     node:node.exe
 0003:00000e78       __imp_??0TryCatch@v8@@QEAA@PEAVIsolate@1@@Z 000000018009fe78     node:node.exe
 0003:00000e80       __imp_?Escape@EscapableHandleScope@v8@@AEAAPEAPEAVObject@internal@2@PEAPEAV342@@Z 000000018009fe80     node:node.exe
 0003:00000e88       __imp_??0EscapableHandleScope@v8@@QEAA@PEAVIsolate@1@@Z 000000018009fe88     node:node.exe
 0003:00000e90       __imp_?NewFromUtf8@String@v8@@SA?AV?$MaybeLocal@VString@v8@@@2@PEAVIsolate@2@PEBDW4NewStringType@2@H@Z 000000018009fe90     node:node.exe
 0003:00000e98       __imp_?New@Number@v8@@SA?AV?$Local@VNumber@v8@@@2@PEAVIsolate@2@N@Z 000000018009fe98     node:node.exe
 0003:00000ea0       __imp_?SlowGetInternalField@Object@v8@@AEAA?AV?$Local@VValue@v8@@@2@H@Z 000000018009fea0     node:node.exe
 0003:00000ea8       __imp_?SetInternalField@Object@v8@@QEAAXHV?$Local@VValue@v8@@@2@@Z 000000018009fea8     node:node.exe
 0003:00000eb0       __imp_?ForceSet@Object@v8@@QEAA?AV?$Maybe@_N@2@V?$Local@VContext@v8@@@2@V?$Local@VValue@v8@@@2@1W4PropertyAttribute@2@@Z 000000018009feb0     node:node.exe
 0003:00000eb8       __imp_?Set@Object@v8@@QEAA?AV?$Maybe@_N@2@V?$Local@VContext@v8@@@2@V?$Local@VValue@v8@@@2@1@Z 000000018009feb8     node:node.exe
 0003:00000ec0       __imp_?Set@Object@v8@@QEAA?AV?$Maybe@_N@2@V?$Local@VContext@v8@@@2@IV?$Local@VValue@v8@@@2@@Z 000000018009fec0     node:node.exe
 0003:00000ec8       __imp_?Call@Function@v8@@QEAA?AV?$Local@VValue@v8@@@2@V32@HQEAV32@@Z 000000018009fec8     node:node.exe
 0003:00000ed0       __imp_?SetInternalFieldCount@ObjectTemplate@v8@@QEAAXH@Z 000000018009fed0     node:node.exe
 0003:00000ed8       __imp_?NewInstance@ObjectTemplate@v8@@QEAA?AV?$MaybeLocal@VObject@v8@@@2@V?$Local@VContext@v8@@@2@@Z 000000018009fed8     node:node.exe
 0003:00000ee0       __imp_?New@ObjectTemplate@v8@@SA?AV?$Local@VObjectTemplate@v8@@@2@PEAVIsolate@2@V?$Local@VFunctionTemplate@v8@@@2@@Z 000000018009fee0     node:node.exe
 0003:00000ee8       __imp_?FatalException@node@@YAXPEAVIsolate@v8@@AEBVTryCatch@3@@Z 000000018009fee8     node:node.exe
 0003:00000ef0       __imp_?HasInstance@Buffer@node@@YA_NV?$Local@VValue@v8@@@v8@@@Z 000000018009fef0     node:node.exe
 0003:00000ef8       __imp_?New@Buffer@node@@YA?AV?$MaybeLocal@VObject@v8@@@v8@@PEAVIsolate@4@PEAD_KP6AX1PEAX@Z3@Z 000000018009fef8     node:node.exe
 0003:00000f00       __imp_?Data@Buffer@node@@YAPEADV?$Local@VObject@v8@@@v8@@@Z 000000018009ff00     node:node.exe
 0003:00000f08       __imp_?Length@Buffer@node@@YA_KV?$Local@VObject@v8@@@v8@@@Z 000000018009ff08     node:node.exe
 0003:00000f10       __imp_uv_default_loop      000000018009ff10     node:node.exe
 0003:00000f18       __imp_?ToObject@Value@v8@@QEBA?AV?$Local@VObject@v8@@@2@XZ 000000018009ff18     node:node.exe
 0003:00000f20       \177node_NULL_THUNK_DATA_DLA 000000018009ff20     node:node.exe
 0003:00000f40       __hmod__node_exe           000000018009ff40     node:node.exe
 0003:000014c0       ?__type_info_root_node@@3U__type_info_node@@A 00000001800a04c0     LIBCMT:tncleanup.obj
 0003:000014d0       __scrt_current_native_startup_state 00000001800a04d0     LIBCMT:utility.obj
 0003:000014d8       __scrt_native_startup_lock 00000001800a04d8     LIBCMT:utility.obj
 0003:00001518       __scrt_debugger_hook_flag  00000001800a0518     LIBCMT:utility_desktop.obj
 0003:0000151c       __favor                    00000001800a051c     LIBCMT:cpu_disp.obj
 0003:00001520       ?__WinRTOutOfMemoryExceptionCallback@@3P6APEAXXZEA 00000001800a0520     libvcruntime:ehhelpers.obj
 0003:00001528       ?pArgList@UnDecorator@@0PEAVReplicator@@EA 00000001800a0528     libvcruntime:undname.obj
 0003:00001530       ?pZNameList@UnDecorator@@0PEAVReplicator@@EA 00000001800a0530     libvcruntime:undname.obj
 0003:00001538       ?pTemplateArgList@UnDecorator@@0PEAVReplicator@@EA 00000001800a0538     libvcruntime:undname.obj
 0003:00001540       ?gName@UnDecorator@@0PEBDEB 00000001800a0540     libvcruntime:undname.obj
 0003:00001548       ?name@UnDecorator@@0PEBDEB 00000001800a0548     libvcruntime:undname.obj
 0003:00001550       ?disableFlags@UnDecorator@@0KA 00000001800a0550     libvcruntime:undname.obj
 0003:00001554       ?fExplicitTemplateParams@UnDecorator@@0_NA 00000001800a0554     libvcruntime:undname.obj
 0003:00001555       ?fGetTemplateArgumentList@UnDecorator@@0_NA 00000001800a0555     libvcruntime:undname.obj
 0003:00001558       ?m_pGetParameter@UnDecorator@@0P6APEADJ@ZEA 00000001800a0558     libvcruntime:undname.obj
 0003:00001560       ?m_CHPENameOffset@UnDecorator@@0KA 00000001800a0560     libvcruntime:undname.obj
 0003:00001564       ?m_recursionLevel@UnDecorator@@0KA 00000001800a0564     libvcruntime:undname.obj
 0003:00001690       __pPurecall                00000001800a0690     libvcruntime:purevirt_data.obj
 0003:00001698       _nstream                   00000001800a0698     libucrt:_file.obj
 0003:000016a0       __piob                     00000001800a06a0     libucrt:_file.obj
 0003:000016a8       _cflush                    00000001800a06a8     libucrt:_file.obj
 0003:000016b8       ?c_exit_complete@?1???R<lambda_6e4b09c48022b2350581041d5f6b0c4c>@@QEBA@XZ@4_NA 00000001800a06b8     libucrt:exit.obj
 0003:000017d8       _environ_table             00000001800a07d8     libucrt:environment_initialization.obj
 0003:000017e0       _wenviron_table            00000001800a07e0     libucrt:environment_initialization.obj
 0003:000017e8       __dcrt_initial_wide_environment 00000001800a07e8     libucrt:environment_initialization.obj
 0003:000017f0       __dcrt_initial_narrow_environment 00000001800a07f0     libucrt:environment_initialization.obj
 0003:000017f8       __acrt_atexit_table        00000001800a07f8     libucrt:onexit.obj
 0003:00001810       __acrt_at_quick_exit_table 00000001800a0810     libucrt:onexit.obj
 0003:00001858       __acrt_locale_changed_data 00000001800a0858     libucrt:wsetlocale.obj
 0003:00001860       __acrt_current_locale_data 00000001800a0860     libucrt:nlsdata.obj
 0003:00001870       __pioinfo                  00000001800a0870     libucrt:ioinit.obj
 0003:00001c70       _nhandle                   00000001800a0c70     libucrt:ioinit.obj
 0003:00001c88       __acrt_stdout_buffer       00000001800a0c88     libucrt:_sftbuf.obj
 0003:00001c90       __acrt_stderr_buffer       00000001800a0c90     libucrt:_sftbuf.obj
 0003:00002088       _mbctype                   00000001800a1088     libucrt:mbctype.obj
 0003:00002090       _mbcasemap                 00000001800a1090     libucrt:mbctype.obj
 0003:00002098       __acrt_current_multibyte_data 00000001800a1098     libucrt:mbctype.obj
 0003:000020a8       _pgmptr                    00000001800a10a8     libucrt:argv_data.obj
 0003:000020b0       __argc                     00000001800a10b0     libucrt:argv_data.obj
 0003:000020b8       __argv                     00000001800a10b8     libucrt:argv_data.obj
 0003:000020c0       __wargv                    00000001800a10c0     libucrt:argv_data.obj
 0003:000020c8       _acmdln                    00000001800a10c8     libucrt:argv_data.obj
 0003:000020d0       _wcmdln                    00000001800a10d0     libucrt:argv_data.obj
 0003:000020d8       __acrt_heap                00000001800a10d8     libucrt:heap_handle.obj
 0003:000020e8       __acrt_lconv_static_null   00000001800a10e8     libucrt:localeconv.obj
 0003:000020ec       __acrt_lconv_static_W_null 00000001800a10ec     libucrt:localeconv.obj
 0003:000020f4       _fmode                     00000001800a10f4     libucrt:txtmode.obj
 0003:00002100       __fma3_is_available        00000001800a1100     libucrt:fma3_available.obj
 0003:00002104       __use_fma3_lib             00000001800a1104     libucrt:fma3_available.obj
 0003:00002108       ?DloadKernel32@@3PEAUHINSTANCE__@@EA 00000001800a1108     DelayImp:delayhlp.obj
 0003:00002110       ?DloadAcquireSRWLockExclusive@@3P6AXPEA_K@ZEA 00000001800a1110     DelayImp:delayhlp.obj
 0003:00002118       ?DloadReleaseSRWLockExclusive@@3P6AXPEA_K@ZEA 00000001800a1118     DelayImp:delayhlp.obj
 0003:00002120       ?DloadSrwLock@@3_KA        00000001800a1120     DelayImp:delayhlp.obj
 0003:00002128       ?DloadSectionLockCount@@3KA 00000001800a1128     DelayImp:delayhlp.obj
 0003:0000212c       ?DloadSectionOldProtection@@3KA 00000001800a112c     DelayImp:delayhlp.obj
 0003:00002130       ?DloadSectionCommitPermanent@@3KA 00000001800a1130     DelayImp:delayhlp.obj
 0003:00013acc       __scrt_ucrt_dll_is_in_use  00000001800b2acc     <common>
 0003:00013ad0       __dyn_tls_init_callback    00000001800b2ad0     <common>
 0003:00013ae0       INT123_COS9                00000001800b2ae0     <common>
 0003:00013b20       INT123_tfcos36             00000001800b2b20     <common>
 0003:00013b60       adj43asm                   00000001800b2b60     <common>
 0003:0001bba0       ipow20                     00000001800baba0     <common>
 0003:0001bfc0       pow43                      00000001800bafc0     <common>
 0003:00024000       pow20                      00000001800c3000     <common>
 0003:000245d8       ?_OptionsStorage@?1??__local_stdio_printf_options@@9@9 00000001800c35d8     <common>
 0003:000245e0       ?_OptionsStorage@?1??__local_stdio_scanf_options@@9@9 00000001800c35e0     <common>

 entry point at        0001:000564f8

 Static symbols

 0000:fff32000       .debug$S                   0000000180000000     kernel32:KERNEL32.dll
 0000:fff32000       .debug$S                   0000000180000000     kernel32:KERNEL32.dll
 0000:fff32000       .debug$S                   0000000180000000     kernel32:KERNEL32.dll
 0000:fff32000       .debug$S                   0000000180000000     node:node.exe
 0000:fff32000       .debug$S                   0000000180000000     kernel32:KERNEL32.dll
 0000:fff32000       .debug$S                   0000000180000000     kernel32:KERNEL32.dll
 0000:fff32000       .debug$S                   0000000180000000     kernel32:KERNEL32.dll
 0000:fff32000       .debug$S                   0000000180000000     node:node.exe
 0000:fff32000       .debug$S                   0000000180000000     kernel32:KERNEL32.dll
 0000:fff32000       .debug$S                   0000000180000000     kernel32:KERNEL32.dll
 0000:fff32000       .debug$S                   0000000180000000     kernel32:KERNEL32.dll
 0000:fff32000       .debug$S                   0000000180000000     kernel32:KERNEL32.dll
 0000:fff32000       .debug$S                   0000000180000000     kernel32:KERNEL32.dll
 0000:fff32000       .debug$S                   0000000180000000     kernel32:KERNEL32.dll
 0000:fff32000       .debug$S                   0000000180000000     kernel32:KERNEL32.dll
 0000:fff32000       .debug$S                   0000000180000000     kernel32:KERNEL32.dll
 0000:fff32000       .debug$S                   0000000180000000     kernel32:KERNEL32.dll
 0000:fff32000       .debug$S                   0000000180000000     kernel32:KERNEL32.dll
 0000:fff32000       .debug$S                   0000000180000000     kernel32:KERNEL32.dll
 0000:fff32000       .debug$S                   0000000180000000     kernel32:KERNEL32.dll
 0000:fff32000       .debug$S                   0000000180000000     kernel32:KERNEL32.dll
 0000:fff32000       .debug$S                   0000000180000000     kernel32:KERNEL32.dll
 0000:fff32000       .debug$S                   0000000180000000     kernel32:KERNEL32.dll
 0000:fff32000       .debug$S                   0000000180000000     kernel32:KERNEL32.dll
 0000:fff32000       .debug$S                   0000000180000000     kernel32:KERNEL32.dll
 0000:fff32000       .debug$S                   0000000180000000     kernel32:KERNEL32.dll
 0000:fff32000       .debug$S                   0000000180000000     kernel32:KERNEL32.dll
 0000:fff32000       .debug$S                   0000000180000000     kernel32:KERNEL32.dll
 0000:fff32000       .debug$S                   0000000180000000     kernel32:KERNEL32.dll
 0000:fff32000       .debug$S                   0000000180000000     kernel32:KERNEL32.dll
 0000:fff32000       .debug$S                   0000000180000000     kernel32:KERNEL32.dll
 0000:fff32000       .debug$S                   0000000180000000     kernel32:KERNEL32.dll
 0000:fff32000       .debug$S                   0000000180000000     kernel32:KERNEL32.dll
 0000:fff32000       .debug$S                   0000000180000000     kernel32:KERNEL32.dll
 0000:fff32000       .debug$S                   0000000180000000     kernel32:KERNEL32.dll
 0000:fff32000       .debug$S                   0000000180000000     kernel32:KERNEL32.dll
 0000:fff32000       .debug$S                   0000000180000000     kernel32:KERNEL32.dll
 0000:fff32000       .debug$S                   0000000180000000     kernel32:KERNEL32.dll
 0000:fff32000       .debug$S                   0000000180000000     kernel32:KERNEL32.dll
 0000:fff32000       .debug$S                   0000000180000000     kernel32:KERNEL32.dll
 0000:fff32000       .debug$S                   0000000180000000     kernel32:KERNEL32.dll
 0000:fff32000       .debug$S                   0000000180000000     kernel32:KERNEL32.dll
 0000:fff32000       .debug$S                   0000000180000000     kernel32:KERNEL32.dll
 0000:fff32000       .debug$S                   0000000180000000     kernel32:KERNEL32.dll
 0000:fff32000       .debug$S                   0000000180000000     kernel32:KERNEL32.dll
 0000:fff32000       .debug$S                   0000000180000000     kernel32:KERNEL32.dll
 0000:fff32000       .debug$S                   0000000180000000     kernel32:KERNEL32.dll
 0000:fff32000       .debug$S                   0000000180000000     kernel32:KERNEL32.dll
 0000:fff32000       .debug$S                   0000000180000000     kernel32:KERNEL32.dll
 0000:fff32000       .debug$S                   0000000180000000     kernel32:KERNEL32.dll
 0000:fff32000       .debug$S                   0000000180000000     kernel32:KERNEL32.dll
 0000:fff32000       .debug$S                   0000000180000000     kernel32:KERNEL32.dll
 0000:fff32000       .debug$S                   0000000180000000     kernel32:KERNEL32.dll
 0000:fff32000       .debug$S                   0000000180000000     kernel32:KERNEL32.dll
 0000:fff32000       .debug$S                   0000000180000000     node:node.exe
 0000:fff32000       .debug$S                   0000000180000000     node:node.exe
 0000:fff32000       .debug$S                   0000000180000000     node:node.exe
 0000:fff32000       .debug$S                   0000000180000000     node:node.exe
 0000:fff32000       .debug$S                   0000000180000000     node:node.exe
 0000:fff32000       .debug$S                   0000000180000000     node:node.exe
 0000:fff32000       .debug$S                   0000000180000000     node:node.exe
 0000:fff32000       .debug$S                   0000000180000000     node:node.exe
 0000:fff32000       .debug$S                   0000000180000000     node:node.exe
 0000:fff32000       .debug$S                   0000000180000000     node:node.exe
 0000:fff32000       .debug$S                   0000000180000000     node:node.exe
 0000:fff32000       .debug$S                   0000000180000000     node:node.exe
 0000:fff32000       .debug$S                   0000000180000000     node:node.exe
 0000:fff32000       .debug$S                   0000000180000000     node:node.exe
 0000:fff32000       .debug$S                   0000000180000000     node:node.exe
 0000:fff32000       .debug$S                   0000000180000000     node:node.exe
 0000:fff32000       .debug$S                   0000000180000000     node:node.exe
 0000:fff32000       .debug$S                   0000000180000000     node:node.exe
 0000:fff32000       .debug$S                   0000000180000000     node:node.exe
 0000:fff32000       .debug$S                   0000000180000000     node:node.exe
 0000:fff32000       .debug$S                   0000000180000000     node:node.exe
 0000:fff32000       .debug$S                   0000000180000000     node:node.exe
 0000:fff32000       .debug$S                   0000000180000000     node:node.exe
 0000:fff32000       .debug$S                   0000000180000000     node:node.exe
 0000:fff32000       .debug$S                   0000000180000000     node:node.exe
 0000:fff32000       .debug$S                   0000000180000000     node:node.exe
 0000:fff32000       .debug$S                   0000000180000000     node:node.exe
 0000:fff32000       .debug$S                   0000000180000000     node:node.exe
 0000:fff32000       .debug$S                   0000000180000000     node:node.exe
 0000:fff32000       .debug$S                   0000000180000000     node:node.exe
 0000:fff32000       .debug$S                   0000000180000000     kernel32:KERNEL32.dll
 0000:fff32000       .debug$S                   0000000180000000     node:node.exe
 0000:fff32000       .debug$S                   0000000180000000     node:node.exe
 0000:fff32000       .debug$S                   0000000180000000     node:node.exe
 0000:fff32000       .debug$S                   0000000180000000     node:node.exe
 0000:fff32000       .debug$S                   0000000180000000     node:node.exe
 0000:fff32000       .debug$S                   0000000180000000     node:node.exe
 0000:fff32000       .debug$S                   0000000180000000     node:node.exe
 0000:fff32000       .debug$S                   0000000180000000     node:node.exe
 0000:fff32000       .debug$S                   0000000180000000     node:node.exe
 0000:fff32000       .debug$S                   0000000180000000     node:node.exe
 0000:fff32000       .debug$S                   0000000180000000     node:node.exe
 0000:fff32000       .debug$S                   0000000180000000     node:node.exe
 0000:fff32000       .debug$S                   0000000180000000     node:node.exe
 0000:fff32000       .debug$S                   0000000180000000     node:node.exe
 0000:fff32000       .debug$S                   0000000180000000     node:node.exe
 0000:fff32000       .debug$S                   0000000180000000     node:node.exe
 0000:fff32000       .debug$S                   0000000180000000     node:node.exe
 0000:fff32000       .debug$S                   0000000180000000     node:node.exe
 0000:fff32000       .debug$S                   0000000180000000     node:node.exe
 0000:fff32000       .debug$S                   0000000180000000     kernel32:KERNEL32.dll
 0000:fff32000       .debug$S                   0000000180000000     kernel32:KERNEL32.dll
 0000:fff32000       .debug$S                   0000000180000000     node:node.exe
 0000:fff32000       .debug$S                   0000000180000000     node:node.exe
 0000:fff32000       .debug$S                   0000000180000000     kernel32:KERNEL32.dll
 0000:fff32000       .debug$S                   0000000180000000     kernel32:KERNEL32.dll
 0000:fff32000       .debug$S                   0000000180000000     kernel32:KERNEL32.dll
 0000:fff32000       .debug$S                   0000000180000000     node:node.exe
 0000:fff32000       .debug$S                   0000000180000000     kernel32:KERNEL32.dll
 0000:fff32000       .debug$S                   0000000180000000     kernel32:KERNEL32.dll
 0000:fff32000       .debug$S                   0000000180000000     kernel32:KERNEL32.dll
 0000:fff32000       .debug$S                   0000000180000000     kernel32:KERNEL32.dll
 0000:fff32000       .debug$S                   0000000180000000     kernel32:KERNEL32.dll
 0000:fff32000       .debug$S                   0000000180000000     kernel32:KERNEL32.dll
 0000:fff32000       .debug$S                   0000000180000000     kernel32:KERNEL32.dll
 0000:fff32000       .debug$S                   0000000180000000     kernel32:KERNEL32.dll
 0000:fff32000       .debug$S                   0000000180000000     kernel32:KERNEL32.dll
 0000:fff32000       .debug$S                   0000000180000000     kernel32:KERNEL32.dll
 0000:fff32000       .debug$S                   0000000180000000     kernel32:KERNEL32.dll
 0000:fff32000       .debug$S                   0000000180000000     kernel32:KERNEL32.dll
 0000:fff32000       .debug$S                   0000000180000000     kernel32:KERNEL32.dll
 0000:fff32000       .debug$S                   0000000180000000     kernel32:KERNEL32.dll
 0000:fff32000       .debug$S                   0000000180000000     kernel32:KERNEL32.dll
 0000:fff32000       .debug$S                   0000000180000000     kernel32:KERNEL32.dll
 0000:fff32000       .debug$S                   0000000180000000     kernel32:KERNEL32.dll
 0000:fff32000       .debug$S                   0000000180000000     kernel32:KERNEL32.dll
 0000:fff32000       .debug$S                   0000000180000000     kernel32:KERNEL32.dll
 0000:fff32000       .debug$S                   0000000180000000     kernel32:KERNEL32.dll
 0000:fff32000       .debug$S                   0000000180000000     kernel32:KERNEL32.dll
 0000:fff32000       .debug$S                   0000000180000000     kernel32:KERNEL32.dll
 0000:fff32000       .debug$S                   0000000180000000     kernel32:KERNEL32.dll
 0000:fff32000       .debug$S                   0000000180000000     kernel32:KERNEL32.dll
 0000:fff32000       .debug$S                   0000000180000000     kernel32:KERNEL32.dll
 0000:fff32000       .debug$S                   0000000180000000     kernel32:KERNEL32.dll
 0000:fff32000       .debug$S                   0000000180000000     kernel32:KERNEL32.dll
 0000:fff32000       .debug$S                   0000000180000000     kernel32:KERNEL32.dll
 0000:fff32000       .debug$S                   0000000180000000     kernel32:KERNEL32.dll
 0000:fff32000       .debug$S                   0000000180000000     kernel32:KERNEL32.dll
 0000:fff32000       .debug$S                   0000000180000000     kernel32:KERNEL32.dll
 0000:fff32000       .debug$S                   0000000180000000     bindings.exp
 0000:fff32000       .debug$S                   0000000180000000     kernel32:KERNEL32.dll
 0001:00000040       _register_bindings         0000000180001040 f   bindings.obj
 0001:00000050       ?FunctionCallbackWrapper@imp@Nan@@YAXAEBV?$FunctionCallbackInfo@VValue@v8@@@v8@@@Z 0000000180001050 f   node_lame.obj
 0001:000002c0       ?wrap_pointer_cb@@YAXPEADPEAX@Z 00000001800012c0 f   node_lame.obj
 0001:000002c0       ?wrap_pointer_cb@@YAXPEADPEAX@Z 00000001800012c0 f   node_mpg123.obj
 0001:000002c0       bad_close                  00000001800012c0 f   libmpg123:readers.obj
 0001:000002c0       bad_rewind                 00000001800012c0 f   libmpg123:readers.obj
 0001:0000e220       ?load_exe_hook@@YAP6A_JXZIPEAUDelayLoadInfo@@@Z 000000018000f220 f   win_delay_load_hook.obj
 0001:0000e270       lame_init_params_ppflt     000000018000f270 f   libmp3lame:lame.obj
 0001:0000e700       lame_init_qval             000000018000f700 f   libmp3lame:lame.obj
 0001:0000e898       $LN34                      000000018000f898     libmp3lame:lame.obj
 0001:00010ec0       save_gain_values           0000000180011ec0 f   libmp3lame:lame.obj
 0001:00011000       lame_encode_buffer_sample_t 0000000180012000 f   libmp3lame:lame.obj
 0001:00011460       lame_copy_inbuffer         0000000180012460 f   libmp3lame:lame.obj
 0001:00011cd0       lame_encode_buffer_template 0000000180012cd0 f   libmp3lame:lame.obj
 0001:00012580       local_strdup               0000000180013580 f   libmp3lame:id3tag.obj
 0001:00012610       id3v2_add_latin1           0000000180013610 f   libmp3lame:id3tag.obj
 0001:00012720       sizeOfNode                 0000000180013720 f   libmp3lame:id3tag.obj
 0001:00012760       sizeOfWxxxNode             0000000180013760 f   libmp3lame:id3tag.obj
 0001:000127b0       writeUcs2s                 00000001800137b0 f   libmp3lame:id3tag.obj
 0001:00012800       writeLoBytes               0000000180013800 f   libmp3lame:id3tag.obj
 0001:000128d0       set_frame_comment          00000001800138d0 f   libmp3lame:id3tag.obj
 0001:00012a70       set_frame_custom2          0000000180013a70 f   libmp3lame:id3tag.obj
 0001:00012bd0       set_frame_wxxx             0000000180013bd0 f   libmp3lame:id3tag.obj
 0001:00013370       putbits2                   0000000180014370 f   libmp3lame:bitstream.obj
 0001:000134a0       drain_into_ancillary       00000001800144a0 f   libmp3lame:bitstream.obj
 0001:000136a0       writeheader                00000001800146a0 f   libmp3lame:bitstream.obj
 0001:00013760       CRC_update                 0000000180014760 f   libmp3lame:bitstream.obj
 0001:00013980       encodeSideInfo2            0000000180014980 f   libmp3lame:bitstream.obj
 0001:000157f0       huffman_coder_count1       00000001800167f0 f   libmp3lame:bitstream.obj
 0001:00015a30       Huffmancode                0000000180016a30 f   libmp3lame:bitstream.obj
 0001:00015dd0       LongHuffmancodebits        0000000180016dd0 f   libmp3lame:bitstream.obj
 0001:00015ea0       writeMainData              0000000180016ea0 f   libmp3lame:bitstream.obj
 0001:00016fe0       apply_vbr_preset           0000000180017fe0 f   libmp3lame:presets.obj
 0001:00017620       apply_abr_preset           0000000180018620 f   libmp3lame:presets.obj
 0001:0001821c       $LN76                      000000018001921c     libmp3lame:presets.obj
 0001:0001823c       $LN75                      000000018001923c     libmp3lame:presets.obj
 0001:00018268       $LN74                      0000000180019268     libmp3lame:presets.obj
 0001:000182d0       convert_partition2scalefac 00000001800192d0 f   libmp3lame:psymodel.obj
 0001:00018590       pecalc_s                   0000000180019590 f   libmp3lame:psymodel.obj
 0001:000188a0       pecalc_l                   00000001800198a0 f   libmp3lame:psymodel.obj
 0001:00018be0       calc_mask_index_l          0000000180019be0 f   libmp3lame:psymodel.obj
 0001:00018db0       vbrpsy_compute_fft_l       0000000180019db0 f   libmp3lame:psymodel.obj
 0001:000192a0       vbrpsy_compute_fft_s       000000018001a2a0 f   libmp3lame:psymodel.obj
 0001:000196f0       vbrpsy_attack_detection    000000018001a6f0 f   libmp3lame:psymodel.obj
 0001:0001a480       vbrpsy_calc_mask_index_s   000000018001b480 f   libmp3lame:psymodel.obj
 0001:0001a650       vbrpsy_compute_masking_s   000000018001b650 f   libmp3lame:psymodel.obj
 0001:0001ad30       vbrpsy_compute_masking_l   000000018001bd30 f   libmp3lame:psymodel.obj
 0001:0001b4b0       vbrpsy_compute_MS_thresholds 000000018001c4b0 f   libmp3lame:psymodel.obj
 0001:0001c930       init_numline               000000018001d930 f   libmp3lame:psymodel.obj
 0001:0001cf30       compute_bark_values        000000018001df30 f   libmp3lame:psymodel.obj
 0001:0001d220       init_s3_values             000000018001e220 f   libmp3lame:psymodel.obj
 0001:0001edb0       ATHformula_GB              000000018001fdb0 f   libmp3lame:util.obj
 0001:0001ef8c       $LN12                      000000018001ff8c     libmp3lame:util.obj
 0001:0001f200       gcd                        0000000180020200 f   libmp3lame:util.obj
 0001:0001f220       fill_buffer_resample       0000000180020220 f   libmp3lame:util.obj
 0001:0001fd00       compute_ath                0000000180020d00 f   libmp3lame:quantize_pvt.obj
 0001:00021960       set_pinfo                  0000000180022960 f   libmp3lame:quantize_pvt.obj
 0001:00022100       setLameTagFrameHeader      0000000180023100 f   libmp3lame:VbrTag.obj
 0001:00022270       ms_convert                 0000000180023270 f   libmp3lame:quantize.obj
 0001:00022440       init_xrpow_core_c          0000000180023440 f   libmp3lame:quantize.obj
 0001:00022690       init_xrpow                 0000000180023690 f   libmp3lame:quantize.obj
 0001:00022760       psfb21_analogsilence       0000000180023760 f   libmp3lame:quantize.obj
 0001:00022b20       init_outer_loop            0000000180023b20 f   libmp3lame:quantize.obj
 0001:00023140       floatcompare               0000000180024140 f   libmp3lame:quantize.obj
 0001:00023160       trancate_smallspectrums    0000000180024160 f   libmp3lame:quantize.obj
 0001:000236d0       get_klemm_noise            00000001800246d0 f   libmp3lame:quantize.obj
 0001:00023a20       quant_compare              0000000180024a20 f   libmp3lame:quantize.obj
 0001:00023df0       $LN58                      0000000180024df0     libmp3lame:quantize.obj
 0001:00023e20       amp_scalefac_bands         0000000180024e20 f   libmp3lame:quantize.obj
 0001:000240a0       inc_scalefac_scale         00000001800250a0 f   libmp3lame:quantize.obj
 0001:00024260       inc_subblock_gain          0000000180025260 f   libmp3lame:quantize.obj
 0001:00024670       outer_loop                 0000000180025670 f   libmp3lame:quantize.obj
 0001:00024db0       VBR_old_prepare            0000000180025db0 f   libmp3lame:quantize.obj
 0001:00025210       bitpressure_strategy       0000000180026210 f   libmp3lame:quantize.obj
 0001:00025b30       VBR_new_prepare            0000000180026b30 f   libmp3lame:quantize.obj
 0001:00026190       calc_target_bits           0000000180027190 f   libmp3lame:quantize.obj
 0001:00026e50       filterYule                 0000000180027e50 f   libmp3lame:gain_analysis.obj
 0001:00027030       ResetSampleFrequency       0000000180028030 f   libmp3lame:gain_analysis.obj
 0001:00027b70       lame_encode_frame_init     0000000180028b70 f   libmp3lame:encoder.obj
 0001:00028ee0       quantize_lines_xrpow       0000000180029ee0 f   libmp3lame:takehiro.obj
 0001:000290e0       quantize_xrpow             000000018002a0e0 f   libmp3lame:takehiro.obj
 0001:000294e0       count_bit_noESC            000000018002a4e0 f   libmp3lame:takehiro.obj
 0001:00029520       count_bit_noESC_from2      000000018002a520 f   libmp3lame:takehiro.obj
 0001:000295b0       count_bit_noESC_from3      000000018002a5b0 f   libmp3lame:takehiro.obj
 0001:00029690       count_bit_null             000000018002a690 f   libmp3lame:takehiro.obj
 0001:000296a0       choose_table_nonMMX        000000018002a6a0 f   libmp3lame:takehiro.obj
 0001:0002a390       scfsi_calc                 000000018002b390 f   libmp3lame:takehiro.obj
 0001:0002abc0       mpeg1_scale_bitcount       000000018002bbc0 f   libmp3lame:takehiro.obj
 0001:0002afa0       mpeg2_scale_bitcount       000000018002bfa0 f   libmp3lame:takehiro.obj
 0001:0002b2b0       fht                        000000018002c2b0 f   libmp3lame:fft.obj
 0001:0002c290       calc_sfb_noise_x34         000000018002d290 f   libmp3lame:vbrquantize.obj
 0001:0002c800       guess_scalefac_x34         000000018002d800 f   libmp3lame:vbrquantize.obj
 0001:0002c860       find_scalefac_x34          000000018002d860 f   libmp3lame:vbrquantize.obj
 0001:0002ca10       block_sf                   000000018002da10 f   libmp3lame:vbrquantize.obj
 0001:0002d0b0       quantize_x34               000000018002e0b0 f   libmp3lame:vbrquantize.obj
 0001:0002d4f0       set_subblock_gain          000000018002e4f0 f   libmp3lame:vbrquantize.obj
 0001:0002d700       set_scalefacs              000000018002e700 f   libmp3lame:vbrquantize.obj
 0001:0002d9c0       short_block_constrain      000000018002e9c0 f   libmp3lame:vbrquantize.obj
 0001:0002de20       long_block_constrain       000000018002ee20 f   libmp3lame:vbrquantize.obj
 0001:0002e590       tryGlobalStepsize          000000018002f590 f   libmp3lame:vbrquantize.obj
 0001:0002e810       searchGlobalStepsizeMax    000000018002f810 f   libmp3lame:vbrquantize.obj
 0001:0002eb40       sfDepth                    000000018002fb40 f   libmp3lame:vbrquantize.obj
 0001:0002ed40       cutDistribution            000000018002fd40 f   libmp3lame:vbrquantize.obj
 0001:0002efc0       flattenDistribution        000000018002ffc0 f   libmp3lame:vbrquantize.obj
 0001:0002f510       outOfBitsStrategy          0000000180030510 f   libmp3lame:vbrquantize.obj
 0001:000307e0       window_subband             00000001800317e0 f   libmp3lame:newmdct.obj
 0001:00031630       mdct_short                 0000000180032630 f   libmp3lame:newmdct.obj
 0001:00031ab0       mdct_long                  0000000180032ab0 f   libmp3lame:newmdct.obj
 0001:00032e20       frame_buffercheck          0000000180033e20 f   libmpg123:libmpg123.obj
 0001:000336f0       get_next_frame             00000001800346f0 f   libmpg123:libmpg123.obj
 0001:00033930       decode_the_frame           0000000180034930 f   libmpg123:libmpg123.obj
 0001:000341c0       synth_stereo_wrap          00000001800351c0 f   libmpg123:optimize.obj
 0001:00034780       frame_default_pars         0000000180035780 f   libmpg123:frame.obj
 0001:00035080       frame_fixed_reset          0000000180036080 f   libmpg123:frame.obj
 0001:00035500       frame_fuzzy_find           0000000180036500 f   libmpg123:frame.obj
 0001:00035f50       free_id3_text              0000000180036f50 f   libmpg123:id3.obj
 0001:00036000       add_id3_text               0000000180037000 f   libmpg123:id3.obj
 0001:000360a0       store_id3_text             00000001800370a0 f   libmpg123:id3.obj
 0001:00036290       next_text                  0000000180037290 f   libmpg123:id3.obj
 0001:00036310       process_comment            0000000180037310 f   libmpg123:id3.obj
 0001:000368c0       process_extra              00000001800378c0 f   libmpg123:id3.obj
 0001:00036de0       promote_framename          0000000180037de0 f   libmpg123:id3.obj
 0001:00037d60       convert_latin1             0000000180038d60 f   libmpg123:id3.obj
 0001:00037e80       check_bom                  0000000180038e80 f   libmpg123:id3.obj
 0001:00037ef0       convert_utf16bom           0000000180038ef0 f   libmpg123:id3.obj
 0001:000382c0       convert_utf8               00000001800392c0 f   libmpg123:id3.obj
 0001:00038340       rate2num                   0000000180039340 f   libmpg123:format.obj
 0001:00038390       cap_fit                    0000000180039390 f   libmpg123:format.obj
 0001:00038460       freq_fit                   0000000180039460 f   libmpg123:format.obj
 0001:00038c50       chop_fourth_byte           0000000180039c50 f   libmpg123:format.obj
 0001:00038cb0       posix_read                 0000000180039cb0 f   libmpg123:readers.obj
 0001:00038cc0       posix_lseek                0000000180039cc0 f   libmpg123:readers.obj
 0001:00038cd0       feed_seek_frame            0000000180039cd0 f   libmpg123:readers.obj
 0001:00038cd0       nix_lseek                  0000000180039cd0 f   libmpg123:readers.obj
 0001:00038ce0       plain_read                 0000000180039ce0 f   libmpg123:readers.obj
 0001:00038d20       icy_fullread               0000000180039d20 f   libmpg123:readers.obj
 0001:00039050       plain_fullread             000000018003a050 f   libmpg123:readers.obj
 0001:000390e0       stream_close               000000018003a0e0 f   libmpg123:readers.obj
 0001:00039150       stream_seek_frame          000000018003a150 f   libmpg123:readers.obj
 0001:00039220       generic_head_read          000000018003a220 f   libmpg123:readers.obj
 0001:00039290       generic_head_shift         000000018003a290 f   libmpg123:readers.obj
 0001:000392e0       stream_skip_bytes          000000018003a2e0 f   libmpg123:readers.obj
 0001:00039430       stream_back_bytes          000000018003a430 f   libmpg123:readers.obj
 0001:00039590       generic_read_frame_body    000000018003a590 f   libmpg123:readers.obj
 0001:000395c0       generic_tell               000000018003a5c0 f   libmpg123:readers.obj
 0001:000395f0       stream_rewind              000000018003a5f0 f   libmpg123:readers.obj
 0001:00039680       buffy_new                  000000018003a680 f   libmpg123:readers.obj
 0001:00039700       bc_fill_pool               000000018003a700 f   libmpg123:readers.obj
 0001:000397e0       bc_reset                   000000018003a7e0 f   libmpg123:readers.obj
 0001:00039870       bc_add                     000000018003a870 f   libmpg123:readers.obj
 0001:00039970       bc_give                    000000018003a970 f   libmpg123:readers.obj
 0001:00039a50       feed_init                  000000018003aa50 f   libmpg123:readers.obj
 0001:00039aa0       feed_read                  000000018003aaa0 f   libmpg123:readers.obj
 0001:00039ad0       feed_skip_bytes            000000018003aad0 f   libmpg123:readers.obj
 0001:00039b30       feed_back_bytes            000000018003ab30 f   libmpg123:readers.obj
 0001:00039bd0       buffered_forget            000000018003abd0 f   libmpg123:readers.obj
 0001:00039cd0       buffered_fullread          000000018003acd0 f   libmpg123:readers.obj
 0001:00039e90       bad_tell                   000000018003ae90 f   libmpg123:readers.obj
 0001:00039e90       bad_read_frame_body        000000018003ae90 f   libmpg123:readers.obj
 0001:00039e90       bad_seek_frame             000000018003ae90 f   libmpg123:readers.obj
 0001:00039e90       bad_skip_bytes             000000018003ae90 f   libmpg123:readers.obj
 0001:00039e90       bad_head_shift             000000018003ae90 f   libmpg123:readers.obj
 0001:00039e90       bad_head_read              000000018003ae90 f   libmpg123:readers.obj
 0001:00039e90       bad_back_bytes             000000018003ae90 f   libmpg123:readers.obj
 0001:00039e90       bad_init                   000000018003ae90 f   libmpg123:readers.obj
 0001:00039ea0       bad_fullread               000000018003aea0 f   libmpg123:readers.obj
 0001:00039ec0       default_init               000000018003aec0 f   libmpg123:readers.obj
 0001:0003a4f0       II_step_one                000000018003b4f0 f   libmpg123:layer2.obj
 0001:0003ab20       II_step_two                000000018003bb20 f   libmpg123:layer2.obj
 0001:0003b350       II_select_table            000000018003c350 f   libmpg123:layer2.obj
 0001:0003ca50       III_get_side_info          000000018003da50 f   libmpg123:layer3.obj
 0001:0003d6d0       III_get_scale_factors_1    000000018003e6d0 f   libmpg123:layer3.obj
 0001:0003f2a0       III_get_scale_factors_2    00000001800402a0 f   libmpg123:layer3.obj
 0001:0003f4c0       III_dequantize_sample      00000001800404c0 f   libmpg123:layer3.obj
 0001:00040200       III_i_stereo               0000000180041200 f   libmpg123:layer3.obj
 0001:00040990       III_antialias              0000000180041990 f   libmpg123:layer3.obj
 0001:000414d0       dct12                      00000001800424d0 f   libmpg123:layer3.obj
 0001:00041a70       III_hybrid                 0000000180042a70 f   libmpg123:layer3.obj
 0001:00042370       head_check                 0000000180043370 f   libmpg123:parse.obj
 0001:000423b0       check_lame_tag             00000001800433b0 f   libmpg123:parse.obj
 0001:000433e0       decode_header              00000001800443e0 f   libmpg123:parse.obj
 0001:000439e0       do_readahead               00000001800449e0 f   libmpg123:parse.obj
 0001:00043bb0       skip_junk                  0000000180044bb0 f   libmpg123:parse.obj
 0001:00043e40       wetwork                    0000000180044e40 f   libmpg123:parse.obj
 0001:00052450       I_step_one                 0000000180053450 f   libmpg123:layer1.obj
 0001:000530b0       I_step_two                 00000001800540b0 f   libmpg123:layer1.obj
 0001:00054d80       dct64_1                    0000000180055d80 f   libmpg123:dct64_i386.obj
 0001:00056150       $$000000                   0000000180057150     LIBCMT:amdsecgs.obj
 0001:000561c8       ?dllmain_crt_dispatch@@YAHQEAUHINSTANCE__@@KQEAX@Z 00000001800571c8 f   LIBCMT:dll_dllmain.obj
 0001:00056218       ?dllmain_crt_process_attach@@YAHQEAUHINSTANCE__@@QEAX@Z 0000000180057218 f   LIBCMT:dll_dllmain.obj
 0001:00056334       ?dllmain_crt_process_detach@@YAH_N@Z 0000000180057334 f   LIBCMT:dll_dllmain.obj
 0001:000563c4       ?dllmain_dispatch@@YAHQEAUHINSTANCE__@@KQEAX@Z 00000001800573c4 f   LIBCMT:dll_dllmain.obj
 0001:000566f0       capture_current_context    00000001800576f0 f   LIBCMT:gs_report.obj
 0001:00056760       capture_previous_context   0000000180057760 f   LIBCMT:gs_report.obj
 0001:000575f0       $$000000                   00000001800585f0     libvcruntime:memset.obj
 0001:000576ec       MsetTab                    00000001800586ec     libvcruntime:memset.obj
 0001:000577b0       $$000000                   00000001800587b0     libvcruntime:notify.obj
 0001:00057ad8       ?try_get_function@@YAPEAXW4function_id@?A0xbfd18cd1@@QEBDQEBW4module_id@2@2@Z 0000000180058ad8 f   libvcruntime:winapi_downlevel.obj
 0001:00057ec0       $$000000                   0000000180058ec0     libvcruntime:memcpy.obj
 0001:00057f77       MoveSmall                  0000000180058f77     libvcruntime:memcpy.obj
 0001:00058330       $$000000                   0000000180059330     libvcruntime:handlers.obj
 0001:000585cc       ?internal_isupper_l@@YA_NHQEAU__crt_locale_pointers@@@Z 00000001800595cc f   libucrt:tolower_toupper.obj
 0001:000587a0       $$000000                   00000001800597a0     libucrt:strncmp.obj
 0001:00058830       ??$?RV<lambda_a62c933ada0517137acf5807a1eeac1f>@@AEAV<lambda_a31071773b9a94e445cbd5d04ef99106>@@V<lambda_56065050dbf3ada7e59a83db45153de3>@@@?$__crt_seh_guarded_call@H@@QEAAH$$QEAV<lambda_a62c933ada0517137acf5807a1eeac1f>@@AEAV<lambda_a31071773b9a94e445cbd5d04ef99106>@@$$QEAV<lambda_56065050dbf3ada7e59a83db45153de3>@@@Z 0000000180059830 f   libucrt:output.obj
 0001:00058870       ??$common_vsprintf@Vstandard_base@__crt_stdio_output@@D@@YAH_KQEAD0QEBDQEAU__crt_locale_pointers@@1@Z 0000000180059870 f   libucrt:output.obj
 0001:00058d0c       ??R<lambda_a31071773b9a94e445cbd5d04ef99106>@@QEBAHXZ 0000000180059d0c f   libucrt:output.obj
 0001:0005b17c       ??$?RV<lambda_842d9ff0dc9ef11c61343bbaebe7f885>@@AEAV<lambda_c5860995281e5c4ce005b3de8f5874ee>@@V<lambda_d90129c13df834fdcbf8d2b88dafcf2d>@@@?$__crt_seh_guarded_call@X@@QEAAX$$QEAV<lambda_842d9ff0dc9ef11c61343bbaebe7f885>@@AEAV<lambda_c5860995281e5c4ce005b3de8f5874ee>@@$$QEAV<lambda_d90129c13df834fdcbf8d2b88dafcf2d>@@@Z 000000018005c17c f   libucrt:fflush.obj
 0001:0005b218       ??$?RV<lambda_886d6c58226a84441f68b9f2b8217b83>@@AEAV<lambda_ab61a845afdef5b7c387490eaf3616ee>@@V<lambda_f7f22ab5edc0698d5f6905b0d3f44752>@@@?$__crt_seh_guarded_call@X@@QEAAX$$QEAV<lambda_886d6c58226a84441f68b9f2b8217b83>@@AEAV<lambda_ab61a845afdef5b7c387490eaf3616ee>@@$$QEAV<lambda_f7f22ab5edc0698d5f6905b0d3f44752>@@@Z 000000018005c218 f   libucrt:fflush.obj
 0001:0005b2f8       ??$?RV<lambda_c376a267cfb53b6959b3b692ec76b120>@@AEAV<lambda_9a32fed5bf61b6b509b2d3f6003082a1>@@V<lambda_572fbb9fa0ab338edf41edfd4b5fcc8d>@@@?$__crt_seh_guarded_call@H@@QEAAH$$QEAV<lambda_c376a267cfb53b6959b3b692ec76b120>@@AEAV<lambda_9a32fed5bf61b6b509b2d3f6003082a1>@@$$QEAV<lambda_572fbb9fa0ab338edf41edfd4b5fcc8d>@@@Z 000000018005c2f8 f   libucrt:fflush.obj
 0001:0005b338       ?common_flush_all@@YAH_N@Z 000000018005c338 f   libucrt:fflush.obj
 0001:0005b4d0       $$000000                   000000018005c4d0     libucrt:strncpy.obj
 0001:0005b644       ??$?RV<lambda_d80eeec6fff315bfe5c115232f3240e3>@@AEAV<lambda_6e4b09c48022b2350581041d5f6b0c4c>@@V<lambda_2358e3775559c9db80273638284d5e45>@@@?$__crt_seh_guarded_call@X@@QEAAX$$QEAV<lambda_d80eeec6fff315bfe5c115232f3240e3>@@AEAV<lambda_6e4b09c48022b2350581041d5f6b0c4c>@@$$QEAV<lambda_2358e3775559c9db80273638284d5e45>@@@Z 000000018005c644 f   libucrt:exit.obj
 0001:0005b67c       ??R<lambda_6e4b09c48022b2350581041d5f6b0c4c>@@QEBA@XZ 000000018005c67c f   libucrt:exit.obj
 0001:0005b740       ?atexit_exception_filter@@YAHK@Z 000000018005c740 f   libucrt:exit.obj
 0001:0005b74c       ?common_exit@@YAXHW4_crt_exit_cleanup_mode@@W4_crt_exit_return_mode@@@Z 000000018005c74c f   libucrt:exit.obj
 0001:0005b808       ?exit_or_terminate_process@@YAXI@Z 000000018005c808 f   libucrt:exit.obj
 0001:0005b854       ?try_cor_exit_process@@YAXI@Z 000000018005c854 f   libucrt:exit.obj
 0001:0005be38       ??$common_atof_l@D@@YANQEBDQEAU__crt_locale_pointers@@@Z 000000018005ce38 f   libucrt:atof.obj
 0001:0005f344       memcpy_s                   0000000180060344 f   libucrt:cfout.obj
 0001:0005f344       memcpy_s                   0000000180060344 f   libucrt:atof.obj
 0001:00061d10       ??$?RV<lambda_751a882b2c74d4b022dec766aa51a29a>@@AEAV<lambda_628dfdc04ba53c8bfc02c9951375f3f5>@@V<lambda_f6c7be5f7998530c34de24c7437d6b54>@@@?$__crt_seh_guarded_call@H@@QEAAH$$QEAV<lambda_751a882b2c74d4b022dec766aa51a29a>@@AEAV<lambda_628dfdc04ba53c8bfc02c9951375f3f5>@@$$QEAV<lambda_f6c7be5f7998530c34de24c7437d6b54>@@@Z 0000000180062d10 f   libucrt:close.obj
 0001:00062308       ??$parse_command_line@D@@YAXPEADPEAPEAD0PEA_K2@Z 0000000180063308 f   libucrt:argv_parsing.obj
 0001:000626b4       ??$common_initialize_environment_nolock@D@@YAHXZ 00000001800636b4 f   libucrt:environment_initialization.obj
 0001:00062720       ??$create_environment@D@@YAQEAPEADQEAD@Z 0000000180063720 f   libucrt:environment_initialization.obj
 0001:00062828       ??$free_environment@_W@@YAXQEAPEA_W@Z 0000000180063828 f   libucrt:environment_initialization.obj
 0001:00062828       ??$free_environment@D@@YAXQEAPEAD@Z 0000000180063828 f   libucrt:environment_initialization.obj
 0001:0006286c       ??$uninitialize_environment_internal@D@@YAXAEAPEAPEAD@Z 000000018006386c f   libucrt:environment_initialization.obj
 0001:00062888       ??$uninitialize_environment_internal@_W@@YAXAEAPEAPEA_W@Z 0000000180063888 f   libucrt:environment_initialization.obj
 0001:000628e4       ??$?RV<lambda_7777bce6b2f8c936911f934f8298dc43>@@AEAV<lambda_f03950bc5685219e0bcd2087efbe011e>@@V<lambda_3883c3dff614d5e0c5f61bb1ac94921c>@@@?$__crt_seh_guarded_call@H@@QEAAH$$QEAV<lambda_7777bce6b2f8c936911f934f8298dc43>@@AEAV<lambda_f03950bc5685219e0bcd2087efbe011e>@@$$QEAV<lambda_3883c3dff614d5e0c5f61bb1ac94921c>@@@Z 00000001800638e4 f   libucrt:onexit.obj
 0001:00062920       ??R<lambda_f03950bc5685219e0bcd2087efbe011e>@@QEBAHXZ 0000000180063920 f   libucrt:onexit.obj
 0001:00062a9c       initialize_global_variables 0000000180063a9c f   libucrt:initialization.obj
 0001:00062ab0       initialize_c               0000000180063ab0 f   libucrt:initialization.obj
 0001:00062ad4       uninitialize_global_state_isolation 0000000180063ad4 f   libucrt:initialization.obj
 0001:00062ad4       report_memory_leaks        0000000180063ad4 f   libucrt:initialization.obj
 0001:00062ad4       initialize_environment     0000000180063ad4 f   libucrt:initialization.obj
 0001:00062ad4       uninitialize_c             0000000180063ad4 f   libucrt:initialization.obj
 0001:00062ad4       initialize_global_state_isolation 0000000180063ad4 f   libucrt:initialization.obj
 0001:00062ad8       uninitialize_environment   0000000180063ad8 f   libucrt:initialization.obj
 0001:00062ae8       initialize_pointers        0000000180063ae8 f   libucrt:initialization.obj
 0001:00062b28       uninitialize_vcruntime     0000000180063b28 f   libucrt:initialization.obj
 0001:00062b30       uninitialize_allocated_memory 0000000180063b30 f   libucrt:initialization.obj
 0001:00062b70       uninitialize_allocated_io_buffers 0000000180063b70 f   libucrt:initialization.obj
 0001:00062c6c       ??$translate_text_mode_nolock@D@@YAHHQEAD_K@Z 0000000180063c6c f   libucrt:read.obj
 0001:00062e38       ??$translate_text_mode_nolock@_W@@YAHHQEA_W_K@Z 0000000180063e38 f   libucrt:read.obj
 0001:000630a4       ?translate_ansi_or_utf8_nolock@@YAHHQEAD_KQEA_W1@Z 00000001800640a4 f   libucrt:read.obj
 0001:000637b4       ??$common_lseek@J@@YAJHJH@Z 00000001800647b4 f   libucrt:lseek.obj
 0001:000638a0       ??$common_lseek@_J@@YA_JH_JH@Z 00000001800648a0 f   libucrt:lseek.obj
 0001:00063990       ??$common_lseek_nolock@J@@YAJHJH@Z 0000000180064990 f   libucrt:lseek.obj
 0001:00063a84       ??$common_lseek_nolock@_J@@YA_JH_JH@Z 0000000180064a84 f   libucrt:lseek.obj
 0001:000640d4       ??$?RV<lambda_450d765d439847d4c735a33c368b5fc0>@@AEAV<lambda_44731a7d0e6d81c3e6aa82d741081786>@@V<lambda_601a2a7da3b7a96e9554ac7215c4b07c>@@@?$__crt_seh_guarded_call@P6AXH@Z@@QEAAP6AXH@Z$$QEAV<lambda_450d765d439847d4c735a33c368b5fc0>@@AEAV<lambda_44731a7d0e6d81c3e6aa82d741081786>@@$$QEAV<lambda_601a2a7da3b7a96e9554ac7215c4b07c>@@@Z 00000001800650d4 f   libucrt:signal.obj
 0001:000643d8       ??$?RV<lambda_0ae27a3a962d80f24befdcbee591983d>@@AEAV<lambda_8d0ee55de4b1038c4002e0adecdf1839>@@V<lambda_dc504788e8f1664fe9b84e20bfb512f2>@@@?$__crt_seh_guarded_call@X@@QEAAX$$QEAV<lambda_0ae27a3a962d80f24befdcbee591983d>@@AEAV<lambda_8d0ee55de4b1038c4002e0adecdf1839>@@$$QEAV<lambda_dc504788e8f1664fe9b84e20bfb512f2>@@@Z 00000001800653d8 f   libucrt:per_thread_data.obj
 0001:00064418       ??$?RV<lambda_2d41944a1d46af3157314b8a01080d33>@@AEAV<lambda_8f455de75cd7d7f24b4096f044d8b9e6>@@V<lambda_aa500f224e6afead328df44964fe2772>@@@?$__crt_seh_guarded_call@X@@QEAAX$$QEAV<lambda_2d41944a1d46af3157314b8a01080d33>@@AEAV<lambda_8f455de75cd7d7f24b4096f044d8b9e6>@@$$QEAV<lambda_aa500f224e6afead328df44964fe2772>@@@Z 0000000180065418 f   libucrt:per_thread_data.obj
 0001:00064458       ??$?RV<lambda_aa87e3671a710a21b5dc78c0bdf72e11>@@AEAV<lambda_92619d2358a28f41a33ba319515a20b9>@@V<lambda_6992ecaafeb10aed2b74cb1fae11a551>@@@?$__crt_seh_guarded_call@X@@QEAAX$$QEAV<lambda_aa87e3671a710a21b5dc78c0bdf72e11>@@AEAV<lambda_92619d2358a28f41a33ba319515a20b9>@@$$QEAV<lambda_6992ecaafeb10aed2b74cb1fae11a551>@@@Z 0000000180065458 f   libucrt:per_thread_data.obj
 0001:000644a0       ??$?RV<lambda_f2e299630e499de9f9a165e60fcd3db5>@@AEAV<lambda_2ae9d31cdba2644fcbeaf08da7c24588>@@V<lambda_40d01ff24d0e7b3814fdbdcee8eab3c7>@@@?$__crt_seh_guarded_call@X@@QEAAX$$QEAV<lambda_f2e299630e499de9f9a165e60fcd3db5>@@AEAV<lambda_2ae9d31cdba2644fcbeaf08da7c24588>@@$$QEAV<lambda_40d01ff24d0e7b3814fdbdcee8eab3c7>@@@Z 00000001800654a0 f   libucrt:per_thread_data.obj
 0001:00064500       ?construct_ptd_array@@YAXQEAU__acrt_ptd@@@Z 0000000180065500 f   libucrt:per_thread_data.obj
 0001:000645d0       ?destroy_fls@@YAXPEAX@Z    00000001800655d0 f   libucrt:per_thread_data.obj
 0001:000645f0       ?destroy_ptd_array@@YAXQEAU__acrt_ptd@@@Z 00000001800655f0 f   libucrt:per_thread_data.obj
 0001:000646e8       ?replace_current_thread_locale_nolock@@YAXQEAU__acrt_ptd@@QEAU__crt_locale_data@@@Z 00000001800656e8 f   libucrt:per_thread_data.obj
 0001:00064aa4       ??$?RV<lambda_410d79af7f07d98d83a3f525b3859a53>@@AEAV<lambda_3e16ef9562a7dcce91392c22ab16ea36>@@V<lambda_38119f0e861e05405d8a144b9b982f0a>@@@?$__crt_seh_guarded_call@X@@QEAAX$$QEAV<lambda_410d79af7f07d98d83a3f525b3859a53>@@AEAV<lambda_3e16ef9562a7dcce91392c22ab16ea36>@@$$QEAV<lambda_38119f0e861e05405d8a144b9b982f0a>@@@Z 0000000180065aa4 f   libucrt:wsetlocale.obj
 0001:00064bc8       ?initialize_inherited_file_handles_nolock@@YAXXZ 0000000180065bc8 f   libucrt:ioinit.obj
 0001:00064cb8       ?initialize_stdio_handles_nolock@@YAXXZ 0000000180065cb8 f   libucrt:ioinit.obj
 0001:0006500c       ?__acrt_LCMapStringA_stat@@YAHPEAU__crt_locale_pointers@@PEB_WKPEBDHPEADHHH@Z 000000018006600c f   libucrt:lcmapstringa.obj
 0001:00065ba4       ?fp_format_a@@YAHQEBNPEAD_KQEAD2H_NIQEAU__crt_locale_pointers@@@Z 0000000180066ba4 f   libucrt:cvt.obj
 0001:00065f14       ?fp_format_e@@YAHQEBNQEAD_K12H_NIQEAU__crt_locale_pointers@@@Z 0000000180066f14 f   libucrt:cvt.obj
 0001:00065ff0       ?fp_format_e_internal@@YAHQEAD_KH_NIQEAU_strflt@@2QEAU__crt_locale_pointers@@@Z 0000000180066ff0 f   libucrt:cvt.obj
 0001:000661c4       ?fp_format_f_internal@@YAHQEAD_KHQEAU_strflt@@_NQEAU__crt_locale_pointers@@@Z 00000001800671c4 f   libucrt:cvt.obj
 0001:00066308       ?fp_format_g@@YAHQEBNQEAD_K12H_NIQEAU__crt_locale_pointers@@@Z 0000000180067308 f   libucrt:cvt.obj
 0001:0006643c       ?fp_format_nan_or_infinity@@YAHW4__acrt_fp_class@@_NPEAD_K1@Z 000000018006743c f   libucrt:cvt.obj
 0001:00066964       ?try_get_function@@YAPEAXW4function_id@?A0x391cf84c@@QEBDQEBW4module_id@2@2@Z 0000000180067964 f   libucrt:winapi_thunks.obj
 0001:000670a8       ??$?RV<lambda_a37b2b86f63e897a80ea819b0eb08c01>@@AEAV<lambda_38ce7e780aa69e748d6df282ebc68efe>@@V<lambda_99fb1378e971ab6e7edea83e3a7a83a2>@@@?$__crt_seh_guarded_call@H@@QEAAH$$QEAV<lambda_a37b2b86f63e897a80ea819b0eb08c01>@@AEAV<lambda_38ce7e780aa69e748d6df282ebc68efe>@@$$QEAV<lambda_99fb1378e971ab6e7edea83e3a7a83a2>@@@Z 00000001800680a8 f   libucrt:commit.obj
 0001:000671c8       ?write_double_translated_ansi_nolock@@YA?AUwrite_result@?A0x17268360@@HQEBDI@Z 00000001800681c8 f   libucrt:write.obj
 0001:000676a4       ?write_text_ansi_nolock@@YA?AUwrite_result@?A0x17268360@@HQEBDI@Z 00000001800686a4 f   libucrt:write.obj
 0001:000677a8       ?write_text_utf16le_nolock@@YA?AUwrite_result@?A0x17268360@@HQEBDI@Z 00000001800687a8 f   libucrt:write.obj
 0001:000678c4       ?write_text_utf8_nolock@@YA?AUwrite_result@?A0x17268360@@HQEBDI@Z 00000001800688c4 f   libucrt:write.obj
 0001:00067dfc       ??$write_buffer_nolock@D@@YA_NDV__crt_stdio_stream@@@Z 0000000180068dfc f   libucrt:_flsbuf.obj
 0001:00067ee0       ?stream_is_at_end_of_file_nolock@@YA_NV__crt_stdio_stream@@@Z 0000000180068ee0 f   libucrt:_flsbuf.obj
 0001:00068564       ?<lambda_invoker_cdecl>@<lambda_c2303d2482d7c3675ea2e24c4cfb6115>@@CAHPEBX0@Z 0000000180069564 f   libucrt:argv_wildcards.obj
 0001:00068704       ??$common_expand_argv_wildcards@D@@YAHQEAPEADQEAPEAPEAD@Z 0000000180069704 f   libucrt:argv_wildcards.obj
 0001:00068910       ??$copy_and_add_argument_to_buffer@D@@YAHQEBD0_KAEAV?$argument_list@D@?A0x5f5c8891@@@Z 0000000180069910 f   libucrt:argv_wildcards.obj
 0001:00068a98       ??$expand_argument_wildcards@D@@YAHQEAD0AEAV?$argument_list@D@?A0x5f5c8891@@@Z 0000000180069a98 f   libucrt:argv_wildcards.obj
 0001:00068db0       ??$?RV<lambda_efdfa57d1f175319df784efa44bb7b81>@@AEAV<lambda_5f0a4c1567f8adc6734073e5d1e1b35c>@@V<lambda_2e8a7d3640ea6ccb4c2413664c2db6fd>@@@?$__crt_seh_guarded_call@X@@QEAAX$$QEAV<lambda_efdfa57d1f175319df784efa44bb7b81>@@AEAV<lambda_5f0a4c1567f8adc6734073e5d1e1b35c>@@$$QEAV<lambda_2e8a7d3640ea6ccb4c2413664c2db6fd>@@@Z 0000000180069db0 f   libucrt:mbctype.obj
 0001:00068f6c       ?getSystemCP@@YAHH@Z       0000000180069f6c f   libucrt:mbctype.obj
 0001:00068fec       ?setSBCS@@YAXPEAU__crt_multibyte_data@@@Z 0000000180069fec f   libucrt:mbctype.obj
 0001:0006907c       ?setSBUpLow@@YAXPEAU__crt_multibyte_data@@@Z 000000018006a07c f   libucrt:mbctype.obj
 0001:00069260       ?setmbcp_internal@@YAHH_NQEAU__acrt_ptd@@QEAPEAU__crt_multibyte_data@@@Z 000000018006a260 f   libucrt:mbctype.obj
 0001:00069424       ?update_thread_multibyte_data_internal@@YAPEAU__crt_multibyte_data@@QEAU__acrt_ptd@@QEAPEAU1@@Z 000000018006a424 f   libucrt:mbctype.obj
 0001:00069814       ?x_ismbbtype_l@@YAHPEAU__crt_locale_pointers@@IHH@Z 000000018006a814 f   libucrt:ismbbyte.obj
 0001:0006a21c       ?free_crt_array_internal@@YAXQEAPEBX_K@Z 000000018006b21c f   libucrt:inittime.obj
 0001:0006bab0       ?GetTableIndexFromLocaleName@@YAHPEB_W@Z 000000018006cab0 f   libucrt:lcidtoname_downlevel.obj
 0001:0006c078       fallbackMethod             000000018006d078 f   libucrt:strpbrk.obj
 0001:0006c444       $LN78                      000000018006d444     libucrt:strpbrk.obj
 0001:0006c480       $LN77                      000000018006d480     libucrt:strpbrk.obj
 0001:0006c4c0       $LN76                      000000018006d4c0     libucrt:strpbrk.obj
 0001:0006c59c       ?initialize_multibyte@@YAHXZ 000000018006d59c f   libucrt:multibyte_initializer.obj
 0001:0006c950       $$000000                   000000018006d950     libucrt:log10.obj
 0001:0006d0b8       _call_matherr              000000018006e0b8 f   libucrt:libm_error.obj
 0001:0006d120       _exception_enabled         000000018006e120 f   libucrt:libm_error.obj
 0001:0006d540       _log_special_common        000000018006e540 f   libucrt:log_special.obj
 0001:0006d5d8       _logf_special_common       000000018006e5d8 f   libucrt:log_special.obj
 0001:0006d680       $$000000                   000000018006e680     libucrt:fpsr.obj
 0001:0006e300       $$000000                   000000018006f300     LIBCMT:chkstk.obj
 0001:0006e370       $$000000                   000000018006f370     libvcruntime:memcmp.obj
 0001:0006e5a0       $$000000                   000000018006f5a0     LIBCMT:svml_dcos2_dispatch.obj
 0001:0006e5b0       $$000000                   000000018006f5b0     LIBCMT:svml_dlog2_dispatch.obj
 0001:0006e5c0       $$000000                   000000018006f5c0     LIBCMT:svml_dpow2_dispatch.obj
 0001:0006e5d0       $$000000                   000000018006f5d0     LIBCMT:svml_dcos2_sse2.obj
 0001:0006e5d0       __static_scalar_cos        000000018006f5d0 f   LIBCMT:svml_dcos2_sse2.obj
 0001:0006ef70       $$000000                   000000018006ff70     LIBCMT:svml_dlog2_sse2.obj
 0001:0006f380       $$000000                   0000000180070380     LIBCMT:svml_dpow2_sse2.obj
 0001:0006f380       _raise_zerodivide          0000000180070380 f   LIBCMT:svml_dpow2_sse2.obj
 0001:0006f820       pow_scalar                 0000000180070820 f   LIBCMT:svml_dpow2_sse2.obj
 0001:000706a0       _raise_invalid             00000001800716a0 f   LIBCMT:svml_dpow2_sse2.obj
 0001:000708d0       $$000000                   00000001800718d0     libucrt:cos.obj
 0001:00070e50       $$000000                   0000000180071e50     libucrt:exp.obj
 0001:00071300       $$000000                   0000000180072300     libucrt:log.obj
 0001:00071830       $$000000                   0000000180072830     libucrt:log10f.obj
 0001:00071d10       $$000000                   0000000180072d10     libucrt:pow.obj
 0001:000733b0       $$000000                   00000001800743b0     libucrt:powf.obj
 0001:00074280       $$000000                   0000000180075280     libucrt:sin.obj
 0001:000748c0       $$000000                   00000001800758c0     libucrt:tan.obj
 0001:00074e80       _tan_piby4                 0000000180075e80 f   libucrt:tan.obj
 0001:00075060       $$000000                   0000000180076060     libucrt:remainder_piby2_forasm.obj
 0001:000753b0       $$000000                   00000001800763b0     libucrt:remainder_piby2_forfma3.obj
 0001:00075640       _sincos_special            0000000180076640 f   libucrt:sincos_special.obj
 0001:00075a50       $$000000                   0000000180076a50     LIBCMT:guard_dispatch.obj
 0001:00075a70       ?fin$0@?0??dllmain_crt_process_attach@@YAHQEAUHINSTANCE__@@QEAX@Z@4HA 0000000180076a70 f   LIBCMT:dll_dllmain.obj
 0001:00075a87       ?fin$0@?0??dllmain_crt_process_detach@@YAH_N@Z@4HA 0000000180076a87 f   LIBCMT:dll_dllmain.obj
 0001:00075aa3       ?filt$0@?0??dllmain_dispatch@@YAHQEAUHINSTANCE__@@KQEAX@Z@4HA 0000000180076aa3 f   LIBCMT:dll_dllmain.obj
 0001:00075ad9       __scrt_is_nonwritable_in_current_image$filt$0 0000000180076ad9 f   LIBCMT:utility.obj
 0001:00075af1       __DestructExceptionObject$filt$0 0000000180076af1 f   libvcruntime:ehhelpers.obj
 0001:00075b09       ?fin$0@?0???$?RV<lambda_842d9ff0dc9ef11c61343bbaebe7f885>@@AEAV<lambda_c5860995281e5c4ce005b3de8f5874ee>@@V<lambda_d90129c13df834fdcbf8d2b88dafcf2d>@@@?$__crt_seh_guarded_call@X@@QEAAX$$QEAV<lambda_842d9ff0dc9ef11c61343bbaebe7f885>@@AEAV<lambda_c5860995281e5c4ce005b3de8f5874ee>@@$$QEAV<lambda_d90129c13df834fdcbf8d2b88dafcf2d>@@@Z@4HA 0000000180076b09 f   libucrt:fflush.obj
 0001:00075b09       ?fin$0@?0???$?RV<lambda_a62c933ada0517137acf5807a1eeac1f>@@AEAV<lambda_a31071773b9a94e445cbd5d04ef99106>@@V<lambda_56065050dbf3ada7e59a83db45153de3>@@@?$__crt_seh_guarded_call@H@@QEAAH$$QEAV<lambda_a62c933ada0517137acf5807a1eeac1f>@@AEAV<lambda_a31071773b9a94e445cbd5d04ef99106>@@$$QEAV<lambda_56065050dbf3ada7e59a83db45153de3>@@@Z@4HA 0000000180076b09 f   libucrt:output.obj
 0001:00075b09       ?fin$0@?0???$?RV<lambda_c376a267cfb53b6959b3b692ec76b120>@@AEAV<lambda_9a32fed5bf61b6b509b2d3f6003082a1>@@V<lambda_572fbb9fa0ab338edf41edfd4b5fcc8d>@@@?$__crt_seh_guarded_call@H@@QEAAH$$QEAV<lambda_c376a267cfb53b6959b3b692ec76b120>@@AEAV<lambda_9a32fed5bf61b6b509b2d3f6003082a1>@@$$QEAV<lambda_572fbb9fa0ab338edf41edfd4b5fcc8d>@@@Z@4HA 0000000180076b09 f   libucrt:fflush.obj
 0001:00075b24       ?fin$0@?0???$?RV<lambda_886d6c58226a84441f68b9f2b8217b83>@@AEAV<lambda_ab61a845afdef5b7c387490eaf3616ee>@@V<lambda_f7f22ab5edc0698d5f6905b0d3f44752>@@@?$__crt_seh_guarded_call@X@@QEAAX$$QEAV<lambda_886d6c58226a84441f68b9f2b8217b83>@@AEAV<lambda_ab61a845afdef5b7c387490eaf3616ee>@@$$QEAV<lambda_f7f22ab5edc0698d5f6905b0d3f44752>@@@Z@4HA 0000000180076b24 f   libucrt:fflush.obj
 0001:00075b41       ?fin$0@?0???$?RV<lambda_0ae27a3a962d80f24befdcbee591983d>@@AEAV<lambda_8d0ee55de4b1038c4002e0adecdf1839>@@V<lambda_dc504788e8f1664fe9b84e20bfb512f2>@@@?$__crt_seh_guarded_call@X@@QEAAX$$QEAV<lambda_0ae27a3a962d80f24befdcbee591983d>@@AEAV<lambda_8d0ee55de4b1038c4002e0adecdf1839>@@$$QEAV<lambda_dc504788e8f1664fe9b84e20bfb512f2>@@@Z@4HA 0000000180076b41 f   libucrt:per_thread_data.obj
 0001:00075b41       ?fin$0@?0???$?RV<lambda_efdfa57d1f175319df784efa44bb7b81>@@AEAV<lambda_5f0a4c1567f8adc6734073e5d1e1b35c>@@V<lambda_2e8a7d3640ea6ccb4c2413664c2db6fd>@@@?$__crt_seh_guarded_call@X@@QEAAX$$QEAV<lambda_efdfa57d1f175319df784efa44bb7b81>@@AEAV<lambda_5f0a4c1567f8adc6734073e5d1e1b35c>@@$$QEAV<lambda_2e8a7d3640ea6ccb4c2413664c2db6fd>@@@Z@4HA 0000000180076b41 f   libucrt:mbctype.obj
 0001:00075b41       ?fin$0@?0???$?RV<lambda_aa87e3671a710a21b5dc78c0bdf72e11>@@AEAV<lambda_92619d2358a28f41a33ba319515a20b9>@@V<lambda_6992ecaafeb10aed2b74cb1fae11a551>@@@?$__crt_seh_guarded_call@X@@QEAAX$$QEAV<lambda_aa87e3671a710a21b5dc78c0bdf72e11>@@AEAV<lambda_92619d2358a28f41a33ba319515a20b9>@@$$QEAV<lambda_6992ecaafeb10aed2b74cb1fae11a551>@@@Z@4HA 0000000180076b41 f   libucrt:per_thread_data.obj
 0001:00075b41       ?fin$0@?0???$?RV<lambda_2d41944a1d46af3157314b8a01080d33>@@AEAV<lambda_8f455de75cd7d7f24b4096f044d8b9e6>@@V<lambda_aa500f224e6afead328df44964fe2772>@@@?$__crt_seh_guarded_call@X@@QEAAX$$QEAV<lambda_2d41944a1d46af3157314b8a01080d33>@@AEAV<lambda_8f455de75cd7d7f24b4096f044d8b9e6>@@$$QEAV<lambda_aa500f224e6afead328df44964fe2772>@@@Z@4HA 0000000180076b41 f   libucrt:per_thread_data.obj
 0001:00075b41       ?fin$0@?0???$?RV<lambda_7777bce6b2f8c936911f934f8298dc43>@@AEAV<lambda_f03950bc5685219e0bcd2087efbe011e>@@V<lambda_3883c3dff614d5e0c5f61bb1ac94921c>@@@?$__crt_seh_guarded_call@H@@QEAAH$$QEAV<lambda_7777bce6b2f8c936911f934f8298dc43>@@AEAV<lambda_f03950bc5685219e0bcd2087efbe011e>@@$$QEAV<lambda_3883c3dff614d5e0c5f61bb1ac94921c>@@@Z@4HA 0000000180076b41 f   libucrt:onexit.obj
 0001:00075b41       ?fin$0@?0???$?RV<lambda_f2e299630e499de9f9a165e60fcd3db5>@@AEAV<lambda_2ae9d31cdba2644fcbeaf08da7c24588>@@V<lambda_40d01ff24d0e7b3814fdbdcee8eab3c7>@@@?$__crt_seh_guarded_call@X@@QEAAX$$QEAV<lambda_f2e299630e499de9f9a165e60fcd3db5>@@AEAV<lambda_2ae9d31cdba2644fcbeaf08da7c24588>@@$$QEAV<lambda_40d01ff24d0e7b3814fdbdcee8eab3c7>@@@Z@4HA 0000000180076b41 f   libucrt:per_thread_data.obj
 0001:00075b41       ?fin$0@?0???$?RV<lambda_450d765d439847d4c735a33c368b5fc0>@@AEAV<lambda_44731a7d0e6d81c3e6aa82d741081786>@@V<lambda_601a2a7da3b7a96e9554ac7215c4b07c>@@@?$__crt_seh_guarded_call@P6AXH@Z@@QEAAP6AXH@Z$$QEAV<lambda_450d765d439847d4c735a33c368b5fc0>@@AEAV<lambda_44731a7d0e6d81c3e6aa82d741081786>@@$$QEAV<lambda_601a2a7da3b7a96e9554ac7215c4b07c>@@@Z@4HA 0000000180076b41 f   libucrt:signal.obj
 0001:00075b41       ?fin$0@?0???$?RV<lambda_d80eeec6fff315bfe5c115232f3240e3>@@AEAV<lambda_6e4b09c48022b2350581041d5f6b0c4c>@@V<lambda_2358e3775559c9db80273638284d5e45>@@@?$__crt_seh_guarded_call@X@@QEAAX$$QEAV<lambda_d80eeec6fff315bfe5c115232f3240e3>@@AEAV<lambda_6e4b09c48022b2350581041d5f6b0c4c>@@$$QEAV<lambda_2358e3775559c9db80273638284d5e45>@@@Z@4HA 0000000180076b41 f   libucrt:exit.obj
 0001:00075b5b       ?filt$0@?0???R<lambda_6e4b09c48022b2350581041d5f6b0c4c>@@QEBA@XZ@4HA 0000000180076b5b f   libucrt:exit.obj
 0001:00075b76       ?fin$0@?0???$?RV<lambda_751a882b2c74d4b022dec766aa51a29a>@@AEAV<lambda_628dfdc04ba53c8bfc02c9951375f3f5>@@V<lambda_f6c7be5f7998530c34de24c7437d6b54>@@@?$__crt_seh_guarded_call@H@@QEAAH$$QEAV<lambda_751a882b2c74d4b022dec766aa51a29a>@@AEAV<lambda_628dfdc04ba53c8bfc02c9951375f3f5>@@$$QEAV<lambda_f6c7be5f7998530c34de24c7437d6b54>@@@Z@4HA 0000000180076b76 f   libucrt:close.obj
 0001:00075b76       ?fin$0@?0???$?RV<lambda_a37b2b86f63e897a80ea819b0eb08c01>@@AEAV<lambda_38ce7e780aa69e748d6df282ebc68efe>@@V<lambda_99fb1378e971ab6e7edea83e3a7a83a2>@@@?$__crt_seh_guarded_call@H@@QEAAH$$QEAV<lambda_a37b2b86f63e897a80ea819b0eb08c01>@@AEAV<lambda_38ce7e780aa69e748d6df282ebc68efe>@@$$QEAV<lambda_99fb1378e971ab6e7edea83e3a7a83a2>@@@Z@4HA 0000000180076b76 f   libucrt:commit.obj
 0001:00075b90       _query_new_handler$fin$0   0000000180076b90 f   libucrt:new_handler.obj
 0001:00075ba6       _read$fin$0                0000000180076ba6 f   libucrt:read.obj
 0001:00075bbd       ?fin$0@?0???$common_lseek@_J@@YA_JH_JH@Z@4HA 0000000180076bbd f   libucrt:lseek.obj
 0001:00075bbd       ?fin$0@?0???$common_lseek@J@@YAJHJH@Z@4HA 0000000180076bbd f   libucrt:lseek.obj
 0001:00075bbd       _write$fin$0               0000000180076bbd f   libucrt:write.obj
 0001:00075bd4       raise$fin$0                0000000180076bd4 f   libucrt:signal.obj
 0001:00075bf5       ?fin$0@?0???$?RV<lambda_410d79af7f07d98d83a3f525b3859a53>@@AEAV<lambda_3e16ef9562a7dcce91392c22ab16ea36>@@V<lambda_38119f0e861e05405d8a144b9b982f0a>@@@?$__crt_seh_guarded_call@X@@QEAAX$$QEAV<lambda_410d79af7f07d98d83a3f525b3859a53>@@AEAV<lambda_3e16ef9562a7dcce91392c22ab16ea36>@@$$QEAV<lambda_38119f0e861e05405d8a144b9b982f0a>@@@Z@4HA 0000000180076bf5 f   libucrt:wsetlocale.obj
 0001:00075c0f       __acrt_lowio_ensure_fh_exists$fin$0 0000000180076c0f f   libucrt:osfinfo.obj
 0001:00075c0f       __acrt_initialize_lowio$fin$0 0000000180076c0f f   libucrt:ioinit.obj
 0001:00075c28       _fcloseall$fin$0           0000000180076c28 f   libucrt:closeall.obj
 0001:00075c41       ?fin$0@?0??update_thread_multibyte_data_internal@@YAPEAU__crt_multibyte_data@@QEAU__acrt_ptd@@QEAPEAU1@@Z@4HA 0000000180076c41 f   libucrt:mbctype.obj
 0001:00075c5a       __acrt_update_thread_locale_data$fin$0 0000000180076c5a f   libucrt:locale_refcounting.obj
 0001:00075c73       fclose$fin$0               0000000180076c73 f   libucrt:fclose.obj
 0001:00075c8b       _ctrlfp$filt$0             0000000180076c8b f   libucrt:fpctrl.obj
 0001:00075cc0       _IsNonwritableInCurrentImage$filt$0 0000000180076cc0 f   LIBCMT:pesect.obj
 0002:00000308       GS_ExceptionPointers       0000000180077308     LIBCMT:gs_report.obj
 0002:000003b0       ?ExceptionTemplate@?1??_CxxThrowException@@9@4UEHExceptionRecord@@B 00000001800773b0     libvcruntime:throw.obj
 0002:00000400       ?tokenTable@@3QBQEBDB      0000000180077400     libvcruntime:undname.obj
 0002:00000480       ?nameTable@@3QBQEBDB       0000000180077480     libvcruntime:undname.obj
 0002:00000710       ?rttiTable@@3QBQEBDB       0000000180077710     libvcruntime:undname.obj
 0002:00000dc8       ?module_names@?A0xbfd18cd1@@3QBQEB_WB 0000000180077dc8     libvcruntime:winapi_downlevel.obj
 0002:00000e98       ?candidate_modules@?1??try_get_FlsAlloc@@YAP6AKP6AXPEAX@Z@ZXZ@4QBW4module_id@?A0xbfd18cd1@@B 0000000180077e98     libvcruntime:winapi_downlevel.obj
 0002:00000eb0       ?candidate_modules@?1??try_get_FlsFree@@YAP6AHK@ZXZ@4QBW4module_id@?A0xbfd18cd1@@B 0000000180077eb0     libvcruntime:winapi_downlevel.obj
 0002:00000ec0       ?candidate_modules@?1??try_get_FlsGetValue@@YAP6APEAXK@ZXZ@4QBW4module_id@?A0xbfd18cd1@@B 0000000180077ec0     libvcruntime:winapi_downlevel.obj
 0002:00000ed8       ?candidate_modules@?1??try_get_FlsSetValue@@YAP6AHKPEAX@ZXZ@4QBW4module_id@?A0xbfd18cd1@@B 0000000180077ed8     libvcruntime:winapi_downlevel.obj
 0002:00000ef0       ?candidate_modules@?1??try_get_InitializeCriticalSectionEx@@YAP6AHPEAU_RTL_CRITICAL_SECTION@@KK@ZXZ@4QBW4module_id@?A0xbfd18cd1@@B 0000000180077ef0     libvcruntime:winapi_downlevel.obj
 0002:00001b30       ?errtable@@3QBUerrentry@?A0x31fdb9ec@@B 0000000180078b30     libucrt:errno.obj
 0002:00001e30       __acrt_initializers        0000000180078e30     libucrt:initialization.obj
 0002:00002c10       ?module_names@?A0x391cf84c@@3QBQEB_WB 0000000180079c10     libucrt:winapi_thunks.obj
 0002:000031b8       ?candidate_modules@?1??try_get_AreFileApisANSI@@YAP6AHXZXZ@4QBW4module_id@?A0x391cf84c@@B 000000018007a1b8     libucrt:winapi_thunks.obj
 0002:000031d0       ?candidate_modules@?1??try_get_FlsAlloc@@YAP6AKP6AXPEAX@Z@ZXZ@4QBW4module_id@?A0x391cf84c@@B 000000018007a1d0     libucrt:winapi_thunks.obj
 0002:000031e8       ?candidate_modules@?1??try_get_FlsFree@@YAP6AHK@ZXZ@4QBW4module_id@?A0x391cf84c@@B 000000018007a1e8     libucrt:winapi_thunks.obj
 0002:000031f8       ?candidate_modules@?1??try_get_FlsGetValue@@YAP6APEAXK@ZXZ@4QBW4module_id@?A0x391cf84c@@B 000000018007a1f8     libucrt:winapi_thunks.obj
 0002:00003210       ?candidate_modules@?1??try_get_FlsSetValue@@YAP6AHKPEAX@ZXZ@4QBW4module_id@?A0x391cf84c@@B 000000018007a210     libucrt:winapi_thunks.obj
 0002:00003228       ?candidate_modules@?1??try_get_InitializeCriticalSectionEx@@YAP6AHPEAU_RTL_CRITICAL_SECTION@@KK@ZXZ@4QBW4module_id@?A0x391cf84c@@B 000000018007a228     libucrt:winapi_thunks.obj
 0002:00003250       ?candidate_modules@?1??try_get_LCMapStringEx@@YAP6AHPEB_WK0HPEA_WHPEAU_nlsversioninfo@@PEAX_J@ZXZ@4QBW4module_id@?A0x391cf84c@@B 000000018007a250     libucrt:winapi_thunks.obj
 0002:00003268       ?candidate_modules@?1??try_get_LocaleNameToLCID@@YAP6AKPEB_WK@ZXZ@4QBW4module_id@?A0x391cf84c@@B 000000018007a268     libucrt:winapi_thunks.obj
 0002:00003284       ?candidate_modules@?1??try_get_AppPolicyGetProcessTerminationMethod@@YAP6AJPEAXPEAW4AppPolicyProcessTerminationMethod@@@ZXZ@4QBW4module_id@?A0x391cf84c@@B 000000018007a284     libucrt:winapi_thunks.obj
 0002:000032b0       ?_mb_locale_names@@3QBQEB_WB 000000018007a2b0     libucrt:mbctype.obj
 0002:00003340       ?LcidToLocaleNameTable@?A0x881e4c05@@3QBULcidToLocaleName@1@B 000000018007a340     libucrt:lcidtoname_downlevel.obj
 0002:00004da0       ?LocaleNameToIndexTable@?A0x881e4c05@@3QBULocaleNameIndex@1@B 000000018007bda0     libucrt:lcidtoname_downlevel.obj
 0002:00006640       __real_ninf                000000018007d640     libucrt:log10.obj
 0002:00006650       __real_inf                 000000018007d650     libucrt:log10.obj
 0002:00006660       __real_neg_qnan            000000018007d660     libucrt:log10.obj
 0002:00006670       __real_qnanbit             000000018007d670     libucrt:log10.obj
 0002:00006680       __int_1023                 000000018007d680     libucrt:log10.obj
 0002:00006690       __mask_001                 000000018007d690     libucrt:log10.obj
 0002:000066a0       __mask_mant                000000018007d6a0     libucrt:log10.obj
 0002:000066b0       __mask_mant_top8           000000018007d6b0     libucrt:log10.obj
 0002:000066c0       __mask_mant9               000000018007d6c0     libucrt:log10.obj
 0002:000066d0       __real_log10_e             000000018007d6d0     libucrt:log10.obj
 0002:000066e0       __real_log10_e_lead        000000018007d6e0     libucrt:log10.obj
 0002:000066f0       __real_log10_e_tail        000000018007d6f0     libucrt:log10.obj
 0002:00006700       __real_log10_2_lead        000000018007d700     libucrt:log10.obj
 0002:00006710       __real_log10_2_tail        000000018007d710     libucrt:log10.obj
 0002:00006720       __real_two                 000000018007d720     libucrt:log10.obj
 0002:00006730       __real_one                 000000018007d730     libucrt:log10.obj
 0002:00006740       __real_half                000000018007d740     libucrt:log10.obj
 0002:00006750       __mask_100                 000000018007d750     libucrt:log10.obj
 0002:00006760       __real_1_over_512          000000018007d760     libucrt:log10.obj
 0002:00006770       __real_1_over_2            000000018007d770     libucrt:log10.obj
 0002:00006780       __real_1_over_3            000000018007d780     libucrt:log10.obj
 0002:00006790       __real_1_over_4            000000018007d790     libucrt:log10.obj
 0002:000067a0       __real_1_over_5            000000018007d7a0     libucrt:log10.obj
 0002:000067b0       __real_1_over_6            000000018007d7b0     libucrt:log10.obj
 0002:000067c0       __real_neg_1023            000000018007d7c0     libucrt:log10.obj
 0002:000067d0       __mask_2045                000000018007d7d0     libucrt:log10.obj
 0002:000067e0       __real_threshold           000000018007d7e0     libucrt:log10.obj
 0002:000067f0       __real_near_one_lt         000000018007d7f0     libucrt:log10.obj
 0002:00006800       __real_near_one_gt         000000018007d800     libucrt:log10.obj
 0002:00006810       __real_min_norm            000000018007d810     libucrt:log10.obj
 0002:00006820       __real_notsign             000000018007d820     libucrt:log10.obj
 0002:00006830       __real_ca1                 000000018007d830     libucrt:log10.obj
 0002:00006840       __real_ca2                 000000018007d840     libucrt:log10.obj
 0002:00006850       __real_ca3                 000000018007d850     libucrt:log10.obj
 0002:00006860       __real_ca4                 000000018007d860     libucrt:log10.obj
 0002:00006870       __mask_lower               000000018007d870     libucrt:log10.obj
 0002:00006880       __flag_x_zero              000000018007d880     libucrt:log10.obj
 0002:00006884       __flag_x_neg               000000018007d884     libucrt:log10.obj
 0002:00006888       __flag_x_nan               000000018007d888     libucrt:log10.obj
 0002:000080f0       __real@433fffffffffffff    000000018007f0f0     libucrt:fpsr.obj
 0002:000080f8       __real@c33fffffffffffff    000000018007f0f8     libucrt:fpsr.obj
 0002:00009478       ?mime_png@?7??lame_get_id3v2_tag@@9@9 0000000180080478     libmp3lame:id3tag.obj
 0002:00009480       genre_names                0000000180080480     libmp3lame:id3tag.obj
 0002:00009920       ?mime_gif@?7??lame_get_id3v2_tag@@9@9 0000000180080920     libmp3lame:id3tag.obj
 0002:00009928       ?mime_jpeg@?7??lame_get_id3v2_tag@@9@9 0000000180080928     libmp3lame:id3tag.obj
 0002:000099f0       t15HB                      00000001800809f0     libmp3lame:tables.obj
 0002:00009c00       t8l                        0000000180080c00     libmp3lame:tables.obj
 0002:00009c28       t1HB                       0000000180080c28     libmp3lame:tables.obj
 0002:00009c30       t9HB                       0000000180080c30     libmp3lame:tables.obj
 0002:00009c78       t3HB                       0000000180080c78     libmp3lame:tables.obj
 0002:00009c90       t16HB                      0000000180080c90     libmp3lame:tables.obj
 0002:0000a1f0       t11l                       00000001800811f0     libmp3lame:tables.obj
 0002:0000a230       t16l                       0000000180081230     libmp3lame:tables.obj
 0002:0000a330       t5HB                       0000000180081330     libmp3lame:tables.obj
 0002:0000a350       t24HB                      0000000180081350     libmp3lame:tables.obj
 0002:0000a550       t6HB                       0000000180081550     libmp3lame:tables.obj
 0002:0000a570       t6l                        0000000180081570     libmp3lame:tables.obj
 0002:0000a580       t12HB                      0000000180081580     libmp3lame:tables.obj
 0002:0000a600       t13HB                      0000000180081600     libmp3lame:tables.obj
 0002:0000a800       t15l                       0000000180081800     libmp3lame:tables.obj
 0002:0000a900       t9l                        0000000180081900     libmp3lame:tables.obj
 0002:0000a924       VBRTag0                    0000000180081924     libmp3lame:VbrTag.obj
 0002:0000a930       t11HB                      0000000180081930     libmp3lame:tables.obj
 0002:0000a9b0       t16_5l                     00000001800819b0     libmp3lame:tables.obj
 0002:0000aaf0       t5l                        0000000180081af0     libmp3lame:tables.obj
 0002:0000ab00       t32HB                      0000000180081b00     libmp3lame:tables.obj
 0002:0000ab20       t13l                       0000000180081b20     libmp3lame:tables.obj
 0002:0000ac20       t24l                       0000000180081c20     libmp3lame:tables.obj
 0002:0000ad20       t3l                        0000000180081d20     libmp3lame:tables.obj
 0002:0000ad30       t8HB                       0000000180081d30     libmp3lame:tables.obj
 0002:0000ad78       t2HB                       0000000180081d78     libmp3lame:tables.obj
 0002:0000ad90       t12l                       0000000180081d90     libmp3lame:tables.obj
 0002:0000add0       t2l                        0000000180081dd0     libmp3lame:tables.obj
 0002:0000addc       MAGIC_INT                  0000000180081ddc     libmp3lame:vbrquantize.obj
 0002:0000ade0       t7l                        0000000180081de0     libmp3lame:tables.obj
 0002:0000ae04       VBRTag1                    0000000180081e04     libmp3lame:VbrTag.obj
 0002:0000ae10       t7HB                       0000000180081e10     libmp3lame:tables.obj
 0002:0000ae58       ?str@?1??get_lame_version@@9@9 0000000180081e58     libmp3lame:version.obj
 0002:0000ae84       tab0                       0000000180081e84     libmpg123:layer3.obj
 0002:0000ae88       t33HB                      0000000180081e88     libmp3lame:tables.obj
 0002:0000aea8       ?str@?1??get_lame_short_version@@9@9 0000000180081ea8     libmp3lame:version.obj
 0002:0000b2b0       t10HB                      00000001800822b0     libmp3lame:tables.obj
 0002:0000b344       ?step@?1??INT123_synth_4to1_s32_i386@@9@9 0000000180082344     libmpg123:synth_s32.obj
 0002:0000b348       ?str@?1??get_lame_url@@9@9 0000000180082348     libmp3lame:version.obj
 0002:0000b360       t10l                       0000000180082360     libmp3lame:tables.obj
 0002:0000b3a0       ?strXX@?1??get_lame_os_bitness@@9@9 00000001800823a0     libmp3lame:version.obj
 0002:0000b3a8       ?str32@?1??get_lame_os_bitness@@9@9 00000001800823a8     libmp3lame:version.obj
 0002:0000b3b0       ?str64@?1??get_lame_os_bitness@@9@9 00000001800823b0     libmp3lame:version.obj
 0002:0000b3b8       tab_mask_add_delta         00000001800823b8     libmp3lame:psymodel.obj
 0002:0000b3e0       vbr_old_switch_map         00000001800823e0     libmp3lame:presets.obj
 0002:0000b6d0       vbr_mt_psy_switch_map      00000001800826d0     libmp3lame:presets.obj
 0002:0000b9bc       ?step@?1??INT123_synth_4to1_s32@@9@9 00000001800829bc     libmpg123:synth_s32.obj
 0002:0000b9c0       ?sk@?DG@??psymodel_init@@9@9 00000001800829c0     libmp3lame:psymodel.obj
 0002:0000b9f0       tab                        00000001800829f0     libmp3lame:psymodel.obj
 0002:0000ba14       ?step@?1??INT123_synth_1to1_s32@@9@9 0000000180082a14     libmpg123:synth_s32.obj
 0002:0000ba18       ?table2@?1??vbrpsy_mask_add@@9@9 0000000180082a18     libmp3lame:psymodel.obj
 0002:0000ba40       ?fircoef@?3??vbrpsy_attack_detection@@9@9 0000000180082a40     libmp3lame:psymodel.obj
 0002:0000ba68       max_range_long_lsf_pretab  0000000180082a68     libmp3lame:vbrquantize.obj
 0002:0000ba80       ?regcoef_l@?1??pecalc_l@@9@9 0000000180082a80     libmp3lame:psymodel.obj
 0002:0000bad4       ?step@?1??INT123_synth_2to1_s32_i386@@9@9 0000000180082ad4     libmpg123:synth_s32.obj
 0002:0000bad8       MAGIC_FLOAT                0000000180082ad8     libmp3lame:vbrquantize.obj
 0002:0000bae0       ?regcoef_s@?1??pecalc_s@@9@9 0000000180082ae0     libmp3lame:psymodel.obj
 0002:0000c23c       ?step@?1??INT123_synth_2to1_s32@@9@9 000000018008323c     libmpg123:synth_s32.obj
 0002:0000c240       payload_long               0000000180083240     libmp3lame:quantize_pvt.obj
 0002:0000c260       payload_short              0000000180083260     libmp3lame:quantize_pvt.obj
 0002:0000c3f8       frame_type                 00000001800833f8     libmpg123:id3.obj
 0002:0000c410       crc16_lookup               0000000180083410     libmp3lame:VbrTag.obj
 0002:0000c810       ABYule                     0000000180083810     libmp3lame:gain_analysis.obj
 0002:0000cb04       ?step@?1??INT123_synth_1to1_s32_i386@@9@9 0000000180083b04     libmpg123:synth_s32.obj
 0002:0000cb08       enc_8bit_range             0000000180083b08     libmpg123:format.obj
 0002:0000cb10       ABButter                   0000000180083b10     libmp3lame:gain_analysis.obj
 0002:0000cbc4       ?step@?1??INT123_synth_ntom_s32@@9@9 0000000180083bc4     libmpg123:synth_s32.obj
 0002:0000cbc8       enc_float_range            0000000180083bc8     libmpg123:format.obj
 0002:0000cbd0       ?fircoef@?BN@??lame_encode_mp3_frame@@9@9 0000000180083bd0     libmp3lame:encoder.obj
 0002:0000cbf4       ?step@?1??INT123_synth_4to1_i386@@9@9 0000000180083bf4     libmpg123:synth.obj
 0002:0000cbf8       tab2                       0000000180083bf8     libmpg123:layer3.obj
 0002:0000cca0       scale_mixed                0000000180083ca0     libmp3lame:takehiro.obj
 0002:0000cce0       subdv_table                0000000180083ce0     libmp3lame:takehiro.obj
 0002:0000cd98       huf_tbl_noESC              0000000180083d98     libmp3lame:takehiro.obj
 0002:0000cdd4       ?step@?1??INT123_synth_2to1_i386@@9@9 0000000180083dd4     libmpg123:synth.obj
 0002:0000cdd8       tab3                       0000000180083dd8     libmpg123:layer3.obj
 0002:0000ce00       slen1_n                    0000000180083e00     libmp3lame:takehiro.obj
 0002:0000ce40       slen2_n                    0000000180083e40     libmp3lame:takehiro.obj
 0002:0000ce80       count_fncs                 0000000180083e80     libmp3lame:takehiro.obj
 0002:0000cf00       scale_short                0000000180083f00     libmp3lame:takehiro.obj
 0002:0000cf40       ?log2tab@?P@??mpeg2_scale_bitcount@@9@9 0000000180083f40     libmp3lame:takehiro.obj
 0002:0000cf80       max_range_sfac_tab         0000000180083f80     libmp3lame:takehiro.obj
 0002:0000cfe0       scale_long                 0000000180083fe0     libmp3lame:takehiro.obj
 0002:0000d020       costab                     0000000180084020     libmp3lame:fft.obj
 0002:0000d040       rv_tbl                     0000000180084040     libmp3lame:fft.obj
 0002:0000d0c0       max_range_short            00000001800840c0     libmp3lame:vbrquantize.obj
 0002:0000d0e8       encoding_widths            00000001800840e8     libmpg123:id3.obj
 0002:0000d0f8       freqs                      00000001800840f8     libmpg123:parse.obj
 0002:0000d120       max_range_long             0000000180084120     libmp3lame:vbrquantize.obj
 0002:0000d138       text_converters            0000000180084138     libmpg123:id3.obj
 0002:0000d158       ?step@?1??INT123_synth_4to1@@9@9 0000000180084158     libmpg123:synth.obj
 0002:0000d160       enwindow                   0000000180084160     libmp3lame:newmdct.obj
 0002:0000d5d4       ?step@?1??INT123_synth_1to1_i386@@9@9 00000001800845d4     libmpg123:synth.obj
 0002:0000d5d8       ?step@?1??INT123_synth_ntom@@9@9 00000001800845d8     libmpg123:synth.obj
 0002:0000d5e0       win                        00000001800845e0     libmp3lame:newmdct.obj
 0002:0000d820       order                      0000000180084820     libmp3lame:newmdct.obj
 0002:0000d8a0       decname                    00000001800848a0     libmpg123:optimize.obj
 0002:0000d9a0       synth_base                 00000001800849a0     libmpg123:optimize.obj
 0002:0000dba0       good_encodings             0000000180084ba0     libmpg123:format.obj
 0002:0000dbd0       my_rates                   0000000180084bd0     libmpg123:format.obj
 0002:0000dbf4       ?step@?1??INT123_synth_1to1@@9@9 0000000180084bf4     libmpg123:synth.obj
 0002:0000dbf8       ?step@?1??INT123_synth_2to1@@9@9 0000000180084bf8     libmpg123:synth.obj
 0002:0000dc00       my_encodings               0000000180084c00     libmpg123:format.obj
 0002:0000dc30       alloc_1                    0000000180084c30     libmpg123:layer2.obj
 0002:0000e0e0       mulmul                     00000001800850e0     libmpg123:layer2.obj
 0002:0000e1b8       ?step@?1??INT123_synth_2to1_real_i386@@9@9 00000001800851b8     libmpg123:synth_real.obj
 0002:0000e1c0       alloc_0                    00000001800851c0     libmpg123:layer2.obj
 0002:0000e640       alloc_2                    0000000180085640     libmpg123:layer2.obj
 0002:0000e780       alloc_4                    0000000180085780     libmpg123:layer2.obj
 0002:0000ea90       alloc_3                    0000000180085a90     libmpg123:layer2.obj
 0002:0000ec50       tab15                      0000000180085c50     libmpg123:layer3.obj
 0002:0000f050       tab_c1                     0000000180086050     libmpg123:layer3.obj
 0002:0000f090       tab9                       0000000180086090     libmpg123:layer3.obj
 0002:0000f120       tab8                       0000000180086120     libmpg123:layer3.obj
 0002:0000f1b0       tab10                      00000001800861b0     libmpg123:layer3.obj
 0002:0000f2b0       ht                         00000001800862b0     libmpg123:layer3.obj
 0002:0000f4b0       tab11                      00000001800864b0     libmpg123:layer3.obj
 0002:0000f5b0       tab5                       00000001800865b0     libmpg123:layer3.obj
 0002:0000f5f0       tab16                      00000001800865f0     libmpg123:layer3.obj
 0002:0000f9f0       bandInfo                   00000001800869f0     libmpg123:layer3.obj
 0002:0000fdd0       tab6                       0000000180086dd0     libmpg123:layer3.obj
 0002:0000fe10       tab12                      0000000180086e10     libmpg123:layer3.obj
 0002:0000ff10       tab24                      0000000180086f10     libmpg123:layer3.obj
 0002:00010310       tab7                       0000000180087310     libmpg123:layer3.obj
 0002:000103a0       htc                        00000001800873a0     libmpg123:layer3.obj
 0002:000103c0       tab_c0                     00000001800873c0     libmpg123:layer3.obj
 0002:00010400       tab13                      0000000180087400     libmpg123:layer3.obj
 0002:00010800       tab1                       0000000180087800     libmpg123:layer3.obj
 0002:00010810       tabsel_123                 0000000180087810     libmpg123:parse.obj
 0002:00010990       intwinbase                 0000000180087990     libmpg123:tabinit.obj
 0002:00010d94       ?step@?1??INT123_synth_4to1_real_i386@@9@9 0000000180087d94     libmpg123:synth_real.obj
 0002:00010d98       ?step@?1??INT123_synth_ntom_real@@9@9 0000000180087d98     libmpg123:synth_real.obj
 0002:00010dc8       ?step@?1??INT123_synth_2to1_real@@9@9 0000000180087dc8     libmpg123:synth_real.obj
 0002:00010dcc       ?step@?1??INT123_synth_4to1_real@@9@9 0000000180087dcc     libmpg123:synth_real.obj
 0002:00010dd0       ?step@?1??INT123_synth_1to1_real@@9@9 0000000180087dd0     libmpg123:synth_real.obj
 0002:00010dd4       ?step@?1??INT123_synth_1to1_real_i386@@9@9 0000000180087dd4     libmpg123:synth_real.obj
 0002:00010dd8       ?step@?1??INT123_synth_1to1_8bit_i386@@9@9 0000000180087dd8     libmpg123:synth_8bit.obj
 0002:00010ddc       ?step@?1??INT123_synth_4to1_8bit_i386@@9@9 0000000180087ddc     libmpg123:synth_8bit.obj
 0002:00010de0       ?step@?1??INT123_synth_2to1_8bit_i386@@9@9 0000000180087de0     libmpg123:synth_8bit.obj
 0002:00010de4       ?step@?1??INT123_synth_2to1_8bit@@9@9 0000000180087de4     libmpg123:synth_8bit.obj
 0002:00010de8       ?step@?1??INT123_synth_1to1_8bit@@9@9 0000000180087de8     libmpg123:synth_8bit.obj
 0002:00010dec       ?step@?1??INT123_synth_ntom_8bit@@9@9 0000000180087dec     libmpg123:synth_8bit.obj
 0002:00010df0       ?step@?1??INT123_synth_4to1_8bit@@9@9 0000000180087df0     libmpg123:synth_8bit.obj
 0002:00010df8       costab                     0000000180087df8     liblamevectorroutines:xmm_quantize_sub.obj
 0002:00016890       s_Data                     000000018008d890     LIBCMT:svml_dpow2_sse2.obj
 0002:0001d320       _2il0floatpacket_14        0000000180094320     LIBCMT:svml_dpow2_sse2.obj
 0002:0001d328       _2il0floatpacket_15        0000000180094328     LIBCMT:svml_dpow2_sse2.obj
 0002:0001d330       _2il0floatpacket_16        0000000180094330     LIBCMT:svml_dpow2_sse2.obj
 0002:0001d3d0       L_real_piby2_1             00000001800943d0     libucrt:cos.obj
 0002:0001d3e0       L_real_piby2_1tail         00000001800943e0     libucrt:cos.obj
 0002:0001d3f0       L_real_piby2_2             00000001800943f0     libucrt:cos.obj
 0002:0001d400       L_real_piby2_2tail         0000000180094400     libucrt:cos.obj
 0002:0001d410       L_one                      0000000180094410     libucrt:cos.obj
 0002:0001d420       L_signbit                  0000000180094420     libucrt:cos.obj
 0002:0001d430       L_int_one                  0000000180094430     libucrt:cos.obj
 0002:0001d440       L_int_two                  0000000180094440     libucrt:cos.obj
 0002:0001d450       L_2_by_pi                  0000000180094450     libucrt:cos.obj
 0002:0001d458       L_one_half                 0000000180094458     libucrt:cos.obj
 0002:0001d460       L_neg_one_half             0000000180094460     libucrt:cos.obj
 0002:0001d468       L_two_to_neg_27            0000000180094468     libucrt:cos.obj
 0002:0001d470       L_two_to_neg_13            0000000180094470     libucrt:cos.obj
 0002:0001d478       L_piby4                    0000000180094478     libucrt:cos.obj
 0002:0001d480       L_small_arg_cw             0000000180094480     libucrt:cos.obj
 0002:0001d488       L_small_arg_bdl            0000000180094488     libucrt:cos.obj
 0002:0001d490       L_sign_mask                0000000180094490     libucrt:cos.obj
 0002:0001d498       L__inf_mask_64             0000000180094498     libucrt:cos.obj
 0002:0001d4a0       L_2_to_32                  00000001800944a0     libucrt:cos.obj
 0002:0001d4b0       __flag_x_nan               00000001800944b0     libucrt:exp.obj
 0002:0001d4b4       __flag_y_zero              00000001800944b4     libucrt:exp.obj
 0002:0001d4b8       __flag_y_inf               00000001800944b8     libucrt:exp.obj
 0002:0001d4c0       L__real_1_by_720           00000001800944c0     libucrt:exp.obj
 0002:0001d4d0       L__real_1_by_120           00000001800944d0     libucrt:exp.obj
 0002:0001d4e0       L__real_1_by_6             00000001800944e0     libucrt:exp.obj
 0002:0001d4f0       L__real_1_by_2             00000001800944f0     libucrt:exp.obj
 0002:0001d500       L__real_1_by_24            0000000180094500     libucrt:exp.obj
 0002:0001d510       L__log2_by_64_mtail_mhead  0000000180094510     libucrt:exp.obj
 0002:0001d520       L__ln_of_smallest_normal   0000000180094520     libucrt:exp.obj
 0002:0001d528       L__zero                    0000000180094528     libucrt:exp.obj
 0002:0001d530       L__max_exp_arg             0000000180094530     libucrt:exp.obj
 0002:0001d538       L__denormal_tiny_threshold 0000000180094538     libucrt:exp.obj
 0002:0001d540       L__min_exp_arg             0000000180094540     libucrt:exp.obj
 0002:0001d548       L__real_64_by_log2         0000000180094548     libucrt:exp.obj
 0002:0001d550       L__positive_infinity       0000000180094550     libucrt:exp.obj
 0002:0001d558       L__negative_infinity       0000000180094558     libucrt:exp.obj
 0002:0001d560       L__real_qnanbit            0000000180094560     libucrt:exp.obj
 0002:0001d568       L__real_x_near0_threshold  0000000180094568     libucrt:exp.obj
 0002:0001d570       L__log2_by_64_mhead        0000000180094570     libucrt:exp.obj
 0002:0001d578       L__log2_by_64_mtail        0000000180094578     libucrt:exp.obj
 0002:0001d580       L__real_smallest_denormal  0000000180094580     libucrt:exp.obj
 0002:0001d588       L__real_one                0000000180094588     libucrt:exp.obj
 0002:0001d590       L__2_to_neg_26             0000000180094590     libucrt:exp.obj
 0002:0001d598       L__2_to_32                 0000000180094598     libucrt:exp.obj
 0002:0001d5a0       L__min_normal              00000001800945a0     libucrt:exp.obj
 0002:0001d5a8       L__2_to_neg_63             00000001800945a8     libucrt:exp.obj
 0002:0001d5b0       __real_ninf                00000001800945b0     libucrt:log.obj
 0002:0001d5c0       __real_inf                 00000001800945c0     libucrt:log.obj
 0002:0001d5d0       __real_neg_qnan            00000001800945d0     libucrt:log.obj
 0002:0001d5e0       __real_qnanbit             00000001800945e0     libucrt:log.obj
 0002:0001d5f0       __real_min_norm            00000001800945f0     libucrt:log.obj
 0002:0001d600       __real_mant                0000000180094600     libucrt:log.obj
 0002:0001d610       __mask_1023                0000000180094610     libucrt:log.obj
 0002:0001d620       __mask_001                 0000000180094620     libucrt:log.obj
 0002:0001d630       __mask_mant_all8           0000000180094630     libucrt:log.obj
 0002:0001d640       __mask_mant9               0000000180094640     libucrt:log.obj
 0002:0001d650       __real_two                 0000000180094650     libucrt:log.obj
 0002:0001d660       __real_one                 0000000180094660     libucrt:log.obj
 0002:0001d670       __real_near_one_lt         0000000180094670     libucrt:log.obj
 0002:0001d680       __real_near_one_gt         0000000180094680     libucrt:log.obj
 0002:0001d690       __real_half                0000000180094690     libucrt:log.obj
 0002:0001d6a0       __mask_100                 00000001800946a0     libucrt:log.obj
 0002:0001d6b0       __real_1_over_512          00000001800946b0     libucrt:log.obj
 0002:0001d6c0       __real_1_over_2            00000001800946c0     libucrt:log.obj
 0002:0001d6d0       __real_1_over_3            00000001800946d0     libucrt:log.obj
 0002:0001d6e0       __real_1_over_4            00000001800946e0     libucrt:log.obj
 0002:0001d6f0       __real_1_over_5            00000001800946f0     libucrt:log.obj
 0002:0001d700       __real_1_over_6            0000000180094700     libucrt:log.obj
 0002:0001d710       __mask_1023_f              0000000180094710     libucrt:log.obj
 0002:0001d720       __mask_2045                0000000180094720     libucrt:log.obj
 0002:0001d730       __real_threshold           0000000180094730     libucrt:log.obj
 0002:0001d740       __real_notsign             0000000180094740     libucrt:log.obj
 0002:0001d750       __real_ca1                 0000000180094750     libucrt:log.obj
 0002:0001d760       __real_ca2                 0000000180094760     libucrt:log.obj
 0002:0001d770       __real_ca3                 0000000180094770     libucrt:log.obj
 0002:0001d780       __real_ca4                 0000000180094780     libucrt:log.obj
 0002:0001d790       __real_log2_lead           0000000180094790     libucrt:log.obj
 0002:0001d7a0       __real_log2_tail           00000001800947a0     libucrt:log.obj
 0002:0001d7b0       __flag_x_zero              00000001800947b0     libucrt:log.obj
 0002:0001d7b4       __flag_x_neg               00000001800947b4     libucrt:log.obj
 0002:0001d7b8       __flag_x_nan               00000001800947b8     libucrt:log.obj
 0002:0001d7c0       __real_one                 00000001800947c0     libucrt:log10f.obj
 0002:0001d7d0       __real_two                 00000001800947d0     libucrt:log10f.obj
 0002:0001d7e0       __real_ninf                00000001800947e0     libucrt:log10f.obj
 0002:0001d7f0       __real_inf                 00000001800947f0     libucrt:log10f.obj
 0002:0001d800       __real_nan                 0000000180094800     libucrt:log10f.obj
 0002:0001d810       __real_ef                  0000000180094810     libucrt:log10f.obj
 0002:0001d820       __real_neg_qnan            0000000180094820     libucrt:log10f.obj
 0002:0001d830       __real_sign                0000000180094830     libucrt:log10f.obj
 0002:0001d840       __real_notsign             0000000180094840     libucrt:log10f.obj
 0002:0001d850       __real_qnanbit             0000000180094850     libucrt:log10f.obj
 0002:0001d860       __real_mant                0000000180094860     libucrt:log10f.obj
 0002:0001d870       __mask_127                 0000000180094870     libucrt:log10f.obj
 0002:0001d880       __mask_mant_all7           0000000180094880     libucrt:log10f.obj
 0002:0001d890       __mask_mant8               0000000180094890     libucrt:log10f.obj
 0002:0001d8a0       __real_ca1                 00000001800948a0     libucrt:log10f.obj
 0002:0001d8b0       __real_ca2                 00000001800948b0     libucrt:log10f.obj
 0002:0001d8c0       __real_log2_lead           00000001800948c0     libucrt:log10f.obj
 0002:0001d8d0       __real_log2_tail           00000001800948d0     libucrt:log10f.obj
 0002:0001d8e0       __real_half                00000001800948e0     libucrt:log10f.obj
 0002:0001d8f0       __real_log10_e_lead        00000001800948f0     libucrt:log10f.obj
 0002:0001d900       __real_log10_e_tail        0000000180094900     libucrt:log10f.obj
 0002:0001d910       __real_log10_2_lead        0000000180094910     libucrt:log10f.obj
 0002:0001d920       __real_log10_2_tail        0000000180094920     libucrt:log10f.obj
 0002:0001d930       __real_log10_e             0000000180094930     libucrt:log10f.obj
 0002:0001d940       __mask_lower               0000000180094940     libucrt:log10f.obj
 0002:0001d950       __real_neg127              0000000180094950     libucrt:log10f.obj
 0002:0001d960       __mask_253                 0000000180094960     libucrt:log10f.obj
 0002:0001d970       __real_threshold           0000000180094970     libucrt:log10f.obj
 0002:0001d980       __mask_01                  0000000180094980     libucrt:log10f.obj
 0002:0001d990       __mask_80                  0000000180094990     libucrt:log10f.obj
 0002:0001d9a0       __real_3b800000            00000001800949a0     libucrt:log10f.obj
 0002:0001d9b0       __real_1_over_3            00000001800949b0     libucrt:log10f.obj
 0002:0001d9c0       __real_1_over_2            00000001800949c0     libucrt:log10f.obj
 0002:0001d9d0       __flag_x_zero              00000001800949d0     libucrt:log10f.obj
 0002:0001d9d4       __flag_x_neg               00000001800949d4     libucrt:log10f.obj
 0002:0001d9d8       __flag_x_nan               00000001800949d8     libucrt:log10f.obj
 0002:0001d9e0       __flag_x_one_y_snan        00000001800949e0     libucrt:pow.obj
 0002:0001d9e4       __flag_x_zero_z_inf        00000001800949e4     libucrt:pow.obj
 0002:0001d9e8       __flag_x_nan               00000001800949e8     libucrt:pow.obj
 0002:0001d9ec       __flag_y_nan               00000001800949ec     libucrt:pow.obj
 0002:0001d9f0       __flag_x_nan_y_nan         00000001800949f0     libucrt:pow.obj
 0002:0001d9f4       __flag_x_neg_y_notint      00000001800949f4     libucrt:pow.obj
 0002:0001d9f8       __flag_z_zero              00000001800949f8     libucrt:pow.obj
 0002:0001d9fc       __flag_z_denormal          00000001800949fc     libucrt:pow.obj
 0002:0001da00       __flag_z_inf               0000000180094a00     libucrt:pow.obj
 0002:0001da10       __ay_max_bound             0000000180094a10     libucrt:pow.obj
 0002:0001da18       __ay_min_bound             0000000180094a18     libucrt:pow.obj
 0002:0001da20       __sign_mask                0000000180094a20     libucrt:pow.obj
 0002:0001da28       __sign_and_exp_mask        0000000180094a28     libucrt:pow.obj
 0002:0001da30       __exp_mask                 0000000180094a30     libucrt:pow.obj
 0002:0001da38       __neg_inf                  0000000180094a38     libucrt:pow.obj
 0002:0001da40       __pos_inf                  0000000180094a40     libucrt:pow.obj
 0002:0001da48       __pos_one                  0000000180094a48     libucrt:pow.obj
 0002:0001da50       __pos_zero                 0000000180094a50     libucrt:pow.obj
 0002:0001da58       __exp_mant_mask            0000000180094a58     libucrt:pow.obj
 0002:0001da60       __mant_mask                0000000180094a60     libucrt:pow.obj
 0002:0001da68       __ind_pattern              0000000180094a68     libucrt:pow.obj
 0002:0001da70       __neg_qnan                 0000000180094a70     libucrt:pow.obj
 0002:0001da78       __qnan                     0000000180094a78     libucrt:pow.obj
 0002:0001da80       __qnan_set                 0000000180094a80     libucrt:pow.obj
 0002:0001da88       __neg_one                  0000000180094a88     libucrt:pow.obj
 0002:0001da90       __neg_zero                 0000000180094a90     libucrt:pow.obj
 0002:0001da98       __exp_shift                0000000180094a98     libucrt:pow.obj
 0002:0001daa0       __exp_bias                 0000000180094aa0     libucrt:pow.obj
 0002:0001daa8       __exp_bias_m1              0000000180094aa8     libucrt:pow.obj
 0002:0001dab0       __yexp_53                  0000000180094ab0     libucrt:pow.obj
 0002:0001dab8       __mant_full                0000000180094ab8     libucrt:pow.obj
 0002:0001dac0       __1_before_mant            0000000180094ac0     libucrt:pow.obj
 0002:0001dac8       __mask_mant_all8           0000000180094ac8     libucrt:pow.obj
 0002:0001dad0       __mask_mant9               0000000180094ad0     libucrt:pow.obj
 0002:0001dae0       __real_fffffffff8000000    0000000180094ae0     libucrt:pow.obj
 0002:0001daf0       __mask_8000000000000000    0000000180094af0     libucrt:pow.obj
 0002:0001db00       __real_4090040000000000    0000000180094b00     libucrt:pow.obj
 0002:0001db10       __real_C090C80000000000    0000000180094b10     libucrt:pow.obj
 0002:0001db20       __real_ninf                0000000180094b20     libucrt:pow.obj
 0002:0001db30       __real_inf                 0000000180094b30     libucrt:pow.obj
 0002:0001db40       __real_nan                 0000000180094b40     libucrt:pow.obj
 0002:0001db50       __real_mant                0000000180094b50     libucrt:pow.obj
 0002:0001db60       __mask_1023                0000000180094b60     libucrt:pow.obj
 0002:0001db70       __mask_001                 0000000180094b70     libucrt:pow.obj
 0002:0001db80       __real_log2_lead           0000000180094b80     libucrt:pow.obj
 0002:0001db90       __real_log2_tail           0000000180094b90     libucrt:pow.obj
 0002:0001dba0       __real_two                 0000000180094ba0     libucrt:pow.obj
 0002:0001dbb0       __real_one                 0000000180094bb0     libucrt:pow.obj
 0002:0001dbc0       __real_half                0000000180094bc0     libucrt:pow.obj
 0002:0001dbd0       __mask_100                 0000000180094bd0     libucrt:pow.obj
 0002:0001dbe0       __real_1_over_2            0000000180094be0     libucrt:pow.obj
 0002:0001dbf0       __real_1_over_3            0000000180094bf0     libucrt:pow.obj
 0002:0001dc00       __real_1_over_4            0000000180094c00     libucrt:pow.obj
 0002:0001dc10       __real_1_over_5            0000000180094c10     libucrt:pow.obj
 0002:0001dc20       __real_1_over_6            0000000180094c20     libucrt:pow.obj
 0002:0001dc30       __real_1_over_7            0000000180094c30     libucrt:pow.obj
 0002:0001dc40       __mask_1023_f              0000000180094c40     libucrt:pow.obj
 0002:0001dc50       __mask_2045                0000000180094c50     libucrt:pow.obj
 0002:0001dc60       __real_threshold           0000000180094c60     libucrt:pow.obj
 0002:0001dc70       __real_notsign             0000000180094c70     libucrt:pow.obj
 0002:0001dc80       __log_F_inv_head           0000000180094c80     libucrt:pow.obj
 0002:0001e490       __log_F_inv_tail           0000000180095490     libucrt:pow.obj
 0002:0001eca0       __denormal_threshold       0000000180095ca0     libucrt:pow.obj
 0002:0001ecb0       __enable_almost_inf        0000000180095cb0     libucrt:pow.obj
 0002:0001ecc0       __real_zero                0000000180095cc0     libucrt:pow.obj
 0002:0001ecd0       __real_smallest_denormal   0000000180095cd0     libucrt:pow.obj
 0002:0001ece0       __denormal_tiny_threshold  0000000180095ce0     libucrt:pow.obj
 0002:0001ecf0       __real_p65536              0000000180095cf0     libucrt:pow.obj
 0002:0001ed00       __real_m68800              0000000180095d00     libucrt:pow.obj
 0002:0001ed10       __real_64_by_log2          0000000180095d10     libucrt:pow.obj
 0002:0001ed20       __real_log2_by_64_head     0000000180095d20     libucrt:pow.obj
 0002:0001ed30       __real_log2_by_64_tail     0000000180095d30     libucrt:pow.obj
 0002:0001ed40       __real_1_by_720            0000000180095d40     libucrt:pow.obj
 0002:0001ed50       __real_1_by_120            0000000180095d50     libucrt:pow.obj
 0002:0001ed60       __real_1_by_24             0000000180095d60     libucrt:pow.obj
 0002:0001ed70       __real_1_by_6              0000000180095d70     libucrt:pow.obj
 0002:0001ed80       __real_1_by_2              0000000180095d80     libucrt:pow.obj
 0002:0001ed90       __flag_x_one_y_snan        0000000180095d90     libucrt:powf.obj
 0002:0001ed94       __flag_x_zero_z_inf        0000000180095d94     libucrt:powf.obj
 0002:0001ed98       __flag_x_nan               0000000180095d98     libucrt:powf.obj
 0002:0001ed9c       __flag_y_nan               0000000180095d9c     libucrt:powf.obj
 0002:0001eda0       __flag_x_nan_y_nan         0000000180095da0     libucrt:powf.obj
 0002:0001eda4       __flag_x_neg_y_notint      0000000180095da4     libucrt:powf.obj
 0002:0001eda8       __flag_z_zero              0000000180095da8     libucrt:powf.obj
 0002:0001edac       __flag_z_denormal          0000000180095dac     libucrt:powf.obj
 0002:0001edb0       __flag_z_inf               0000000180095db0     libucrt:powf.obj
 0002:0001edb4       L__1_by_3                  0000000180095db4     libucrt:powf.obj
 0002:0001edbc       L__log2                    0000000180095dbc     libucrt:powf.obj
 0002:0001edc4       L__max_exp_arg             0000000180095dc4     libucrt:powf.obj
 0002:0001edcc       L__min_exp_arg             0000000180095dcc     libucrt:powf.obj
 0002:0001edd4       L__real_log2_by_64         0000000180095dd4     libucrt:powf.obj
 0002:0001eddc       L__1_by_6                  0000000180095ddc     libucrt:powf.obj
 0002:0001ede4       L__real_threshold          0000000180095de4     libucrt:powf.obj
 0002:0001edec       L__real_one                0000000180095dec     libucrt:powf.obj
 0002:0001edf4       L__real_two                0000000180095df4     libucrt:powf.obj
 0002:0001edfc       L__neg_zero                0000000180095dfc     libucrt:powf.obj
 0002:0001ee10       L__real_ca42               0000000180095e10     libucrt:powf.obj
 0002:0001ee18       L__real_ca4                0000000180095e18     libucrt:powf.obj
 0002:0001ee20       L__real_ca31               0000000180095e20     libucrt:powf.obj
 0002:0001ee28       L__real_ca3                0000000180095e28     libucrt:powf.obj
 0002:0001ee30       L__clear_sign              0000000180095e30     libucrt:powf.obj
 0002:0001ee40       L__real_64_by_log2         0000000180095e40     libucrt:powf.obj
 0002:0001ee50       L__1_by_2                  0000000180095e50     libucrt:powf.obj
 0002:0001ee60       L__1023                    0000000180095e60     libucrt:powf.obj
 0002:0001ee70       L__xexp_bits_xmantissa_bits 0000000180095e70     libucrt:powf.obj
 0002:0001f690       L_real_piby2_1             0000000180096690     libucrt:sin.obj
 0002:0001f6a0       L_real_piby2_1tail         00000001800966a0     libucrt:sin.obj
 0002:0001f6b0       L_real_piby2_2             00000001800966b0     libucrt:sin.obj
 0002:0001f6c0       L_real_piby2_2tail         00000001800966c0     libucrt:sin.obj
 0002:0001f6d0       L_one                      00000001800966d0     libucrt:sin.obj
 0002:0001f6e0       L_signbit                  00000001800966e0     libucrt:sin.obj
 0002:0001f6f0       L_int_one                  00000001800966f0     libucrt:sin.obj
 0002:0001f700       L_int_two                  0000000180096700     libucrt:sin.obj
 0002:0001f710       L_int_three                0000000180096710     libucrt:sin.obj
 0002:0001f720       L_2_by_pi                  0000000180096720     libucrt:sin.obj
 0002:0001f728       L_one_half                 0000000180096728     libucrt:sin.obj
 0002:0001f730       L_one_sixth                0000000180096730     libucrt:sin.obj
 0002:0001f738       L_two_to_neg_27            0000000180096738     libucrt:sin.obj
 0002:0001f740       L_two_to_neg_13            0000000180096740     libucrt:sin.obj
 0002:0001f748       L_piby4                    0000000180096748     libucrt:sin.obj
 0002:0001f750       L_small_arg_cw             0000000180096750     libucrt:sin.obj
 0002:0001f758       L_small_arg_bdl            0000000180096758     libucrt:sin.obj
 0002:0001f760       L__inf_mask_64             0000000180096760     libucrt:sin.obj
 0002:0001f768       L_near_one                 0000000180096768     libucrt:sin.obj
 0002:0001f770       L_signbit                  0000000180096770     libucrt:tan.obj
 0002:0001f780       L_sign_mask                0000000180096780     libucrt:tan.obj
 0002:0001f790       L_int_one                  0000000180096790     libucrt:tan.obj
 0002:0001f7a0       L_twobypi                  00000001800967a0     libucrt:tan.obj
 0002:0001f7b0       L_point_333                00000001800967b0     libucrt:tan.obj
 0002:0001f7c0       L_tan_p0                   00000001800967c0     libucrt:tan.obj
 0002:0001f7d0       L_tan_p2                   00000001800967d0     libucrt:tan.obj
 0002:0001f7e0       L_tan_p4                   00000001800967e0     libucrt:tan.obj
 0002:0001f7f0       L_tan_q0                   00000001800967f0     libucrt:tan.obj
 0002:0001f800       L_tan_q2                   0000000180096800     libucrt:tan.obj
 0002:0001f810       L_tan_q4                   0000000180096810     libucrt:tan.obj
 0002:0001f820       L_tan_q6                   0000000180096820     libucrt:tan.obj
 0002:0001f830       L_half_mask                0000000180096830     libucrt:tan.obj
 0002:0001f840       L_piby4_lead               0000000180096840     libucrt:tan.obj
 0002:0001f850       L_piby4_tail               0000000180096850     libucrt:tan.obj
 0002:0001f860       L_piby2_1                  0000000180096860     libucrt:tan.obj
 0002:0001f868       L_piby2_1tail              0000000180096868     libucrt:tan.obj
 0002:0001f870       L_piby2_2                  0000000180096870     libucrt:tan.obj
 0002:0001f878       L_piby2_2tail              0000000180096878     libucrt:tan.obj
 0002:0001f880       L_piby2_3                  0000000180096880     libucrt:tan.obj
 0002:0001f888       L_piby2_3tail              0000000180096888     libucrt:tan.obj
 0002:0001f890       L_two_to_neg_27            0000000180096890     libucrt:tan.obj
 0002:0001f898       L_two_to_neg_13            0000000180096898     libucrt:tan.obj
 0002:0001f8a0       L_inf_mask_64              00000001800968a0     libucrt:tan.obj
 0002:0001f8a8       L_point_five               00000001800968a8     libucrt:tan.obj
 0002:0001f8b0       L_point_68                 00000001800968b0     libucrt:tan.obj
 0002:0001f8b8       L_n_point_68               00000001800968b8     libucrt:tan.obj
 0002:0001f8c0       L_zero                     00000001800968c0     libucrt:tan.obj
 0002:0001f8c8       L_one                      00000001800968c8     libucrt:tan.obj
 0002:0001f8d0       L_n_one                    00000001800968d0     libucrt:tan.obj
 0002:0001f8d8       L_two                      00000001800968d8     libucrt:tan.obj
 0002:0001f8e0       L_near_one                 00000001800968e0     libucrt:tan.obj
 0002:0001f8e8       L_moderate_arg_cw          00000001800968e8     libucrt:tan.obj
 0002:0001f8f0       L_moderate_arg_bdl         00000001800968f0     libucrt:tan.obj
 0002:0001f9c0       L__piby2_part3_piby2_lead  00000001800969c0     libucrt:remainder_piby2_forasm.obj
 0002:0001f9d0       L__piby2_part1             00000001800969d0     libucrt:remainder_piby2_forasm.obj
 0002:0001f9e0       L__piby2_part2             00000001800969e0     libucrt:remainder_piby2_forasm.obj
 0002:0001f9f0       L_piby2_1                  00000001800969f0     libucrt:remainder_piby2_forasm.obj
 0002:0001fa00       L_piby2_2                  0000000180096a00     libucrt:remainder_piby2_forasm.obj
 0002:0001fa10       L_piby2_3                  0000000180096a10     libucrt:remainder_piby2_forasm.obj
 0002:0001fa20       L_piby2_1tail              0000000180096a20     libucrt:remainder_piby2_forasm.obj
 0002:0001fa30       L_piby2_2tail              0000000180096a30     libucrt:remainder_piby2_forasm.obj
 0002:0001fa40       L_piby2_3tail              0000000180096a40     libucrt:remainder_piby2_forasm.obj
 0002:0001fa50       L_twobypi                  0000000180096a50     libucrt:remainder_piby2_forasm.obj
 0002:0001fa60       L_point_five               0000000180096a60     libucrt:remainder_piby2_forasm.obj
 0002:0001fa70       L_int_three                0000000180096a70     libucrt:remainder_piby2_forasm.obj
 0002:0001fa80       L_inf_mask_64              0000000180096a80     libucrt:remainder_piby2_forasm.obj
 0002:0001fa90       L_signbit                  0000000180096a90     libucrt:remainder_piby2_forasm.obj
 0002:0001faa0       L_int_1                    0000000180096aa0     libucrt:remainder_piby2_forasm.obj
 0002:0001fab0       L_int_15                   0000000180096ab0     libucrt:remainder_piby2_forasm.obj
 0002:0001fab8       L_int_48                   0000000180096ab8     libucrt:remainder_piby2_forasm.obj
 0002:0001fac0       L_3pio4                    0000000180096ac0     libucrt:remainder_piby2_forasm.obj
 0002:0001fac8       L_5pio4                    0000000180096ac8     libucrt:remainder_piby2_forasm.obj
 0002:0001fad0       L_7pio4                    0000000180096ad0     libucrt:remainder_piby2_forasm.obj
 0002:0001fad8       L_9pio4                    0000000180096ad8     libucrt:remainder_piby2_forasm.obj
 0002:0001fae0       L__2_by_pi_bits            0000000180096ae0     libucrt:remainder_piby2_forasm.obj
 0002:0001fb80       L_piby2_lead               0000000180096b80     libucrt:remainder_piby2_forfma3.obj
 0002:0001fb90       L_fff800                   0000000180096b90     libucrt:remainder_piby2_forfma3.obj
 0002:0001fba0       L_piby2_part1              0000000180096ba0     libucrt:remainder_piby2_forfma3.obj
 0002:0001fbb0       L_piby2_part2              0000000180096bb0     libucrt:remainder_piby2_forfma3.obj
 0002:0001fbc0       L_piby2_part3              0000000180096bc0     libucrt:remainder_piby2_forfma3.obj
 0002:0001fbd0       L_piby2_1                  0000000180096bd0     libucrt:remainder_piby2_forfma3.obj
 0002:0001fbe0       L_piby2_2                  0000000180096be0     libucrt:remainder_piby2_forfma3.obj
 0002:0001fbf0       L_piby2_3                  0000000180096bf0     libucrt:remainder_piby2_forfma3.obj
 0002:0001fc00       L_piby2_1tail              0000000180096c00     libucrt:remainder_piby2_forfma3.obj
 0002:0001fc10       L_piby2_2tail              0000000180096c10     libucrt:remainder_piby2_forfma3.obj
 0002:0001fc20       L_piby2_3tail              0000000180096c20     libucrt:remainder_piby2_forfma3.obj
 0002:0001fc30       L_sign_mask                0000000180096c30     libucrt:remainder_piby2_forfma3.obj
 0002:0001fc40       L_twobypi                  0000000180096c40     libucrt:remainder_piby2_forfma3.obj
 0002:0001fc50       L_point_five               0000000180096c50     libucrt:remainder_piby2_forfma3.obj
 0002:0001fc60       L_int_three                0000000180096c60     libucrt:remainder_piby2_forfma3.obj
 0002:0001fc70       L_inf_mask_64              0000000180096c70     libucrt:remainder_piby2_forfma3.obj
 0002:0001fc80       L_signbit                  0000000180096c80     libucrt:remainder_piby2_forfma3.obj
 0002:0001fc90       L_r                        0000000180096c90     libucrt:remainder_piby2_forfma3.obj
 0002:0001fca0       L_xc1                      0000000180096ca0     libucrt:remainder_piby2_forfma3.obj
 0002:0001fcb0       L_xc2                      0000000180096cb0     libucrt:remainder_piby2_forfma3.obj
 0002:0001fcc0       L_xc3                      0000000180096cc0     libucrt:remainder_piby2_forfma3.obj
 0002:0001fcd0       L_sigma                    0000000180096cd0     libucrt:remainder_piby2_forfma3.obj
 0002:00022010       $unwind$?Initialize@nodelame@@YAXV?$Local@VObject@v8@@@v8@@@Z 0000000180099010     bindings.obj
 0002:00022010       $unwind$?node_lame_print_config@nodelame@@YAXAEBV?$FunctionCallbackInfo@VValue@v8@@@Nan@@@Z 0000000180099010     node_lame.obj
 0002:00022010       $unwind$?node_lame_close@nodelame@@YAXAEBV?$FunctionCallbackInfo@VValue@v8@@@Nan@@@Z 0000000180099010     node_lame.obj
 0002:00022010       $unwind$__dcrt_lowio_ensure_console_output_initialized 0000000180099010     libucrt:initcon.obj
 0002:00022010       $unwind$_isleadbyte_l      0000000180099010     libucrt:_wctype.obj
 0002:00022010       $unwind$?getSystemCP@@YAHH@Z 0000000180099010     libucrt:mbctype.obj
 0002:00022010       $unwind$?node_lame_print_internals@nodelame@@YAXAEBV?$FunctionCallbackInfo@VValue@v8@@@Nan@@@Z 0000000180099010     node_lame.obj
 0002:00022010       $unwind$__scrt_initialize_onexit_tables 0000000180099010     LIBCMT:utility.obj
 0002:00022018       $unwind$?FunctionCallbackWrapper@imp@Nan@@YAXAEBV?$FunctionCallbackInfo@VValue@v8@@@v8@@@Z 0000000180099018     node_lame.obj
 0002:00022028       $unwind$?ForceSet@Nan@@YA?AV?$Maybe@_N@v8@@V?$Local@VObject@v8@@@3@V?$Local@VValue@v8@@@3@1W4PropertyAttribute@3@@Z 0000000180099028     node_lame.obj
 0002:00022028       $unwind$?Set@Nan@@YA?AV?$Maybe@_N@v8@@V?$Local@VObject@v8@@@3@V?$Local@VValue@v8@@@3@1@Z 0000000180099028     node_lame.obj
 0002:0002203c       $unwind$??$To@VInteger@v8@@@imp@Nan@@YA?AV?$Local@VInteger@v8@@@v8@@V23@@Z 000000018009903c     node_lame.obj
 0002:0002204c       $unwind$?node_get_lame_os_bitness@nodelame@@YAXAEBV?$FunctionCallbackInfo@VValue@v8@@@Nan@@@Z 000000018009904c     node_lame.obj
 0002:0002204c       $unwind$?node_get_lame_version@nodelame@@YAXAEBV?$FunctionCallbackInfo@VValue@v8@@@Nan@@@Z 000000018009904c     node_lame.obj
 0002:0002204c       $unwind$frame_buffercheck  000000018009904c     libmpg123:libmpg123.obj
 0002:0002204c       $unwind$init_xrpow_core_sse 000000018009904c     liblamevectorroutines:xmm_quantize_sub.obj
 0002:0002204c       $unwind$?__mbrtowc_utf8@__crt_mbstring@@YA_KPEA_WPEBD_KPEAU_Mbstatet@@@Z 000000018009904c     libucrt:mbrtowc.obj
 0002:00022054       $unwind$?convert_hexadecimal_string_to_floating_type_common@__crt_strtox@@YA?AW4SLD_STATUS@@AEBUfloating_point_string@1@AEBVfloating_point_value@1@@Z 0000000180099054     libucrt:atof.obj
 0002:00022054       $unwind$?node_lame_init@nodelame@@YAXAEBV?$FunctionCallbackInfo@VValue@v8@@@Nan@@@Z 0000000180099054     node_lame.obj
 0002:00022054       $unwind$quant_compare      0000000180099054     libmp3lame:quantize.obj
 0002:00022060       $unwind$?node_lame_encode_buffer@nodelame@@YAXAEBV?$FunctionCallbackInfo@VValue@v8@@@Nan@@@Z 0000000180099060     node_lame.obj
 0002:00022078       $unwind$?node_lame_encode_buffer_async@nodelame@@YAXPEAUuv_work_s@@@Z 0000000180099078     node_lame.obj
 0002:00022078       $unwind$??$common_atof_l@D@@YANQEBDQEAU__crt_locale_pointers@@@Z 0000000180099078     libucrt:atof.obj
 0002:00022080       $unwind$?node_mpg123_feed_after@nodelame@@YAXPEAUuv_work_s@@@Z 0000000180099080     node_mpg123.obj
 0002:00022080       $unwind$?node_lame_encode_buffer_after@nodelame@@YAXPEAUuv_work_s@@@Z 0000000180099080     node_lame.obj
 0002:00022090       $unwind$?node_mpg123_read@nodelame@@YAXAEBV?$FunctionCallbackInfo@VValue@v8@@@Nan@@@Z 0000000180099090     node_mpg123.obj
 0002:00022090       $unwind$?node_lame_encode_flush_nogap@nodelame@@YAXAEBV?$FunctionCallbackInfo@VValue@v8@@@Nan@@@Z 0000000180099090     node_lame.obj
 0002:00022090       $unwind$?node_mpg123_feed@nodelame@@YAXAEBV?$FunctionCallbackInfo@VValue@v8@@@Nan@@@Z 0000000180099090     node_mpg123.obj
 0002:000220a4       $unwind$?node_lame_encode_flush_nogap_async@nodelame@@YAXPEAUuv_work_s@@@Z 00000001800990a4     node_lame.obj
 0002:000220b8       $unwind$?node_mpg123_open_feed@nodelame@@YAXAEBV?$FunctionCallbackInfo@VValue@v8@@@Nan@@@Z 00000001800990b8     node_mpg123.obj
 0002:000220b8       $unwind$?node_lame_get_id3v1_tag@nodelame@@YAXAEBV?$FunctionCallbackInfo@VValue@v8@@@Nan@@@Z 00000001800990b8     node_lame.obj
 0002:000220b8       $unwind$?node_lame_get_id3v2_tag@nodelame@@YAXAEBV?$FunctionCallbackInfo@VValue@v8@@@Nan@@@Z 00000001800990b8     node_lame.obj
 0002:000220c4       $unwind$?node_lame_get_original@nodelame@@YAXAEBV?$FunctionCallbackInfo@VValue@v8@@@Nan@@@Z 00000001800990c4     node_lame.obj
 0002:000220c4       $unwind$?node_lame_get_scale_left@nodelame@@YAXAEBV?$FunctionCallbackInfo@VValue@v8@@@Nan@@@Z 00000001800990c4     node_lame.obj
 0002:000220c4       $unwind$?node_lame_get_error_protection@nodelame@@YAXAEBV?$FunctionCallbackInfo@VValue@v8@@@Nan@@@Z 00000001800990c4     node_lame.obj
 0002:000220c4       $unwind$?node_lame_get_highpasswidth@nodelame@@YAXAEBV?$FunctionCallbackInfo@VValue@v8@@@Nan@@@Z 00000001800990c4     node_lame.obj
 0002:000220c4       $unwind$?node_lame_get_scale_right@nodelame@@YAXAEBV?$FunctionCallbackInfo@VValue@v8@@@Nan@@@Z 00000001800990c4     node_lame.obj
 0002:000220c4       $unwind$?node_lame_get_extension@nodelame@@YAXAEBV?$FunctionCallbackInfo@VValue@v8@@@Nan@@@Z 00000001800990c4     node_lame.obj
 0002:000220c4       $unwind$?node_lame_get_highpassfreq@nodelame@@YAXAEBV?$FunctionCallbackInfo@VValue@v8@@@Nan@@@Z 00000001800990c4     node_lame.obj
 0002:000220c4       $unwind$?node_lame_get_copyright@nodelame@@YAXAEBV?$FunctionCallbackInfo@VValue@v8@@@Nan@@@Z 00000001800990c4     node_lame.obj
 0002:000220c4       $unwind$?node_lame_get_scale@nodelame@@YAXAEBV?$FunctionCallbackInfo@VValue@v8@@@Nan@@@Z 00000001800990c4     node_lame.obj
 0002:000220c4       $unwind$?node_lame_get_compression_ratio@nodelame@@YAXAEBV?$FunctionCallbackInfo@VValue@v8@@@Nan@@@Z 00000001800990c4     node_lame.obj
 0002:000220c4       $unwind$?node_lame_get_lowpasswidth@nodelame@@YAXAEBV?$FunctionCallbackInfo@VValue@v8@@@Nan@@@Z 00000001800990c4     node_lame.obj
 0002:000220c4       $unwind$?node_lame_get_strict_ISO@nodelame@@YAXAEBV?$FunctionCallbackInfo@VValue@v8@@@Nan@@@Z 00000001800990c4     node_lame.obj
 0002:000220c4       $unwind$?node_mpg123_tell_stream@nodelame@@YAXAEBV?$FunctionCallbackInfo@VValue@v8@@@Nan@@@Z 00000001800990c4     node_mpg123.obj
 0002:000220c4       $unwind$?node_lame_get_brate@nodelame@@YAXAEBV?$FunctionCallbackInfo@VValue@v8@@@Nan@@@Z 00000001800990c4     node_lame.obj
 0002:000220c4       $unwind$?node_mpg123_tellframe@nodelame@@YAXAEBV?$FunctionCallbackInfo@VValue@v8@@@Nan@@@Z 00000001800990c4     node_mpg123.obj
 0002:000220c4       $unwind$?node_mpg123_tell@nodelame@@YAXAEBV?$FunctionCallbackInfo@VValue@v8@@@Nan@@@Z 00000001800990c4     node_mpg123.obj
 0002:000220c4       $unwind$?node_mpg123_framepos@nodelame@@YAXAEBV?$FunctionCallbackInfo@VValue@v8@@@Nan@@@Z 00000001800990c4     node_mpg123.obj
 0002:000220c4       $unwind$?node_mpg123_outblock@nodelame@@YAXAEBV?$FunctionCallbackInfo@VValue@v8@@@Nan@@@Z 00000001800990c4     node_mpg123.obj
 0002:000220c4       $unwind$?node_lame_get_lowpassfreq@nodelame@@YAXAEBV?$FunctionCallbackInfo@VValue@v8@@@Nan@@@Z 00000001800990c4     node_lame.obj
 0002:000220c4       $unwind$?node_lame_get_disable_reservoir@nodelame@@YAXAEBV?$FunctionCallbackInfo@VValue@v8@@@Nan@@@Z 00000001800990c4     node_lame.obj
 0002:000220c4       $unwind$?node_lame_get_VBR_hard_min@nodelame@@YAXAEBV?$FunctionCallbackInfo@VValue@v8@@@Nan@@@Z 00000001800990c4     node_lame.obj
 0002:000220c4       $unwind$?node_lame_get_num_channels@nodelame@@YAXAEBV?$FunctionCallbackInfo@VValue@v8@@@Nan@@@Z 00000001800990c4     node_lame.obj
 0002:000220c4       $unwind$?node_lame_get_mode@nodelame@@YAXAEBV?$FunctionCallbackInfo@VValue@v8@@@Nan@@@Z 00000001800990c4     node_lame.obj
 0002:000220c4       $unwind$?node_lame_get_VBR_max_bitrate_kbps@nodelame@@YAXAEBV?$FunctionCallbackInfo@VValue@v8@@@Nan@@@Z 00000001800990c4     node_lame.obj
 0002:000220c4       $unwind$?node_lame_get_quant_comp@nodelame@@YAXAEBV?$FunctionCallbackInfo@VValue@v8@@@Nan@@@Z 00000001800990c4     node_lame.obj
 0002:000220c4       $unwind$?node_lame_get_in_samplerate@nodelame@@YAXAEBV?$FunctionCallbackInfo@VValue@v8@@@Nan@@@Z 00000001800990c4     node_lame.obj
 0002:000220c4       $unwind$?node_lame_get_quality@nodelame@@YAXAEBV?$FunctionCallbackInfo@VValue@v8@@@Nan@@@Z 00000001800990c4     node_lame.obj
 0002:000220c4       $unwind$?node_lame_get_VBR_min_bitrate_kbps@nodelame@@YAXAEBV?$FunctionCallbackInfo@VValue@v8@@@Nan@@@Z 00000001800990c4     node_lame.obj
 0002:000220c4       $unwind$?node_lame_get_bWriteVbrTag@nodelame@@YAXAEBV?$FunctionCallbackInfo@VValue@v8@@@Nan@@@Z 00000001800990c4     node_lame.obj
 0002:000220c4       $unwind$?node_lame_init_params@nodelame@@YAXAEBV?$FunctionCallbackInfo@VValue@v8@@@Nan@@@Z 00000001800990c4     node_lame.obj
 0002:000220c4       $unwind$?node_lame_get_out_samplerate@nodelame@@YAXAEBV?$FunctionCallbackInfo@VValue@v8@@@Nan@@@Z 00000001800990c4     node_lame.obj
 0002:000220c4       $unwind$?node_lame_get_VBR_mean_bitrate_kbps@nodelame@@YAXAEBV?$FunctionCallbackInfo@VValue@v8@@@Nan@@@Z 00000001800990c4     node_lame.obj
 0002:000220c4       $unwind$?node_lame_get_VBR_quality@nodelame@@YAXAEBV?$FunctionCallbackInfo@VValue@v8@@@Nan@@@Z 00000001800990c4     node_lame.obj
 0002:000220c4       $unwind$?node_lame_set_VBR_q@nodelame@@YAXAEBV?$FunctionCallbackInfo@VValue@v8@@@Nan@@@Z 00000001800990c4     node_lame.obj
 0002:000220c4       $unwind$?node_lame_get_quant_comp_short@nodelame@@YAXAEBV?$FunctionCallbackInfo@VValue@v8@@@Nan@@@Z 00000001800990c4     node_lame.obj
 0002:000220c4       $unwind$?node_lame_get_VBR_q@nodelame@@YAXAEBV?$FunctionCallbackInfo@VValue@v8@@@Nan@@@Z 00000001800990c4     node_lame.obj
 0002:000220c4       $unwind$?node_lame_get_analysis@nodelame@@YAXAEBV?$FunctionCallbackInfo@VValue@v8@@@Nan@@@Z 00000001800990c4     node_lame.obj
 0002:000220c4       $unwind$?node_lame_get_exp_nspsytune@nodelame@@YAXAEBV?$FunctionCallbackInfo@VValue@v8@@@Nan@@@Z 00000001800990c4     node_lame.obj
 0002:000220c4       $unwind$?node_lame_get_num_samples@nodelame@@YAXAEBV?$FunctionCallbackInfo@VValue@v8@@@Nan@@@Z 00000001800990c4     node_lame.obj
 0002:000220c4       $unwind$?node_lame_get_VBR@nodelame@@YAXAEBV?$FunctionCallbackInfo@VValue@v8@@@Nan@@@Z 00000001800990c4     node_lame.obj
 0002:000220d4       $unwind$?node_lame_samplerates@nodelame@@YAXAEBV?$FunctionCallbackInfo@VValue@v8@@@Nan@@@Z 00000001800990d4     node_lame.obj
 0002:000220d4       $unwind$?node_lame_bitrates@nodelame@@YAXAEBV?$FunctionCallbackInfo@VValue@v8@@@Nan@@@Z 00000001800990d4     node_lame.obj
 0002:000220ec       $unwind$?node_lame_set_quant_comp_short@nodelame@@YAXAEBV?$FunctionCallbackInfo@VValue@v8@@@Nan@@@Z 00000001800990ec     node_lame.obj
 0002:000220ec       $unwind$?node_lame_set_quant_comp@nodelame@@YAXAEBV?$FunctionCallbackInfo@VValue@v8@@@Nan@@@Z 00000001800990ec     node_lame.obj
 0002:000220ec       $unwind$?node_lame_set_out_samplerate@nodelame@@YAXAEBV?$FunctionCallbackInfo@VValue@v8@@@Nan@@@Z 00000001800990ec     node_lame.obj
 0002:000220ec       $unwind$?node_lame_set_exp_nspsytune@nodelame@@YAXAEBV?$FunctionCallbackInfo@VValue@v8@@@Nan@@@Z 00000001800990ec     node_lame.obj
 0002:000220ec       $unwind$?node_lame_set_VBR@nodelame@@YAXAEBV?$FunctionCallbackInfo@VValue@v8@@@Nan@@@Z 00000001800990ec     node_lame.obj
 0002:000220ec       $unwind$?node_lame_set_analysis@nodelame@@YAXAEBV?$FunctionCallbackInfo@VValue@v8@@@Nan@@@Z 00000001800990ec     node_lame.obj
 0002:000220ec       $unwind$?node_lame_set_scale_right@nodelame@@YAXAEBV?$FunctionCallbackInfo@VValue@v8@@@Nan@@@Z 00000001800990ec     node_lame.obj
 0002:000220ec       $unwind$?node_lame_set_num_samples@nodelame@@YAXAEBV?$FunctionCallbackInfo@VValue@v8@@@Nan@@@Z 00000001800990ec     node_lame.obj
 0002:000220ec       $unwind$?node_lame_set_VBR_mean_bitrate_kbps@nodelame@@YAXAEBV?$FunctionCallbackInfo@VValue@v8@@@Nan@@@Z 00000001800990ec     node_lame.obj
 0002:000220ec       $unwind$?node_lame_set_bWriteVbrTag@nodelame@@YAXAEBV?$FunctionCallbackInfo@VValue@v8@@@Nan@@@Z 00000001800990ec     node_lame.obj
 0002:000220ec       $unwind$?node_lame_set_VBR_min_bitrate_kbps@nodelame@@YAXAEBV?$FunctionCallbackInfo@VValue@v8@@@Nan@@@Z 00000001800990ec     node_lame.obj
 0002:000220ec       $unwind$?node_lame_set_VBR_quality@nodelame@@YAXAEBV?$FunctionCallbackInfo@VValue@v8@@@Nan@@@Z 00000001800990ec     node_lame.obj
 0002:000220ec       $unwind$?node_lame_set_quality@nodelame@@YAXAEBV?$FunctionCallbackInfo@VValue@v8@@@Nan@@@Z 00000001800990ec     node_lame.obj
 0002:000220ec       $unwind$?node_lame_set_VBR_max_bitrate_kbps@nodelame@@YAXAEBV?$FunctionCallbackInfo@VValue@v8@@@Nan@@@Z 00000001800990ec     node_lame.obj
 0002:000220ec       $unwind$?node_lame_set_in_samplerate@nodelame@@YAXAEBV?$FunctionCallbackInfo@VValue@v8@@@Nan@@@Z 00000001800990ec     node_lame.obj
 0002:000220ec       $unwind$?node_lame_set_mode@nodelame@@YAXAEBV?$FunctionCallbackInfo@VValue@v8@@@Nan@@@Z 00000001800990ec     node_lame.obj
 0002:000220ec       $unwind$?node_lame_set_disable_reservoir@nodelame@@YAXAEBV?$FunctionCallbackInfo@VValue@v8@@@Nan@@@Z 00000001800990ec     node_lame.obj
 0002:000220ec       $unwind$?node_lame_set_VBR_hard_min@nodelame@@YAXAEBV?$FunctionCallbackInfo@VValue@v8@@@Nan@@@Z 00000001800990ec     node_lame.obj
 0002:000220ec       $unwind$?node_lame_set_strict_ISO@nodelame@@YAXAEBV?$FunctionCallbackInfo@VValue@v8@@@Nan@@@Z 00000001800990ec     node_lame.obj
 0002:000220ec       $unwind$?node_lame_set_lowpassfreq@nodelame@@YAXAEBV?$FunctionCallbackInfo@VValue@v8@@@Nan@@@Z 00000001800990ec     node_lame.obj
 0002:000220ec       $unwind$?node_lame_set_brate@nodelame@@YAXAEBV?$FunctionCallbackInfo@VValue@v8@@@Nan@@@Z 00000001800990ec     node_lame.obj
 0002:000220ec       $unwind$?node_lame_set_num_channels@nodelame@@YAXAEBV?$FunctionCallbackInfo@VValue@v8@@@Nan@@@Z 00000001800990ec     node_lame.obj
 0002:000220ec       $unwind$?node_lame_set_lowpasswidth@nodelame@@YAXAEBV?$FunctionCallbackInfo@VValue@v8@@@Nan@@@Z 00000001800990ec     node_lame.obj
 0002:000220ec       $unwind$?node_lame_set_compression_ratio@nodelame@@YAXAEBV?$FunctionCallbackInfo@VValue@v8@@@Nan@@@Z 00000001800990ec     node_lame.obj
 0002:000220ec       $unwind$?node_lame_set_extension@nodelame@@YAXAEBV?$FunctionCallbackInfo@VValue@v8@@@Nan@@@Z 00000001800990ec     node_lame.obj
 0002:000220ec       $unwind$?node_lame_set_highpassfreq@nodelame@@YAXAEBV?$FunctionCallbackInfo@VValue@v8@@@Nan@@@Z 00000001800990ec     node_lame.obj
 0002:000220ec       $unwind$?node_lame_set_error_protection@nodelame@@YAXAEBV?$FunctionCallbackInfo@VValue@v8@@@Nan@@@Z 00000001800990ec     node_lame.obj
 0002:000220ec       $unwind$?node_lame_set_copyright@nodelame@@YAXAEBV?$FunctionCallbackInfo@VValue@v8@@@Nan@@@Z 00000001800990ec     node_lame.obj
 0002:000220ec       $unwind$?node_lame_set_highpasswidth@nodelame@@YAXAEBV?$FunctionCallbackInfo@VValue@v8@@@Nan@@@Z 00000001800990ec     node_lame.obj
 0002:000220ec       $unwind$?node_lame_set_scale@nodelame@@YAXAEBV?$FunctionCallbackInfo@VValue@v8@@@Nan@@@Z 00000001800990ec     node_lame.obj
 0002:000220ec       $unwind$?node_lame_set_original@nodelame@@YAXAEBV?$FunctionCallbackInfo@VValue@v8@@@Nan@@@Z 00000001800990ec     node_lame.obj
 0002:000220ec       $unwind$?node_lame_set_scale_left@nodelame@@YAXAEBV?$FunctionCallbackInfo@VValue@v8@@@Nan@@@Z 00000001800990ec     node_lame.obj
 0002:00022100       $unwind$?InitLame@nodelame@@YAXV?$Local@VObject@v8@@@v8@@@Z 0000000180099100     node_lame.obj
 0002:00022114       $unwind$??$SetMethod@VObject@v8@@VLocal@2@@Nan@@YAXV?$Local@VObject@v8@@@v8@@PEBDP6AXAEBV?$FunctionCallbackInfo@VValue@v8@@@0@@Z@Z 0000000180099114     node_lame.obj
 0002:00022120       $chain$3$??$SetMethod@VObject@v8@@VLocal@2@@Nan@@YAXV?$Local@VObject@v8@@@v8@@PEBDP6AXAEBV?$FunctionCallbackInfo@VValue@v8@@@0@@Z@Z 0000000180099120     node_lame.obj
 0002:00022140       $chain$4$??$SetMethod@VObject@v8@@VLocal@2@@Nan@@YAXV?$Local@VObject@v8@@@v8@@PEBDP6AXAEBV?$FunctionCallbackInfo@VValue@v8@@@0@@Z@Z 0000000180099140     node_lame.obj
 0002:00022154       $chain$5$??$SetMethod@VObject@v8@@VLocal@2@@Nan@@YAXV?$Local@VObject@v8@@@v8@@PEBDP6AXAEBV?$FunctionCallbackInfo@VValue@v8@@@0@@Z@Z 0000000180099154     node_lame.obj
 0002:00022164       $chain$6$??$SetMethod@VObject@v8@@VLocal@2@@Nan@@YAXV?$Local@VObject@v8@@@v8@@PEBDP6AXAEBV?$FunctionCallbackInfo@VValue@v8@@@0@@Z@Z 0000000180099164     node_lame.obj
 0002:00022174       $unwind$??$SetMethodAux@V?$Local@VObject@v8@@@v8@@@imp@Nan@@YAXV?$Local@VObject@v8@@@v8@@V?$Local@VString@v8@@@3@V?$Local@VFunctionTemplate@v8@@@3@ZZ 0000000180099174     node_lame.obj
 0002:00022184       $unwind$?node_mpg123_init@nodelame@@YAXAEBV?$FunctionCallbackInfo@VValue@v8@@@Nan@@@Z 0000000180099184     node_mpg123.obj
 0002:00022184       $unwind$capture_previous_context 0000000180099184     LIBCMT:gs_report.obj
 0002:00022190       $unwind$?node_mpg123_new@nodelame@@YAXAEBV?$FunctionCallbackInfo@VValue@v8@@@Nan@@@Z 0000000180099190     node_mpg123.obj
 0002:0002219c       $unwind$?node_mpg123_current_decoder@nodelame@@YAXAEBV?$FunctionCallbackInfo@VValue@v8@@@Nan@@@Z 000000018009919c     node_mpg123.obj
 0002:0002219c       $unwind$?type_case_a@?$output_processor@DV?$string_output_adapter@D@__crt_stdio_output@@V?$standard_base@DV?$string_output_adapter@D@__crt_stdio_output@@@2@@__crt_stdio_output@@AEAA_NXZ 000000018009919c     libucrt:output.obj
 0002:0002219c       $unwind$?type_case_a@?$output_processor@DV?$stream_output_adapter@D@__crt_stdio_output@@V?$standard_base@DV?$stream_output_adapter@D@__crt_stdio_output@@@2@@__crt_stdio_output@@AEAA_NXZ 000000018009919c     libucrt:output.obj
 0002:000221a8       $unwind$?node_mpg123_decoders@nodelame@@YAXAEBV?$FunctionCallbackInfo@VValue@v8@@@Nan@@@Z 00000001800991a8     node_mpg123.obj
 0002:000221a8       $unwind$?node_mpg123_supported_decoders@nodelame@@YAXAEBV?$FunctionCallbackInfo@VValue@v8@@@Nan@@@Z 00000001800991a8     node_mpg123.obj
 0002:000221b0       $chain$3$?node_mpg123_supported_decoders@nodelame@@YAXAEBV?$FunctionCallbackInfo@VValue@v8@@@Nan@@@Z 00000001800991b0     node_mpg123.obj
 0002:000221b0       $chain$3$?node_mpg123_decoders@nodelame@@YAXAEBV?$FunctionCallbackInfo@VValue@v8@@@Nan@@@Z 00000001800991b0     node_mpg123.obj
 0002:000221d0       $chain$5$?node_mpg123_decoders@nodelame@@YAXAEBV?$FunctionCallbackInfo@VValue@v8@@@Nan@@@Z 00000001800991d0     node_mpg123.obj
 0002:000221d0       $chain$5$?node_mpg123_supported_decoders@nodelame@@YAXAEBV?$FunctionCallbackInfo@VValue@v8@@@Nan@@@Z 00000001800991d0     node_mpg123.obj
 0002:000221e8       $chain$6$?node_mpg123_decoders@nodelame@@YAXAEBV?$FunctionCallbackInfo@VValue@v8@@@Nan@@@Z 00000001800991e8     node_mpg123.obj
 0002:000221e8       $chain$6$?node_mpg123_supported_decoders@nodelame@@YAXAEBV?$FunctionCallbackInfo@VValue@v8@@@Nan@@@Z 00000001800991e8     node_mpg123.obj
 0002:000221f8       $chain$7$?node_mpg123_supported_decoders@nodelame@@YAXAEBV?$FunctionCallbackInfo@VValue@v8@@@Nan@@@Z 00000001800991f8     node_mpg123.obj
 0002:000221f8       $chain$7$?node_mpg123_decoders@nodelame@@YAXAEBV?$FunctionCallbackInfo@VValue@v8@@@Nan@@@Z 00000001800991f8     node_mpg123.obj
 0002:00022208       $unwind$?node_mpg123_getformat@nodelame@@YAXAEBV?$FunctionCallbackInfo@VValue@v8@@@Nan@@@Z 0000000180099208     node_mpg123.obj
 0002:00022214       $chain$1$?node_mpg123_getformat@nodelame@@YAXAEBV?$FunctionCallbackInfo@VValue@v8@@@Nan@@@Z 0000000180099214     node_mpg123.obj
 0002:0002222c       $chain$3$?node_mpg123_getformat@nodelame@@YAXAEBV?$FunctionCallbackInfo@VValue@v8@@@Nan@@@Z 000000018009922c     node_mpg123.obj
 0002:00022244       $chain$6$?node_mpg123_getformat@nodelame@@YAXAEBV?$FunctionCallbackInfo@VValue@v8@@@Nan@@@Z 0000000180099244     node_mpg123.obj
 0002:00022260       $chain$7$?node_mpg123_getformat@nodelame@@YAXAEBV?$FunctionCallbackInfo@VValue@v8@@@Nan@@@Z 0000000180099260     node_mpg123.obj
 0002:00022278       $chain$8$?node_mpg123_getformat@nodelame@@YAXAEBV?$FunctionCallbackInfo@VValue@v8@@@Nan@@@Z 0000000180099278     node_mpg123.obj
 0002:0002228c       $chain$9$?node_mpg123_getformat@nodelame@@YAXAEBV?$FunctionCallbackInfo@VValue@v8@@@Nan@@@Z 000000018009928c     node_mpg123.obj
 0002:0002229c       $chain$10$?node_mpg123_getformat@nodelame@@YAXAEBV?$FunctionCallbackInfo@VValue@v8@@@Nan@@@Z 000000018009929c     node_mpg123.obj
 0002:000222ac       $unwind$?node_mpg123_safe_buffer@nodelame@@YAXAEBV?$FunctionCallbackInfo@VValue@v8@@@Nan@@@Z 00000001800992ac     node_mpg123.obj
 0002:000222b8       $unwind$?stream_is_at_end_of_file_nolock@@YA_NV__crt_stdio_stream@@@Z 00000001800992b8     libucrt:_flsbuf.obj
 0002:000222b8       $unwind$__acrt_allocate_buffer_for_argv 00000001800992b8     libucrt:argv_parsing.obj
 0002:000222b8       $unwind$?state_case_normal@?$output_processor@DV?$string_output_adapter@D@__crt_stdio_output@@V?$standard_base@DV?$string_output_adapter@D@__crt_stdio_output@@@2@@__crt_stdio_output@@AEAA_NXZ 00000001800992b8     libucrt:output.obj
 0002:000222b8       $unwind$__acrt_FlsAlloc    00000001800992b8     libucrt:winapi_thunks.obj
 0002:000222b8       $unwind$default_init       00000001800992b8     libmpg123:readers.obj
 0002:000222b8       $unwind$__acrt_uninitialize_winapi_thunks 00000001800992b8     libucrt:winapi_thunks.obj
 0002:000222b8       $unwind$?type_case_s@?$output_processor@DV?$stream_output_adapter@D@__crt_stdio_output@@V?$standard_base@DV?$stream_output_adapter@D@__crt_stdio_output@@@2@@__crt_stdio_output@@AEAA_NXZ 00000001800992b8     libucrt:output.obj
 0002:000222b8       $unwind$??2@YAPEAX_K@Z     00000001800992b8     LIBCMT:new_scalar.obj
 0002:000222b8       $unwind$save_gain_values   00000001800992b8     libmp3lame:lame.obj
 0002:000222b8       $unwind$__acrt_FlsFree     00000001800992b8     libucrt:winapi_thunks.obj
 0002:000222b8       $unwind$feed_read          00000001800992b8     libmpg123:readers.obj
 0002:000222b8       $unwind$__std_type_info_destroy_list 00000001800992b8     libvcruntime:std_type_info.obj
 0002:000222b8       $unwind$__acrt_FlsGetValue 00000001800992b8     libucrt:winapi_thunks.obj
 0002:000222b8       $unwind$__std_exception_destroy 00000001800992b8     libvcruntime:std_exception.obj
 0002:000222b8       $unwind$??_Gtype_info@@UEAAPEAXI@Z 00000001800992b8     LIBCMT:std_type_info_static.obj
 0002:000222b8       $unwind$__acrt_update_locale_info 00000001800992b8     libucrt:locale_update.obj
 0002:000222b8       $unwind$__acrt_update_multibyte_info 00000001800992b8     libucrt:locale_update.obj
 0002:000222b8       $unwind$?type_case_c_tchar@?$output_processor@DV?$stream_output_adapter@D@__crt_stdio_output@@V?$standard_base@DV?$stream_output_adapter@D@__crt_stdio_output@@@2@@__crt_stdio_output@@AEAA_ND@Z 00000001800992b8     libucrt:output.obj
 0002:000222b8       $unwind$?state_case_normal_tchar@?$output_processor@DV?$stream_output_adapter@D@__crt_stdio_output@@V?$standard_base@DV?$stream_output_adapter@D@__crt_stdio_output@@@2@@__crt_stdio_output@@AEAA_ND@Z 00000001800992b8     libucrt:output.obj
 0002:000222b8       $unwind$?state_case_normal@?$output_processor@DV?$stream_output_adapter@D@__crt_stdio_output@@V?$standard_base@DV?$stream_output_adapter@D@__crt_stdio_output@@@2@@__crt_stdio_output@@AEAA_NXZ 00000001800992b8     libucrt:output.obj
 0002:000222b8       $unwind$_clearfp           00000001800992b8     libucrt:ieee.obj
 0002:000222b8       $unwind$stream_rewind      00000001800992b8     libmpg123:readers.obj
 0002:000222b8       $unwind$generic_read_frame_body 00000001800992b8     libmpg123:readers.obj
 0002:000222b8       $unwind$_callnewh          00000001800992b8     libucrt:new_handler.obj
 0002:000222b8       $unwind$generic_head_shift 00000001800992b8     libmpg123:readers.obj
 0002:000222b8       $unwind$generic_head_read  00000001800992b8     libmpg123:readers.obj
 0002:000222b8       $unwind$?load_exe_hook@@YAP6A_JXZIPEAUDelayLoadInfo@@@Z 00000001800992b8     win_delay_load_hook.obj
 0002:000222b8       $unwind$?internal_isupper_l@@YA_NHQEAU__crt_locale_pointers@@@Z 00000001800992b8     libucrt:tolower_toupper.obj
 0002:000222b8       $unwind$stream_close       00000001800992b8     libmpg123:readers.obj
 0002:000222b8       $unwind$__acrt_uninitialize_locks 00000001800992b8     libucrt:locks.obj
 0002:000222b8       $unwind$__acrt_initialize_locks 00000001800992b8     libucrt:locks.obj
 0002:000222b8       $unwind$__acrt_stdio_free_buffer_nolock 00000001800992b8     libucrt:_freebuf.obj
 0002:000222b8       $unwind$__acrt_get_process_end_policy 00000001800992b8     libucrt:win_policies.obj
 0002:000222b8       $unwind$?type_case_c_tchar@?$output_processor@DV?$string_output_adapter@D@__crt_stdio_output@@V?$standard_base@DV?$string_output_adapter@D@__crt_stdio_output@@@2@@__crt_stdio_output@@AEAA_ND@Z 00000001800992b8     libucrt:output.obj
 0002:000222b8       $unwind$?node_mpg123_feed_async@nodelame@@YAXPEAUuv_work_s@@@Z 00000001800992b8     node_mpg123.obj
 0002:000222b8       $unwind$?type_case_s@?$output_processor@DV?$string_output_adapter@D@__crt_stdio_output@@V?$standard_base@DV?$string_output_adapter@D@__crt_stdio_output@@@2@@__crt_stdio_output@@AEAA_NXZ 00000001800992b8     libucrt:output.obj
 0002:000222b8       $unwind$?node_mpg123_id3_async@nodelame@@YAXPEAUuv_work_s@@@Z 00000001800992b8     node_mpg123.obj
 0002:000222b8       $unwind$__acrt_getptd_head 00000001800992b8     libucrt:per_thread_data.obj
 0002:000222b8       $unwind$__vcrt_FlsGetValue 00000001800992b8     libvcruntime:winapi_downlevel.obj
 0002:000222b8       $unwind$__vcrt_FlsFree     00000001800992b8     libvcruntime:winapi_downlevel.obj
 0002:000222b8       $unwind$__acrt_freeptd     00000001800992b8     libucrt:per_thread_data.obj
 0002:000222b8       $unwind$strcpy_s           00000001800992b8     libucrt:strcpy_s.obj
 0002:000222b8       $unwind$__raise_securityfailure 00000001800992b8     LIBCMT:gs_report.obj
 0002:000222b8       $unwind$?scan_optional_field_width@?$format_string_parser@D@__crt_stdio_input@@AEAA_NXZ 00000001800992b8     libucrt:input.obj
 0002:000222b8       $unwind$__acrt_uninitialize_stdio 00000001800992b8     libucrt:_file.obj
 0002:000222b8       $unwind$check_bom          00000001800992b8     libmpg123:id3.obj
 0002:000222b8       $unwind$_fflush_nolock     00000001800992b8     libucrt:fflush.obj
 0002:000222b8       $unwind$INT123_frame_index_find 00000001800992b8     libmpg123:frame.obj
 0002:000222b8       $unwind$__acrt_AppPolicyGetProcessTerminationMethodInternal 00000001800992b8     libucrt:winapi_thunks.obj
 0002:000222b8       $unwind$??0exception@std@@QEAA@AEBV01@@Z 00000001800992b8     LIBCMT:throw_bad_alloc.obj
 0002:000222b8       $unwind$__vcrt_FlsAlloc    00000001800992b8     libvcruntime:winapi_downlevel.obj
 0002:000222b8       $unwind$mpg123_feed        00000001800992b8     libmpg123:libmpg123.obj
 0002:000222b8       $unwind$__scrt_uninitialize_crt 00000001800992b8     LIBCMT:utility.obj
 0002:000222b8       $unwind$__scrt_initialize_crt 00000001800992b8     LIBCMT:utility.obj
 0002:000222b8       $unwind$initialize_pointers 00000001800992b8     libucrt:initialization.obj
 0002:000222b8       $unwind$_calloc_base       00000001800992b8     libucrt:calloc_base.obj
 0002:000222b8       $unwind$uninitialize_allocated_memory 00000001800992b8     libucrt:initialization.obj
 0002:000222b8       $unwind$__scrt_release_startup_lock 00000001800992b8     LIBCMT:utility.obj
 0002:000222b8       $unwind$mpg123_tell        00000001800992b8     libmpg123:libmpg123.obj
 0002:000222b8       $unwind$??0bad_alloc@std@@QEAA@AEBV01@@Z 00000001800992b8     LIBCMT:throw_bad_alloc.obj
 0002:000222b8       $unwind$_malloc_base       00000001800992b8     libucrt:malloc_base.obj
 0002:000222b8       $unwind$_set_statfp        00000001800992b8     libucrt:fpctrl.obj
 0002:000222b8       $unwind$__vcrt_freeptd     00000001800992b8     libvcruntime:per_thread_data.obj
 0002:000222b8       $unwind$feholdexcept       00000001800992b8     libucrt:feholdexcept.obj
 0002:000222b8       $unwind$??0bad_array_new_length@std@@QEAA@AEBV01@@Z 00000001800992b8     LIBCMT:throw_bad_alloc.obj
 0002:000222b8       $unwind$_clrfp             00000001800992b8     libucrt:fpctrl.obj
 0002:000222b8       $unwind$fesetenv           00000001800992b8     libucrt:fesetenv.obj
 0002:000222b8       $unwind$INT123_frame_gapless_realinit 00000001800992b8     libmpg123:frame.obj
 0002:000222b8       $unwind$fegetenv           00000001800992b8     libucrt:fegetenv.obj
 0002:000222b8       $unwind$set_frame_wxxx     00000001800992b8     libmp3lame:id3tag.obj
 0002:000222b8       $unwind$set_frame_custom2  00000001800992b8     libmp3lame:id3tag.obj
 0002:000222b8       $unwind$?DloadAcquireSectionWriteAccess@@YAXXZ 00000001800992b8     DelayImp:delayhlp.obj
 0002:000222b8       $unwind$__vcrt_initialize_locks 00000001800992b8     libvcruntime:locks.obj
 0002:000222b8       $unwind$INT123_frame_offset 00000001800992b8     libmpg123:frame.obj
 0002:000222b8       $unwind$?exit_or_terminate_process@@YAXI@Z 00000001800992b8     libucrt:exit.obj
 0002:000222b8       $unwind$?try_cor_exit_process@@YAXI@Z 00000001800992b8     libucrt:exit.obj
 0002:000222b8       $unwind$__vcrt_uninitialize_locks 00000001800992b8     libvcruntime:locks.obj
 0002:000222b8       $unwind$frame_default_pars 00000001800992b8     libmpg123:frame.obj
 0002:000222c0       $unwind$?node_mpg123_read_async@nodelame@@YAXPEAUuv_work_s@@@Z 00000001800992c0     node_mpg123.obj
 0002:000222cc       $chain$4$?node_mpg123_read_async@nodelame@@YAXPEAUuv_work_s@@@Z 00000001800992cc     node_mpg123.obj
 0002:000222f0       $chain$5$?node_mpg123_read_async@nodelame@@YAXPEAUuv_work_s@@@Z 00000001800992f0     node_mpg123.obj
 0002:00022304       $chain$6$?node_mpg123_read_async@nodelame@@YAXPEAUuv_work_s@@@Z 0000000180099304     node_mpg123.obj
 0002:00022314       $chain$9$?node_mpg123_read_async@nodelame@@YAXPEAUuv_work_s@@@Z 0000000180099314     node_mpg123.obj
 0002:00022314       $chain$7$?node_mpg123_read_async@nodelame@@YAXPEAUuv_work_s@@@Z 0000000180099314     node_mpg123.obj
 0002:00022324       $chain$8$?node_mpg123_read_async@nodelame@@YAXPEAUuv_work_s@@@Z 0000000180099324     node_mpg123.obj
 0002:0002234c       $unwind$?node_mpg123_read_after@nodelame@@YAXPEAUuv_work_s@@@Z 000000018009934c     node_mpg123.obj
 0002:0002236c       $unwind$_stricmp_l         000000018009936c     libucrt:stricmp.obj
 0002:0002236c       $unwind$?node_mpg123_id3@nodelame@@YAXAEBV?$FunctionCallbackInfo@VValue@v8@@@Nan@@@Z 000000018009936c     node_mpg123.obj
 0002:0002236c       $unwind$?x_ismbbtype_l@@YAHPEAU__crt_locale_pointers@@IHH@Z 000000018009936c     libucrt:ismbbyte.obj
 0002:0002237c       $unwind$?node_mpg123_id3_after@nodelame@@YAXPEAUuv_work_s@@@Z 000000018009937c     node_mpg123.obj
 0002:00022388       $chain$0$?node_mpg123_id3_after@nodelame@@YAXPEAUuv_work_s@@@Z 0000000180099388     node_mpg123.obj
 0002:0002239c       $chain$6$?node_mpg123_id3_after@nodelame@@YAXPEAUuv_work_s@@@Z 000000018009939c     node_mpg123.obj
 0002:000223c4       $chain$7$?node_mpg123_id3_after@nodelame@@YAXPEAUuv_work_s@@@Z 00000001800993c4     node_mpg123.obj
 0002:000223dc       $chain$8$?node_mpg123_id3_after@nodelame@@YAXPEAUuv_work_s@@@Z 00000001800993dc     node_mpg123.obj
 0002:000223f0       $chain$9$?node_mpg123_id3_after@nodelame@@YAXPEAUuv_work_s@@@Z 00000001800993f0     node_mpg123.obj
 0002:00022404       $chain$10$?node_mpg123_id3_after@nodelame@@YAXPEAUuv_work_s@@@Z 0000000180099404     node_mpg123.obj
 0002:00022414       $unwind$?InitMPG123@nodelame@@YAXV?$Local@VObject@v8@@@v8@@@Z 0000000180099414     node_mpg123.obj
 0002:00022424       $unwind$lame_init_params_ppflt 0000000180099424     libmp3lame:lame.obj
 0002:00022454       $unwind$lame_init_params   0000000180099454     libmp3lame:lame.obj
 0002:00022470       $chain$5$lame_init_params  0000000180099470     libmp3lame:lame.obj
 0002:00022498       $chain$6$lame_init_params  0000000180099498     libmp3lame:lame.obj
 0002:000224a8       $chain$7$lame_init_params  00000001800994a8     libmp3lame:lame.obj
 0002:000224d0       $unwind$lame_print_config  00000001800994d0     libmp3lame:lame.obj
 0002:000224f0       $unwind$lame_print_internals 00000001800994f0     libmp3lame:lame.obj
 0002:0002250c       $unwind$lame_encode_buffer_sample_t 000000018009950c     libmp3lame:lame.obj
 0002:0002251c       $chain$0$lame_encode_buffer_sample_t 000000018009951c     libmp3lame:lame.obj
 0002:00022530       $chain$6$lame_encode_buffer_sample_t 0000000180099530     libmp3lame:lame.obj
 0002:00022558       $chain$7$lame_encode_buffer_sample_t 0000000180099558     libmp3lame:lame.obj
 0002:00022568       $chain$9$lame_encode_buffer_sample_t 0000000180099568     libmp3lame:lame.obj
 0002:00022594       $unwind$lame_copy_inbuffer 0000000180099594     libmp3lame:lame.obj
 0002:000225b4       $unwind$lame_encode_buffer_template 00000001800995b4     libmp3lame:lame.obj
 0002:000225c4       $chain$0$lame_encode_buffer_template 00000001800995c4     libmp3lame:lame.obj
 0002:000225d8       $chain$1$lame_encode_buffer_template 00000001800995d8     libmp3lame:lame.obj
 0002:000225ec       $chain$2$lame_encode_buffer_template 00000001800995ec     libmp3lame:lame.obj
 0002:000225fc       $chain$4$lame_encode_buffer_template 00000001800995fc     libmp3lame:lame.obj
 0002:00022610       $chain$5$lame_encode_buffer_template 0000000180099610     libmp3lame:lame.obj
 0002:00022620       $unwind$lame_init_bitstream 0000000180099620     libmp3lame:lame.obj
 0002:00022634       $chain$0$lame_init_bitstream 0000000180099634     libmp3lame:lame.obj
 0002:00022648       $chain$1$lame_init_bitstream 0000000180099648     libmp3lame:lame.obj
 0002:0002265c       $chain$3$lame_init_bitstream 000000018009965c     libmp3lame:lame.obj
 0002:00022674       $chain$4$lame_init_bitstream 0000000180099674     libmp3lame:lame.obj
 0002:00022688       $chain$5$lame_init_bitstream 0000000180099688     libmp3lame:lame.obj
 0002:00022698       $chain$6$lame_init_bitstream 0000000180099698     libmp3lame:lame.obj
 0002:000226a8       $chain$7$lame_init_bitstream 00000001800996a8     libmp3lame:lame.obj
 0002:000226b8       $chain$9$lame_init_bitstream 00000001800996b8     libmp3lame:lame.obj
 0002:000226cc       $chain$10$lame_init_bitstream 00000001800996cc     libmp3lame:lame.obj
 0002:000226dc       $unwind$lame_close         00000001800996dc     libmp3lame:lame.obj
 0002:000226dc       $unwind$_DllMainCRTStartup 00000001800996dc     LIBCMT:dll_dllmain.obj
 0002:000226dc       $unwind$buffy_new          00000001800996dc     libmpg123:readers.obj
 0002:000226dc       $unwind$?type_case_n@?$output_processor@DV?$stream_output_adapter@D@__crt_stdio_output@@V?$standard_base@DV?$stream_output_adapter@D@__crt_stdio_output@@@2@@__crt_stdio_output@@AEAA_NXZ 00000001800996dc     libucrt:output.obj
 0002:000226dc       $unwind$INT123_synth_ntom_8bit_m2s 00000001800996dc     libmpg123:synth_8bit.obj
 0002:000226dc       $unwind$INT123_synth_ntom_s32_m2s 00000001800996dc     libmpg123:synth_s32.obj
 0002:000226dc       $unwind$?type_case_n@?$output_processor@DV?$string_output_adapter@D@__crt_stdio_output@@V?$standard_base@DV?$string_output_adapter@D@__crt_stdio_output@@@2@@__crt_stdio_output@@AEAA_NXZ 00000001800996dc     libucrt:output.obj
 0002:000226dc       $unwind$??0_LocaleUpdate@@QEAA@QEAU__crt_locale_pointers@@@Z 00000001800996dc     libucrt:stricmp.obj
 0002:000226dc       $unwind$INT123_synth_ntom_real_m2s 00000001800996dc     libmpg123:synth_real.obj
 0002:000226dc       $unwind$__acrt_stdio_flush_and_write_narrow_nolock 00000001800996dc     libucrt:_flsbuf.obj
 0002:000226dc       $unwind$local_strdup       00000001800996dc     libmp3lame:id3tag.obj
 0002:000226dc       $unwind$__vcrt_InitializeCriticalSectionEx 00000001800996dc     libvcruntime:winapi_downlevel.obj
 0002:000226dc       $unwind$INT123_frame_set_frameseek 00000001800996dc     libmpg123:frame.obj
 0002:000226dc       $unwind$?free_crt_array_internal@@YAXQEAPEBX_K@Z 00000001800996dc     libucrt:inittime.obj
 0002:000226dc       $unwind$synth_stereo_wrap  00000001800996dc     libmpg123:optimize.obj
 0002:000226dc       $unwind$__vcrt_getptd_noexit 00000001800996dc     libvcruntime:per_thread_data.obj
 0002:000226dc       $unwind$memcpy_s           00000001800996dc     libucrt:atof.obj
 0002:000226dc       $unwind$memcpy_s           00000001800996dc     libucrt:cfout.obj
 0002:000226dc       $unwind$__acrt_InitializeCriticalSectionEx 00000001800996dc     libucrt:winapi_thunks.obj
 0002:000226dc       $unwind$vbrpsy_compute_fft_s 00000001800996dc     libmp3lame:psymodel.obj
 0002:000226dc       $unwind$?advance@?$format_string_parser@D@__crt_stdio_input@@QEAA_NXZ 00000001800996dc     libucrt:input.obj
 0002:000226dc       $unwind$INT123_synth_ntom_m2s 00000001800996dc     libmpg123:synth.obj
 0002:000226dc       $unwind$__acrt_getptd      00000001800996dc     libucrt:per_thread_data.obj
 0002:000226dc       $unwind$??$skip_whitespace@Vstring_input_adapter@__crt_stdio_input@@D@__crt_stdio_input@@YAHAEAV?$string_input_adapter@D@0@QEAU__crt_locale_pointers@@@Z 00000001800996dc     libucrt:input.obj
 0002:000226dc       $unwind$__acrt_stdio_flush_nolock 00000001800996dc     libucrt:fflush.obj
 0002:000226dc       $unwind$?process@?$input_processor@DV?$string_input_adapter@D@__crt_stdio_input@@@__crt_stdio_input@@QEAAHXZ 00000001800996dc     libucrt:input.obj
 0002:000226dc       $unwind$_exception_enabled 00000001800996dc     libucrt:libm_error.obj
 0002:000226dc       $unwind$?process_string_specifier@?$input_processor@DV?$string_input_adapter@D@__crt_stdio_input@@@__crt_stdio_input@@AEAA_NW4conversion_mode@2@@Z 00000001800996dc     libucrt:input.obj
 0002:000226dc       $unwind$__acrt_execute_initializers 00000001800996dc     libucrt:shared_initialization.obj
 0002:000226dc       $unwind$__acrt_getptd_noexit 00000001800996dc     libucrt:per_thread_data.obj
 0002:000226dc       $unwind$??$common_lseek_nolock@_J@@YA_JH_JH@Z 00000001800996dc     libucrt:lseek.obj
 0002:000226ec       $unwind$lame_init          00000001800996ec     libmp3lame:lame.obj
 0002:000226f8       $chain$4$lame_init         00000001800996f8     libmp3lame:lame.obj
 0002:0002271c       $chain$5$lame_init         000000018009971c     libmp3lame:lame.obj
 0002:00022730       $chain$6$lame_init         0000000180099730     libmp3lame:lame.obj
 0002:00022740       $chain$7$lame_init         0000000180099740     libmp3lame:lame.obj
 0002:00022750       $unwind$sprintf            0000000180099750     libmp3lame:id3tag.obj
 0002:00022750       $unwind$sscanf             0000000180099750     libmpg123:parse.obj
 0002:00022750       $unwind$fprintf            0000000180099750     libmpg123:libmpg123.obj
 0002:0002275c       $unwind$id3v2_add_latin1   000000018009975c     libmp3lame:id3tag.obj
 0002:00022764       $chain$0$id3v2_add_latin1  0000000180099764     libmp3lame:id3tag.obj
 0002:00022778       $chain$2$id3v2_add_latin1  0000000180099778     libmp3lame:id3tag.obj
 0002:0002278c       $chain$3$id3v2_add_latin1  000000018009978c     libmp3lame:id3tag.obj
 0002:0002279c       $unwind$set_frame_comment  000000018009979c     libmp3lame:id3tag.obj
 0002:0002279c       $unwind$writeLoBytes       000000018009979c     libmp3lame:id3tag.obj
 0002:0002279c       $unwind$INT123_ntom_val    000000018009979c     libmpg123:ntom.obj
 0002:000227a4       $chain$2$writeLoBytes      00000001800997a4     libmp3lame:id3tag.obj
 0002:000227c0       $chain$4$writeLoBytes      00000001800997c0     libmp3lame:id3tag.obj
 0002:000227d8       $chain$5$writeLoBytes      00000001800997d8     libmp3lame:id3tag.obj
 0002:000227e8       $chain$0$set_frame_comment 00000001800997e8     libmp3lame:id3tag.obj
 0002:000227fc       $chain$2$set_frame_comment 00000001800997fc     libmp3lame:id3tag.obj
 0002:00022810       $chain$3$set_frame_comment 0000000180099810     libmp3lame:id3tag.obj
 0002:00022820       $unwind$lame_get_id3v2_tag 0000000180099820     libmp3lame:id3tag.obj
 0002:00022844       $unwind$lame_get_id3v1_tag 0000000180099844     libmp3lame:id3tag.obj
 0002:00022858       $chain$0$lame_get_id3v1_tag 0000000180099858     libmp3lame:id3tag.obj
 0002:0002286c       $chain$2$lame_get_id3v1_tag 000000018009986c     libmp3lame:id3tag.obj
 0002:00022884       $chain$3$lame_get_id3v1_tag 0000000180099884     libmp3lame:id3tag.obj
 0002:00022898       $chain$4$lame_get_id3v1_tag 0000000180099898     libmp3lame:id3tag.obj
 0002:000228a8       $unwind$putbits2           00000001800998a8     libmp3lame:bitstream.obj
 0002:000228b8       $unwind$drain_into_ancillary 00000001800998b8     libmp3lame:bitstream.obj
 0002:000228cc       $unwind$writeheader        00000001800998cc     libmp3lame:bitstream.obj
 0002:000228cc       $unwind$cap_fit            00000001800998cc     libmpg123:format.obj
 0002:000228cc       $unwind$?DloadObtainSection@@YAPEAXPEAK0@Z 00000001800998cc     DelayImp:delayhlp.obj
 0002:000228cc       $unwind$add_dummy_byte     00000001800998cc     libmp3lame:bitstream.obj
 0002:000228dc       $unwind$_errno             00000001800998dc     libucrt:errno.obj
 0002:000228dc       $unwind$__doserrno         00000001800998dc     libucrt:errno.obj
 0002:000228dc       $unwind$__acrt_initialize_command_line 00000001800998dc     libucrt:argv_data.obj
 0002:000228dc       $unwind$_strnicmp          00000001800998dc     libucrt:strnicmp.obj
 0002:000228dc       $unwind$__acrt_initialize_heap 00000001800998dc     libucrt:heap_handle.obj
 0002:000228dc       $unwind$??$uninitialize_environment_internal@_W@@YAXAEAPEAPEA_W@Z 00000001800998dc     libucrt:environment_initialization.obj
 0002:000228dc       $unwind$CRC_writeheader    00000001800998dc     libmp3lame:bitstream.obj
 0002:000228dc       $unwind$__acrt_initialize_ptd 00000001800998dc     libucrt:per_thread_data.obj
 0002:000228dc       $unwind$?state_case_size@?$output_processor@DV?$string_output_adapter@D@__crt_stdio_output@@V?$standard_base@DV?$string_output_adapter@D@__crt_stdio_output@@@2@@__crt_stdio_output@@AEAA_NXZ 00000001800998dc     libucrt:output.obj
 0002:000228dc       $unwind$guess_scalefac_x34 00000001800998dc     libmp3lame:vbrquantize.obj
 0002:000228dc       $unwind$?state_case_normal_tchar@?$output_processor@DV?$string_output_adapter@D@__crt_stdio_output@@V?$standard_base@DV?$string_output_adapter@D@__crt_stdio_output@@@2@@__crt_stdio_output@@AEAA_ND@Z 00000001800998dc     libucrt:output.obj
 0002:000228dc       $unwind$_get_osfhandle     00000001800998dc     libucrt:osfinfo.obj
 0002:000228dc       $unwind$?state_case_size@?$output_processor@DV?$stream_output_adapter@D@__crt_stdio_output@@V?$standard_base@DV?$stream_output_adapter@D@__crt_stdio_output@@@2@@__crt_stdio_output@@AEAA_NXZ 00000001800998dc     libucrt:output.obj
 0002:000228dc       $unwind$?validate_stream_is_ansi_if_required@?$__acrt_stdio_char_traits@D@@SA_NQEAU_iobuf@@@Z 00000001800998dc     libucrt:output.obj
 0002:000228dc       $unwind$__acrt_uninitialize 00000001800998dc     libucrt:initialization.obj
 0002:000228dc       $unwind$tolower            00000001800998dc     libucrt:tolower_toupper.obj
 0002:000228dc       $unwind$??$uninitialize_environment_internal@D@@YAXAEAPEAPEAD@Z 00000001800998dc     libucrt:environment_initialization.obj
 0002:000228dc       $unwind$posix_read         00000001800998dc     libmpg123:readers.obj
 0002:000228dc       $unwind$_stricmp           00000001800998dc     libucrt:stricmp.obj
 0002:000228dc       $unwind$_invoke_watson     00000001800998dc     libucrt:invalid_parameter.obj
 0002:000228dc       $unwind$__dcrt_uninitialize_environments_nolock 00000001800998dc     libucrt:environment_initialization.obj
 0002:000228dc       $unwind$__vcrt_freefls     00000001800998dc     libvcruntime:per_thread_data.obj
 0002:000228dc       $unwind$__acrt_release_locale_ref 00000001800998dc     libucrt:locale_refcounting.obj
 0002:000228dc       $unwind$__GSHandlerCheck   00000001800998dc     LIBCMT:gshandler.obj
 0002:000228dc       $unwind$?DloadReleaseSectionWriteAccess@@YAXXZ 00000001800998dc     DelayImp:delayhlp.obj
 0002:000228dc       $unwind$_isatty            00000001800998dc     libucrt:isatty.obj
 0002:000228dc       $unwind$?initialize_multibyte@@YAHXZ 00000001800998dc     libucrt:multibyte_initializer.obj
 0002:000228dc       $unwind$__acrt_uninitialize_ptd 00000001800998dc     libucrt:per_thread_data.obj
 0002:000228dc       $unwind$__vcrt_uninitialize_ptd 00000001800998dc     libvcruntime:per_thread_data.obj
 0002:000228dc       $unwind$__vcrt_initialize_ptd 00000001800998dc     libvcruntime:per_thread_data.obj
 0002:000228dc       $unwind$abort              00000001800998dc     libucrt:abort.obj
 0002:000228dc       $unwind$fegetround         00000001800998dc     libucrt:fegetround.obj
 0002:000228dc       $unwind$__vcrt_thread_detach 00000001800998dc     libvcruntime:initialization.obj
 0002:000228dc       $unwind$__vcrt_thread_attach 00000001800998dc     libvcruntime:initialization.obj
 0002:000228dc       $unwind$__vcrt_uninitialize_critical 00000001800998dc     libvcruntime:initialization.obj
 0002:000228dc       $unwind$__acrt_AreFileApisANSI 00000001800998dc     libucrt:winapi_thunks.obj
 0002:000228dc       $unwind$__acrt_uninitialize_critical 00000001800998dc     libucrt:initialization.obj
 0002:000228dc       $unwind$__vcrt_uninitialize 00000001800998dc     libvcruntime:initialization.obj
 0002:000228dc       $unwind$__vcrt_initialize  00000001800998dc     libvcruntime:initialization.obj
 0002:000228dc       $unwind$__acrt_update_thread_multibyte_data 00000001800998dc     libucrt:mbctype.obj
 0002:000228dc       $unwind$_fileno            00000001800998dc     libucrt:fileno.obj
 0002:000228dc       $unwind$?dllmain_crt_dispatch@@YAHQEAUHINSTANCE__@@KQEAX@Z 00000001800998dc     LIBCMT:dll_dllmain.obj
 0002:000228dc       $unwind$__acrt_thread_attach 00000001800998dc     libucrt:initialization.obj
 0002:000228dc       $unwind$__acrt_thread_detach 00000001800998dc     libucrt:initialization.obj
 0002:000228dc       $unwind$__dcrt_terminate_console_output 00000001800998dc     libucrt:initcon.obj
 0002:000228dc       $unwind$initialize_c       00000001800998dc     libucrt:initialization.obj
 0002:000228dc       $unwind$__scrt_dllmain_crt_thread_detach 00000001800998dc     LIBCMT:utility.obj
 0002:000228dc       $unwind$__report_rangecheckfailure 00000001800998dc     LIBCMT:gs_report.obj
 0002:000228dc       $unwind$__scrt_dllmain_crt_thread_attach 00000001800998dc     LIBCMT:utility.obj
 0002:000228dc       $unwind$__scrt_dllmain_uninitialize_critical 00000001800998dc     LIBCMT:utility.obj
 0002:000228dc       $unwind$__acrt_DownlevelLocaleNameToLCID 00000001800998dc     libucrt:lcidtoname_downlevel.obj
 0002:000228dc       $unwind$__scrt_dllmain_uninitialize_c 00000001800998dc     LIBCMT:utility.obj
 0002:000228dc       $unwind$__scrt_dllmain_after_initialize_c 00000001800998dc     LIBCMT:utility.obj
 0002:000228dc       $unwind$uninitialize_environment 00000001800998dc     libucrt:initialization.obj
 0002:000228dc       $unwind$__scrt_dllmain_before_initialize_c 00000001800998dc     LIBCMT:utility.obj
 0002:000228dc       $unwind$ResetSampleFrequency 00000001800998dc     libmp3lame:gain_analysis.obj
 0002:000228dc       $unwind$__scrt_acquire_startup_lock 00000001800998dc     LIBCMT:utility.obj
 0002:000228dc       $unwind$_set_errno_from_matherr 00000001800998dc     libucrt:fpexcept.obj
 0002:000228dc       $unwind$uninitialize_allocated_io_buffers 00000001800998dc     libucrt:initialization.obj
 0002:000228dc       $unwind$?__c32rtomb_utf8@__crt_mbstring@@YA_KPEAD_UPEAU_Mbstatet@@@Z 00000001800998dc     libucrt:c32rtomb.obj
 0002:000228dc       $unwind$__scrt_initialize_default_local_stdio_options 00000001800998dc     LIBCMT:default_local_stdio_options.obj
 0002:000228dc       $unwind$_statfp            00000001800998dc     libucrt:fpctrl.obj
 0002:000228dc       $unwind$ATHformula         00000001800998dc     libmp3lame:util.obj
 0002:000228dc       $unwind$_msize_base        00000001800998dc     libucrt:msize.obj
 0002:000228dc       $unwind$__pctype_func      00000001800998dc     libucrt:ctype.obj
 0002:000228dc       $unwind$__acrt_initialize_multibyte 00000001800998dc     libucrt:mbctype.obj
 0002:000228e4       $unwind$encodeSideInfo2    00000001800998e4     libmp3lame:bitstream.obj
 0002:000228ec       $chain$1$encodeSideInfo2   00000001800998ec     libmp3lame:bitstream.obj
 0002:00022904       $chain$2$encodeSideInfo2   0000000180099904     libmp3lame:bitstream.obj
 0002:00022918       $chain$4$encodeSideInfo2   0000000180099918     libmp3lame:bitstream.obj
 0002:00022930       $chain$6$encodeSideInfo2   0000000180099930     libmp3lame:bitstream.obj
 0002:00022948       $chain$7$encodeSideInfo2   0000000180099948     libmp3lame:bitstream.obj
 0002:00022958       $chain$8$encodeSideInfo2   0000000180099958     libmp3lame:bitstream.obj
 0002:00022968       $chain$9$encodeSideInfo2   0000000180099968     libmp3lame:bitstream.obj
 0002:00022978       $unwind$huffman_coder_count1 0000000180099978     libmp3lame:bitstream.obj
 0002:00022988       $chain$3$huffman_coder_count1 0000000180099988     libmp3lame:bitstream.obj
 0002:000229a8       $chain$4$huffman_coder_count1 00000001800999a8     libmp3lame:bitstream.obj
 0002:000229b8       $unwind$Huffmancode        00000001800999b8     libmp3lame:bitstream.obj
 0002:000229c4       $chain$0$Huffmancode       00000001800999c4     libmp3lame:bitstream.obj
 0002:000229d8       $chain$5$Huffmancode       00000001800999d8     libmp3lame:bitstream.obj
 0002:000229fc       $chain$6$Huffmancode       00000001800999fc     libmp3lame:bitstream.obj
 0002:00022a0c       $chain$7$Huffmancode       0000000180099a0c     libmp3lame:bitstream.obj
 0002:00022a1c       $unwind$LongHuffmancodebits 0000000180099a1c     libmp3lame:bitstream.obj
 0002:00022a1c       $unwind$??$create_environment@D@@YAQEAPEADQEAD@Z 0000000180099a1c     libucrt:environment_initialization.obj
 0002:00022a34       $unwind$writeMainData      0000000180099a34     libmp3lame:bitstream.obj
 0002:00022a4c       $chain$0$writeMainData     0000000180099a4c     libmp3lame:bitstream.obj
 0002:00022a60       $chain$1$writeMainData     0000000180099a60     libmp3lame:bitstream.obj
 0002:00022a70       $unwind$??_Gbad_alloc@std@@UEAAPEAXI@Z 0000000180099a70     LIBCMT:throw_bad_alloc.obj
 0002:00022a70       $unwind$INT123_synth_1to1_real_m2s 0000000180099a70     libmpg123:synth_real.obj
 0002:00022a70       $unwind$INT123_synth_4to1_real_m2s 0000000180099a70     libmpg123:synth_real.obj
 0002:00022a70       $unwind$strncpy_s          0000000180099a70     libucrt:strncpy_s.obj
 0002:00022a70       $unwind$?process_floating_point_specifier@?$input_processor@DV?$string_input_adapter@D@__crt_stdio_input@@@__crt_stdio_input@@AEAA_NXZ 0000000180099a70     libucrt:input.obj
 0002:00022a70       $unwind$_fclose_nolock     0000000180099a70     libucrt:fclose.obj
 0002:00022a70       $unwind$??_Gbad_array_new_length@std@@UEAAPEAXI@Z 0000000180099a70     LIBCMT:throw_bad_alloc.obj
 0002:00022a70       $unwind$_realloc_base      0000000180099a70     libucrt:realloc_base.obj
 0002:00022a70       $unwind$?process_state@?$input_processor@DV?$string_input_adapter@D@__crt_stdio_input@@@__crt_stdio_input@@AEAA_NXZ 0000000180099a70     libucrt:input.obj
 0002:00022a70       $unwind$__acrt_stdio_allocate_buffer_nolock 0000000180099a70     libucrt:_getbuf.obj
 0002:00022a70       $unwind$__acrt_execute_uninitializers 0000000180099a70     libucrt:shared_initialization.obj
 0002:00022a70       $unwind$apply_preset       0000000180099a70     libmp3lame:presets.obj
 0002:00022a70       $unwind$??$common_initialize_environment_nolock@D@@YAHXZ 0000000180099a70     libucrt:environment_initialization.obj
 0002:00022a70       $unwind$__acrt_fp_strflt_to_string 0000000180099a70     libucrt:_fptostr.obj
 0002:00022a70       $unwind$INT123_synth_2to1_real_m2s 0000000180099a70     libmpg123:synth_real.obj
 0002:00022a70       $unwind$?process_literal_character_tchar@?$input_processor@DV?$string_input_adapter@D@__crt_stdio_input@@@__crt_stdio_input@@AEAA_ND@Z 0000000180099a70     libucrt:input.obj
 0002:00022a70       $unwind$INT123_synth_1to1_8bit_m2s 0000000180099a70     libmpg123:synth_8bit.obj
 0002:00022a70       $unwind$?write_integer@?$input_processor@DV?$string_input_adapter@D@__crt_stdio_input@@@__crt_stdio_input@@AEAA_N_K@Z 0000000180099a70     libucrt:input.obj
 0002:00022a70       $unwind$INT123_synth_4to1_m2s 0000000180099a70     libmpg123:synth.obj
 0002:00022a70       $unwind$INT123_synth_2to1_8bit_m2s 0000000180099a70     libmpg123:synth_8bit.obj
 0002:00022a70       $unwind$INT123_synth_1to1_m2s 0000000180099a70     libmpg123:synth.obj
 0002:00022a70       $unwind$??_Gexception@std@@UEAAPEAXI@Z 0000000180099a70     LIBCMT:throw_bad_alloc.obj
 0002:00022a70       $unwind$INT123_synth_2to1_m2s 0000000180099a70     libmpg123:synth.obj
 0002:00022a70       $unwind$?process_conversion_specifier@?$input_processor@DV?$string_input_adapter@D@__crt_stdio_input@@@__crt_stdio_input@@AEAA_NXZ 0000000180099a70     libucrt:input.obj
 0002:00022a70       $unwind$__acrt_FlsSetValue 0000000180099a70     libucrt:winapi_thunks.obj
 0002:00022a70       $unwind$__acrt_uninitialize_lowio 0000000180099a70     libucrt:ioinit.obj
 0002:00022a70       $unwind$_RTC_Initialize    0000000180099a70     LIBCMT:initsect.obj
 0002:00022a70       $unwind$INT123_frame_buffers 0000000180099a70     libmpg123:frame.obj
 0002:00022a70       $unwind$INT123_frame_ins2outs 0000000180099a70     libmpg123:frame.obj
 0002:00022a70       $unwind$mpg123_resize_string 0000000180099a70     libmpg123:stringbuf.obj
 0002:00022a70       $unwind$_initterm_e        0000000180099a70     libucrt:initterm.obj
 0002:00022a70       $unwind$feed_init          0000000180099a70     libmpg123:readers.obj
 0002:00022a70       $unwind$INT123_synth_4to1_8bit_m2s 0000000180099a70     libmpg123:synth_8bit.obj
 0002:00022a70       $unwind$?force_decimal_point@__crt_stdio_output@@YAXPEADQEAU__crt_locale_pointers@@@Z 0000000180099a70     libucrt:output.obj
 0002:00022a70       $unwind$INT123_frame_buffers_reset 0000000180099a70     libmpg123:frame.obj
 0002:00022a70       $unwind$add_id3_text       0000000180099a70     libmpg123:id3.obj
 0002:00022a70       $unwind$_RTC_Terminate     0000000180099a70     LIBCMT:initsect.obj
 0002:00022a70       $unwind$bc_reset           0000000180099a70     libmpg123:readers.obj
 0002:00022a70       $unwind$INT123_synth_2to1_s32_m2s 0000000180099a70     libmpg123:synth_s32.obj
 0002:00022a70       $unwind$__acrt_errno_map_os_error 0000000180099a70     libucrt:errno.obj
 0002:00022a70       $unwind$INT123_synth_4to1_s32_m2s 0000000180099a70     libmpg123:synth_s32.obj
 0002:00022a70       $unwind$?replace_current_thread_locale_nolock@@YAXQEAU__acrt_ptd@@QEAU__crt_locale_data@@@Z 0000000180099a70     libucrt:per_thread_data.obj
 0002:00022a70       $unwind$INT123_synth_1to1_s32_m2s 0000000180099a70     libmpg123:synth_s32.obj
 0002:00022a70       $unwind$__acrt_LocaleNameToLCID 0000000180099a70     libucrt:winapi_thunks.obj
 0002:00022a70       $unwind$_close_nolock      0000000180099a70     libucrt:close.obj
 0002:00022a70       $unwind$__vcrt_FlsSetValue 0000000180099a70     libvcruntime:winapi_downlevel.obj
 0002:00022a70       $unwind$INT123_fi_resize   0000000180099a70     libmpg123:index.obj
 0002:00022a70       $unwind$__acrt_stdio_begin_temporary_buffering_nolock 0000000180099a70     libucrt:_sftbuf.obj
 0002:00022a70       $unwind$?DloadGetSRWLockFunctionPointers@@YAEXZ 0000000180099a70     DelayImp:delayhlp.obj
 0002:00022a70       $unwind$_updatetlocinfoEx_nolock 0000000180099a70     libucrt:locale_refcounting.obj
 0002:00022a70       $unwind$INT123_frame_init_par 0000000180099a70     libmpg123:frame.obj
 0002:00022a70       $unwind$compute_flushbits  0000000180099a70     libmp3lame:bitstream.obj
 0002:00022a7c       $unwind$format_bitstream   0000000180099a7c     libmp3lame:bitstream.obj
 0002:00022a90       $unwind$INT123_synth_4to1_real 0000000180099a90     libmpg123:synth_real.obj
 0002:00022a90       $unwind$INT123_synth_1to1_real 0000000180099a90     libmpg123:synth_real.obj
 0002:00022a90       $unwind$INT123_synth_2to1_real 0000000180099a90     libmpg123:synth_real.obj
 0002:00022a90       $unwind$copy_buffer        0000000180099a90     libmp3lame:bitstream.obj
 0002:00022aa8       $unwind$apply_vbr_preset   0000000180099aa8     libmp3lame:presets.obj
 0002:00022ae0       $unwind$apply_abr_preset   0000000180099ae0     libmp3lame:presets.obj
 0002:00022b00       $unwind$convert_partition2scalefac 0000000180099b00     libmp3lame:psymodel.obj
 0002:00022b0c       $chain$2$convert_partition2scalefac 0000000180099b0c     libmp3lame:psymodel.obj
 0002:00022b28       $chain$4$convert_partition2scalefac 0000000180099b28     libmp3lame:psymodel.obj
 0002:00022b40       $chain$5$convert_partition2scalefac 0000000180099b40     libmp3lame:psymodel.obj
 0002:00022b54       $chain$6$convert_partition2scalefac 0000000180099b54     libmp3lame:psymodel.obj
 0002:00022b64       $chain$7$convert_partition2scalefac 0000000180099b64     libmp3lame:psymodel.obj
 0002:00022b74       $chain$8$convert_partition2scalefac 0000000180099b74     libmp3lame:psymodel.obj
 0002:00022b84       $unwind$pecalc_s           0000000180099b84     libmp3lame:psymodel.obj
 0002:00022ba4       $unwind$pecalc_l           0000000180099ba4     libmp3lame:psymodel.obj
 0002:00022bc8       $unwind$calc_mask_index_l  0000000180099bc8     libmp3lame:psymodel.obj
 0002:00022bd4       $chain$0$calc_mask_index_l 0000000180099bd4     libmp3lame:psymodel.obj
 0002:00022be8       $chain$2$calc_mask_index_l 0000000180099be8     libmp3lame:psymodel.obj
 0002:00022c00       $chain$3$calc_mask_index_l 0000000180099c00     libmp3lame:psymodel.obj
 0002:00022c10       $chain$4$calc_mask_index_l 0000000180099c10     libmp3lame:psymodel.obj
 0002:00022c20       $unwind$choose_table_nonMMX 0000000180099c20     libmp3lame:takehiro.obj
 0002:00022c20       $unwind$?parse_int_from_format_string@?$output_processor@DV?$string_output_adapter@D@__crt_stdio_output@@V?$standard_base@DV?$string_output_adapter@D@__crt_stdio_output@@@2@@__crt_stdio_output@@AEAA_NQEAH@Z 0000000180099c20     libucrt:output.obj
 0002:00022c20       $unwind$?parse_int_from_format_string@?$output_processor@DV?$stream_output_adapter@D@__crt_stdio_output@@V?$standard_base@DV?$stream_output_adapter@D@__crt_stdio_output@@@2@@__crt_stdio_output@@AEAA_NQEAH@Z 0000000180099c20     libucrt:output.obj
 0002:00022c20       $unwind$vbrpsy_compute_fft_l 0000000180099c20     libmp3lame:psymodel.obj
 0002:00022c20       $unwind$do_readahead       0000000180099c20     libmpg123:parse.obj
 0002:00022c20       $unwind$init_xrpow         0000000180099c20     libmp3lame:quantize.obj
 0002:00022c34       $chain$0$vbrpsy_compute_fft_l 0000000180099c34     libmp3lame:psymodel.obj
 0002:00022c48       $chain$1$vbrpsy_compute_fft_l 0000000180099c48     libmp3lame:psymodel.obj
 0002:00022c58       $unwind$vbrpsy_attack_detection 0000000180099c58     libmp3lame:psymodel.obj
 0002:00022c80       $chain$8$vbrpsy_attack_detection 0000000180099c80     libmp3lame:psymodel.obj
 0002:00022cb4       $chain$9$vbrpsy_attack_detection 0000000180099cb4     libmp3lame:psymodel.obj
 0002:00022cc4       $unwind$vbrpsy_calc_mask_index_s 0000000180099cc4     libmp3lame:psymodel.obj
 0002:00022ccc       $chain$1$vbrpsy_calc_mask_index_s 0000000180099ccc     libmp3lame:psymodel.obj
 0002:00022ce4       $chain$3$vbrpsy_calc_mask_index_s 0000000180099ce4     libmp3lame:psymodel.obj
 0002:00022cfc       $chain$4$vbrpsy_calc_mask_index_s 0000000180099cfc     libmp3lame:psymodel.obj
 0002:00022d0c       $chain$5$vbrpsy_calc_mask_index_s 0000000180099d0c     libmp3lame:psymodel.obj
 0002:00022d1c       $unwind$vbrpsy_compute_masking_s 0000000180099d1c     libmp3lame:psymodel.obj
 0002:00022d30       $chain$6$vbrpsy_compute_masking_s 0000000180099d30     libmp3lame:psymodel.obj
 0002:00022d5c       $chain$11$vbrpsy_compute_masking_s 0000000180099d5c     libmp3lame:psymodel.obj
 0002:00022d80       $chain$12$vbrpsy_compute_masking_s 0000000180099d80     libmp3lame:psymodel.obj
 0002:00022d90       $chain$13$vbrpsy_compute_masking_s 0000000180099d90     libmp3lame:psymodel.obj
 0002:00022da4       $chain$14$vbrpsy_compute_masking_s 0000000180099da4     libmp3lame:psymodel.obj
 0002:00022db4       $unwind$vbrpsy_compute_masking_l 0000000180099db4     libmp3lame:psymodel.obj
 0002:00022dcc       $chain$5$vbrpsy_compute_masking_l 0000000180099dcc     libmp3lame:psymodel.obj
 0002:00022df4       $chain$12$vbrpsy_compute_masking_l 0000000180099df4     libmp3lame:psymodel.obj
 0002:00022e20       $chain$13$vbrpsy_compute_masking_l 0000000180099e20     libmp3lame:psymodel.obj
 0002:00022e30       $chain$14$vbrpsy_compute_masking_l 0000000180099e30     libmp3lame:psymodel.obj
 0002:00022e44       $chain$15$vbrpsy_compute_masking_l 0000000180099e44     libmp3lame:psymodel.obj
 0002:00022e54       $unwind$vbrpsy_compute_MS_thresholds 0000000180099e54     libmp3lame:psymodel.obj
 0002:00022e8c       $chain$0$vbrpsy_compute_MS_thresholds 0000000180099e8c     libmp3lame:psymodel.obj
 0002:00022ea0       $chain$1$vbrpsy_compute_MS_thresholds 0000000180099ea0     libmp3lame:psymodel.obj
 0002:00022eb0       $unwind$L3psycho_anal_vbr  0000000180099eb0     libmp3lame:psymodel.obj
 0002:00022ed0       $chain$1$L3psycho_anal_vbr 0000000180099ed0     libmp3lame:psymodel.obj
 0002:00022ee8       $chain$2$L3psycho_anal_vbr 0000000180099ee8     libmp3lame:psymodel.obj
 0002:00022efc       $chain$7$L3psycho_anal_vbr 0000000180099efc     libmp3lame:psymodel.obj
 0002:00022f20       $chain$8$L3psycho_anal_vbr 0000000180099f20     libmp3lame:psymodel.obj
 0002:00022f30       $chain$9$L3psycho_anal_vbr 0000000180099f30     libmp3lame:psymodel.obj
 0002:00022f40       $unwind$init_numline       0000000180099f40     libmp3lame:psymodel.obj
 0002:00022f90       $unwind$compute_bark_values 0000000180099f90     libmp3lame:psymodel.obj
 0002:00022fa8       $chain$10$compute_bark_values 0000000180099fa8     libmp3lame:psymodel.obj
 0002:00022fe4       $chain$11$compute_bark_values 0000000180099fe4     libmp3lame:psymodel.obj
 0002:00022ff4       $unwind$init_s3_values     0000000180099ff4     libmp3lame:psymodel.obj
 0002:0002300c       $chain$5$init_s3_values    000000018009a00c     libmp3lame:psymodel.obj
 0002:00023034       $chain$14$init_s3_values   000000018009a034     libmp3lame:psymodel.obj
 0002:00023068       $chain$15$init_s3_values   000000018009a068     libmp3lame:psymodel.obj
 0002:00023078       $chain$16$init_s3_values   000000018009a078     libmp3lame:psymodel.obj
 0002:00023088       $unwind$psymodel_init      000000018009a088     libmp3lame:psymodel.obj
 0002:000230a8       $chain$5$psymodel_init     000000018009a0a8     libmp3lame:psymodel.obj
 0002:000230d0       $chain$6$psymodel_init     000000018009a0d0     libmp3lame:psymodel.obj
 0002:000230e4       $chain$12$psymodel_init    000000018009a0e4     libmp3lame:psymodel.obj
 0002:0002310c       $chain$13$psymodel_init    000000018009a10c     libmp3lame:psymodel.obj
 0002:00023124       $chain$14$psymodel_init    000000018009a124     libmp3lame:psymodel.obj
 0002:00023134       $chain$15$psymodel_init    000000018009a134     libmp3lame:psymodel.obj
 0002:00023144       $unwind$free_id3tag        000000018009a144     libmp3lame:util.obj
 0002:00023154       $chain$1$free_id3tag       000000018009a154     libmp3lame:util.obj
 0002:0002316c       $chain$2$free_id3tag       000000018009a16c     libmp3lame:util.obj
 0002:0002317c       $unwind$?setSBCS@@YAXPEAU__crt_multibyte_data@@@Z 000000018009a17c     libucrt:mbctype.obj
 0002:0002317c       $unwind$plain_fullread     000000018009a17c     libmpg123:readers.obj
 0002:0002317c       $unwind$convert_utf8       000000018009a17c     libmpg123:id3.obj
 0002:0002317c       $unwind$GetTitleGain       000000018009a17c     libmp3lame:gain_analysis.obj
 0002:0002317c       $unwind$?scan_scanset_range@?$format_string_parser@D@__crt_stdio_input@@AEAA_NXZ 000000018009a17c     libucrt:input.obj
 0002:0002317c       $unwind$__acrt_free_locale 000000018009a17c     libucrt:locale_refcounting.obj
 0002:0002317c       $unwind$_seh_filter_exe    000000018009a17c     libucrt:exception_filter.obj
 0002:0002317c       $unwind$_initterm          000000018009a17c     libucrt:initterm.obj
 0002:0002317c       $unwind$freegfc            000000018009a17c     libmp3lame:util.obj
 0002:0002317c       $unwind$??$parse_floating_point_possible_nan@DV?$input_adapter_character_source@V?$string_input_adapter@D@__crt_stdio_input@@@__crt_strtox@@_K@__crt_strtox@@YA?AW4floating_point_parse_result@0@AEADAEAV?$input_adapter_character_source@V?$string_input_adapter@D@__crt_stdio_input@@@0@_K@Z 000000018009a17c     libucrt:input.obj
 0002:0002317c       $unwind$get_next_frame     000000018009a17c     libmpg123:libmpg123.obj
 0002:0002317c       $unwind$__acrt_lowio_create_handle_array 000000018009a17c     libucrt:osfinfo.obj
 0002:0002317c       $unwind$??$ensure_buffer_is_big_enough@D@formatting_buffer@__crt_stdio_output@@QEAA_N_K@Z 000000018009a17c     libucrt:output.obj
 0002:0002317c       $unwind$__scrt_dllmain_exception_filter 000000018009a17c     LIBCMT:utility.obj
 0002:0002317c       $unwind$_recalloc_base     000000018009a17c     libucrt:recalloc.obj
 0002:00023190       $unwind$ATHformula_GB      000000018009a190     libmp3lame:util.obj
 0002:000231a4       $unwind$__ascii_strnicmp   000000018009a1a4     libucrt:strnicmp.obj
 0002:000231a4       $unwind$FindNearestBitrate 000000018009a1a4     libmp3lame:util.obj
 0002:000231a4       $unwind$??$parse_floating_point_possible_nan_is_ind@DV?$input_adapter_character_source@V?$string_input_adapter@D@__crt_stdio_input@@@__crt_strtox@@@__crt_strtox@@YA_NAEADAEAV?$input_adapter_character_source@V?$string_input_adapter@D@__crt_stdio_input@@@0@@Z 000000018009a1a4     libucrt:input.obj
 0002:000231a4       $unwind$??$parse_floating_point_possible_nan_is_snan@DV?$input_adapter_character_source@V?$string_input_adapter@D@__crt_stdio_input@@@__crt_strtox@@@__crt_strtox@@YA_NAEADAEAV?$input_adapter_character_source@V?$string_input_adapter@D@__crt_stdio_input@@@0@@Z 000000018009a1a4     libucrt:input.obj
 0002:000231a4       $unwind$frame_fuzzy_find   000000018009a1a4     libmpg123:frame.obj
 0002:000231a4       $unwind$??$type_case_integer_parse_into_buffer@_K@?$output_processor@DV?$stream_output_adapter@D@__crt_stdio_output@@V?$standard_base@DV?$stream_output_adapter@D@__crt_stdio_output@@@2@@__crt_stdio_output@@AEAAX_KI_N@Z 000000018009a1a4     libucrt:output.obj
 0002:000231a4       $unwind$??$type_case_integer_parse_into_buffer@I@?$output_processor@DV?$string_output_adapter@D@__crt_stdio_output@@V?$standard_base@DV?$string_output_adapter@D@__crt_stdio_output@@@2@@__crt_stdio_output@@AEAAXII_N@Z 000000018009a1a4     libucrt:output.obj
 0002:000231a4       $unwind$??$type_case_integer_parse_into_buffer@_K@?$output_processor@DV?$string_output_adapter@D@__crt_stdio_output@@V?$standard_base@DV?$string_output_adapter@D@__crt_stdio_output@@@2@@__crt_stdio_output@@AEAAX_KI_N@Z 000000018009a1a4     libucrt:output.obj
 0002:000231a4       $unwind$reduce_side        000000018009a1a4     libmp3lame:quantize_pvt.obj
 0002:000231a4       $unwind$??$type_case_integer_parse_into_buffer@I@?$output_processor@DV?$stream_output_adapter@D@__crt_stdio_output@@V?$standard_base@DV?$stream_output_adapter@D@__crt_stdio_output@@@2@@__crt_stdio_output@@AEAAXII_N@Z 000000018009a1a4     libucrt:output.obj
 0002:000231ac       $unwind$nearestBitrateFullIndex 000000018009a1ac     libmp3lame:util.obj
 0002:000231c4       $unwind$fill_buffer_resample 000000018009a1c4     libmp3lame:util.obj
 0002:000231d8       $chain$2$fill_buffer_resample 000000018009a1d8     libmp3lame:util.obj
 0002:000231f4       $chain$5$fill_buffer_resample 000000018009a1f4     libmp3lame:util.obj
 0002:00023210       $chain$11$fill_buffer_resample 000000018009a210     libmp3lame:util.obj
 0002:00023238       $chain$12$fill_buffer_resample 000000018009a238     libmp3lame:util.obj
 0002:00023248       $chain$13$fill_buffer_resample 000000018009a248     libmp3lame:util.obj
 0002:00023260       $chain$14$fill_buffer_resample 000000018009a260     libmp3lame:util.obj
 0002:00023274       $unwind$lame_report_def    000000018009a274     libmp3lame:util.obj
 0002:00023274       $unwind$strpbrk            000000018009a274     libucrt:strpbrk.obj
 0002:00023274       $unwind$INT123_frame_outbuffer 000000018009a274     libmpg123:frame.obj
 0002:00023284       $unwind$lame_errorf        000000018009a284     libmp3lame:util.obj
 0002:00023284       $unwind$lame_msgf          000000018009a284     libmp3lame:util.obj
 0002:0002328c       $unwind$compute_ath        000000018009a28c     libmp3lame:quantize_pvt.obj
 0002:000232c4       $unwind$iteration_init     000000018009a2c4     libmp3lame:quantize_pvt.obj
 0002:000232cc       $chain$7$iteration_init    000000018009a2cc     libmp3lame:quantize_pvt.obj
 0002:000232fc       $chain$9$iteration_init    000000018009a2fc     libmp3lame:quantize_pvt.obj
 0002:00023314       $chain$10$iteration_init   000000018009a314     libmp3lame:quantize_pvt.obj
 0002:00023324       $chain$11$iteration_init   000000018009a324     libmp3lame:quantize_pvt.obj
 0002:0002334c       $chain$12$iteration_init   000000018009a34c     libmp3lame:quantize_pvt.obj
 0002:0002335c       $unwind$on_pe              000000018009a35c     libmp3lame:quantize_pvt.obj
 0002:00023374       $unwind$athAdjust          000000018009a374     libmp3lame:quantize_pvt.obj
 0002:00023388       $unwind$calc_xmin          000000018009a388     libmp3lame:quantize_pvt.obj
 0002:000233b0       $chain$0$calc_xmin         000000018009a3b0     libmp3lame:quantize_pvt.obj
 0002:000233c4       $chain$1$calc_xmin         000000018009a3c4     libmp3lame:quantize_pvt.obj
 0002:000233d4       $unwind$calc_noise         000000018009a3d4     libmp3lame:quantize_pvt.obj
 0002:000233f4       $chain$9$calc_noise        000000018009a3f4     libmp3lame:quantize_pvt.obj
 0002:0002342c       $chain$10$calc_noise       000000018009a42c     libmp3lame:quantize_pvt.obj
 0002:0002343c       $unwind$set_pinfo          000000018009a43c     libmp3lame:quantize_pvt.obj
 0002:00023464       $chain$1$set_pinfo         000000018009a464     libmp3lame:quantize_pvt.obj
 0002:0002347c       $chain$2$set_pinfo         000000018009a47c     libmp3lame:quantize_pvt.obj
 0002:0002348c       $unwind$setLameTagFrameHeader 000000018009a48c     libmp3lame:VbrTag.obj
 0002:0002348c       $unwind$??$parse_floating_point_possible_infinity@DV?$input_adapter_character_source@V?$string_input_adapter@D@__crt_stdio_input@@@__crt_strtox@@_K@__crt_strtox@@YA?AW4floating_point_parse_result@0@AEADAEAV?$input_adapter_character_source@V?$string_input_adapter@D@__crt_stdio_input@@@0@_K@Z 000000018009a48c     libucrt:input.obj
 0002:0002349c       $unwind$init_xrpow_core_c  000000018009a49c     libmp3lame:quantize.obj
 0002:000234ac       $chain$4$init_xrpow_core_c 000000018009a4ac     libmp3lame:quantize.obj
 0002:000234d0       $chain$5$init_xrpow_core_c 000000018009a4d0     libmp3lame:quantize.obj
 0002:000234e0       $unwind$psfb21_analogsilence 000000018009a4e0     libmp3lame:quantize.obj
 0002:000234fc       $chain$0$psfb21_analogsilence 000000018009a4fc     libmp3lame:quantize.obj
 0002:00023510       $chain$1$psfb21_analogsilence 000000018009a510     libmp3lame:quantize.obj
 0002:00023520       $unwind$init_outer_loop    000000018009a520     libmp3lame:quantize.obj
 0002:00023534       $chain$0$init_outer_loop   000000018009a534     libmp3lame:quantize.obj
 0002:00023548       $chain$3$init_outer_loop   000000018009a548     libmp3lame:quantize.obj
 0002:00023564       $chain$4$init_outer_loop   000000018009a564     libmp3lame:quantize.obj
 0002:00023578       $chain$5$init_outer_loop   000000018009a578     libmp3lame:quantize.obj
 0002:00023588       $chain$6$init_outer_loop   000000018009a588     libmp3lame:quantize.obj
 0002:000235a0       $chain$7$init_outer_loop   000000018009a5a0     libmp3lame:quantize.obj
 0002:000235b0       $chain$8$init_outer_loop   000000018009a5b0     libmp3lame:quantize.obj
 0002:000235c0       $unwind$trancate_smallspectrums 000000018009a5c0     libmp3lame:quantize.obj
 0002:000235d8       $chain$10$trancate_smallspectrums 000000018009a5d8     libmp3lame:quantize.obj
 0002:00023614       $chain$12$trancate_smallspectrums 000000018009a614     libmp3lame:quantize.obj
 0002:0002362c       $chain$13$trancate_smallspectrums 000000018009a62c     libmp3lame:quantize.obj
 0002:0002363c       $unwind$get_klemm_noise    000000018009a63c     libmp3lame:quantize.obj
 0002:00023650       $chain$0$get_klemm_noise   000000018009a650     libmp3lame:quantize.obj
 0002:00023664       $chain$1$get_klemm_noise   000000018009a664     libmp3lame:quantize.obj
 0002:00023674       $chain$0$quant_compare     000000018009a674     libmp3lame:quantize.obj
 0002:00023688       $chain$3$quant_compare     000000018009a688     libmp3lame:quantize.obj
 0002:00023688       $chain$1$quant_compare     000000018009a688     libmp3lame:quantize.obj
 0002:00023698       $chain$2$quant_compare     000000018009a698     libmp3lame:quantize.obj
 0002:000236ac       $unwind$amp_scalefac_bands 000000018009a6ac     libmp3lame:quantize.obj
 0002:000236c4       $unwind$inc_scalefac_scale 000000018009a6c4     libmp3lame:quantize.obj
 0002:000236d0       $chain$0$inc_scalefac_scale 000000018009a6d0     libmp3lame:quantize.obj
 0002:000236e4       $chain$1$inc_scalefac_scale 000000018009a6e4     libmp3lame:quantize.obj
 0002:000236f4       $unwind$inc_subblock_gain  000000018009a6f4     libmp3lame:quantize.obj
 0002:000236f4       $unwind$INT123_make_decode_tables 000000018009a6f4     libmpg123:tabinit.obj
 0002:00023710       $unwind$outer_loop         000000018009a710     libmp3lame:quantize.obj
 0002:00023730       $chain$0$outer_loop        000000018009a730     libmp3lame:quantize.obj
 0002:00023744       $chain$1$outer_loop        000000018009a744     libmp3lame:quantize.obj
 0002:00023754       $unwind$VBR_old_prepare    000000018009a754     libmp3lame:quantize.obj
 0002:00023764       $chain$2$VBR_old_prepare   000000018009a764     libmp3lame:quantize.obj
 0002:00023780       $chain$12$VBR_old_prepare  000000018009a780     libmp3lame:quantize.obj
 0002:000237b8       $chain$13$VBR_old_prepare  000000018009a7b8     libmp3lame:quantize.obj
 0002:000237c8       $chain$14$VBR_old_prepare  000000018009a7c8     libmp3lame:quantize.obj
 0002:000237d8       $unwind$bitpressure_strategy 000000018009a7d8     libmp3lame:quantize.obj
 0002:000237e8       $chain$5$bitpressure_strategy 000000018009a7e8     libmp3lame:quantize.obj
 0002:00023810       $chain$6$bitpressure_strategy 000000018009a810     libmp3lame:quantize.obj
 0002:00023820       $unwind$VBR_old_iteration_loop 000000018009a820     libmp3lame:quantize.obj
 0002:00023844       $unwind$VBR_new_prepare    000000018009a844     libmp3lame:quantize.obj
 0002:00023850       $chain$6$VBR_new_prepare   000000018009a850     libmp3lame:quantize.obj
 0002:0002387c       $chain$8$VBR_new_prepare   000000018009a87c     libmp3lame:quantize.obj
 0002:00023894       $chain$9$VBR_new_prepare   000000018009a894     libmp3lame:quantize.obj
 0002:000238a4       $chain$10$VBR_new_prepare  000000018009a8a4     libmp3lame:quantize.obj
 0002:000238c4       $chain$11$VBR_new_prepare  000000018009a8c4     libmp3lame:quantize.obj
 0002:000238d4       $unwind$VBR_new_iteration_loop 000000018009a8d4     libmp3lame:quantize.obj
 0002:000238e8       $chain$3$VBR_new_iteration_loop 000000018009a8e8     libmp3lame:quantize.obj
 0002:00023908       $chain$5$VBR_new_iteration_loop 000000018009a908     libmp3lame:quantize.obj
 0002:00023920       $chain$6$VBR_new_iteration_loop 000000018009a920     libmp3lame:quantize.obj
 0002:00023930       $chain$7$VBR_new_iteration_loop 000000018009a930     libmp3lame:quantize.obj
 0002:00023944       $chain$8$VBR_new_iteration_loop 000000018009a944     libmp3lame:quantize.obj
 0002:00023954       $unwind$calc_target_bits   000000018009a954     libmp3lame:quantize.obj
 0002:0002396c       $unwind$ABR_iteration_loop 000000018009a96c     libmp3lame:quantize.obj
 0002:00023980       $chain$1$ABR_iteration_loop 000000018009a980     libmp3lame:quantize.obj
 0002:00023998       $chain$10$ABR_iteration_loop 000000018009a998     libmp3lame:quantize.obj
 0002:000239cc       $chain$11$ABR_iteration_loop 000000018009a9cc     libmp3lame:quantize.obj
 0002:000239dc       $chain$12$ABR_iteration_loop 000000018009a9dc     libmp3lame:quantize.obj
 0002:000239ec       $unwind$CBR_iteration_loop 000000018009a9ec     libmp3lame:quantize.obj
 0002:00023a00       $chain$4$CBR_iteration_loop 000000018009aa00     libmp3lame:quantize.obj
 0002:00023a24       $chain$13$CBR_iteration_loop 000000018009aa24     libmp3lame:quantize.obj
 0002:00023a58       $chain$14$CBR_iteration_loop 000000018009aa58     libmp3lame:quantize.obj
 0002:00023a68       $chain$15$CBR_iteration_loop 000000018009aa68     libmp3lame:quantize.obj
 0002:00023a78       $unwind$AnalyzeSamples     000000018009aa78     libmp3lame:gain_analysis.obj
 0002:00023ab8       $unwind$lame_encode_frame_init 000000018009aab8     libmp3lame:encoder.obj
 0002:00023acc       $chain$0$lame_encode_frame_init 000000018009aacc     libmp3lame:encoder.obj
 0002:00023ae0       $chain$2$lame_encode_frame_init 000000018009aae0     libmp3lame:encoder.obj
 0002:00023af8       $chain$3$lame_encode_frame_init 000000018009aaf8     libmp3lame:encoder.obj
 0002:00023b08       $chain$4$lame_encode_frame_init 000000018009ab08     libmp3lame:encoder.obj
 0002:00023b18       $unwind$lame_encode_mp3_frame 000000018009ab18     libmp3lame:encoder.obj
 0002:00023b48       $chain$13$lame_encode_mp3_frame 000000018009ab48     libmp3lame:encoder.obj
 0002:00023b7c       $chain$14$lame_encode_mp3_frame 000000018009ab7c     libmp3lame:encoder.obj
 0002:00023b8c       $unwind$quantize_lines_xrpow 000000018009ab8c     libmp3lame:takehiro.obj
 0002:00023b9c       $unwind$quantize_xrpow     000000018009ab9c     libmp3lame:takehiro.obj
 0002:00023bbc       $unwind$count_bit_noESC_from2 000000018009abbc     libmp3lame:takehiro.obj
 0002:00023bbc       $unwind$ResvFrameBegin     000000018009abbc     libmp3lame:reservoir.obj
 0002:00023bc8       $unwind$count_bit_noESC_from3 000000018009abc8     libmp3lame:takehiro.obj
 0002:00023be4       $chain$0$choose_table_nonMMX 000000018009abe4     libmp3lame:takehiro.obj
 0002:00023bf8       $chain$1$choose_table_nonMMX 000000018009abf8     libmp3lame:takehiro.obj
 0002:00023c08       $unwind$noquant_count_bits 000000018009ac08     libmp3lame:takehiro.obj
 0002:00023c20       $unwind$count_bits         000000018009ac20     libmp3lame:takehiro.obj
 0002:00023c30       $chain$0$count_bits        000000018009ac30     libmp3lame:takehiro.obj
 0002:00023c44       $chain$2$count_bits        000000018009ac44     libmp3lame:takehiro.obj
 0002:00023c5c       $chain$3$count_bits        000000018009ac5c     libmp3lame:takehiro.obj
 0002:00023c6c       $chain$4$count_bits        000000018009ac6c     libmp3lame:takehiro.obj
 0002:00023c7c       $unwind$best_huffman_divide 000000018009ac7c     libmp3lame:takehiro.obj
 0002:00023c98       $chain$2$best_huffman_divide 000000018009ac98     libmp3lame:takehiro.obj
 0002:00023cb4       $chain$3$best_huffman_divide 000000018009acb4     libmp3lame:takehiro.obj
 0002:00023cc4       $unwind$scfsi_calc         000000018009acc4     libmp3lame:takehiro.obj
 0002:00023ce0       $unwind$fft_short          000000018009ace0     libmp3lame:fft.obj
 0002:00023ce0       $unwind$?try_get_function@@YAPEAXW4function_id@?A0xbfd18cd1@@QEBDQEBW4module_id@2@2@Z 000000018009ace0     libvcruntime:winapi_downlevel.obj
 0002:00023ce0       $unwind$freq_fit           000000018009ace0     libmpg123:format.obj
 0002:00023ce0       $unwind$frame_fixed_reset  000000018009ace0     libmpg123:frame.obj
 0002:00023ce0       $unwind$best_scalefac_store 000000018009ace0     libmp3lame:takehiro.obj
 0002:00023ce0       $unwind$?try_get_function@@YAPEAXW4function_id@?A0x391cf84c@@QEBDQEBW4module_id@2@2@Z 000000018009ace0     libucrt:winapi_thunks.obj
 0002:00023ce0       $unwind$INT123_frame_cpu_opt 000000018009ace0     libmpg123:optimize.obj
 0002:00023cfc       $unwind$mpeg1_scale_bitcount 000000018009acfc     libmp3lame:takehiro.obj
 0002:00023d04       $chain$1$mpeg1_scale_bitcount 000000018009ad04     libmp3lame:takehiro.obj
 0002:00023d1c       $chain$2$mpeg1_scale_bitcount 000000018009ad1c     libmp3lame:takehiro.obj
 0002:00023d30       $chain$3$mpeg1_scale_bitcount 000000018009ad30     libmp3lame:takehiro.obj
 0002:00023d40       $chain$4$mpeg1_scale_bitcount 000000018009ad40     libmp3lame:takehiro.obj
 0002:00023d50       $unwind$mpeg2_scale_bitcount 000000018009ad50     libmp3lame:takehiro.obj
 0002:00023d6c       $chain$0$mpeg2_scale_bitcount 000000018009ad6c     libmp3lame:takehiro.obj
 0002:00023d80       $chain$1$mpeg2_scale_bitcount 000000018009ad80     libmp3lame:takehiro.obj
 0002:00023d90       $unwind$fht                000000018009ad90     libmp3lame:fft.obj
 0002:00023dd0       $unwind$init_fft           000000018009add0     libmp3lame:fft.obj
 0002:00023e0c       $unwind$calc_sfb_noise_x34 000000018009ae0c     libmp3lame:vbrquantize.obj
 0002:00023e30       $chain$1$calc_sfb_noise_x34 000000018009ae30     libmp3lame:vbrquantize.obj
 0002:00023e48       $chain$2$calc_sfb_noise_x34 000000018009ae48     libmp3lame:vbrquantize.obj
 0002:00023e58       $unwind$find_scalefac_x34  000000018009ae58     libmp3lame:vbrquantize.obj
 0002:00023e80       $unwind$block_sf           000000018009ae80     libmp3lame:vbrquantize.obj
 0002:00023e9c       $unwind$quantize_x34       000000018009ae9c     libmp3lame:vbrquantize.obj
 0002:00023ec4       $unwind$set_subblock_gain  000000018009aec4     libmp3lame:vbrquantize.obj
 0002:00023edc       $unwind$set_scalefacs      000000018009aedc     libmp3lame:vbrquantize.obj
 0002:00023ef4       $unwind$short_block_constrain 000000018009aef4     libmp3lame:vbrquantize.obj
 0002:00023f0c       $chain$0$short_block_constrain 000000018009af0c     libmp3lame:vbrquantize.obj
 0002:00023f20       $chain$3$short_block_constrain 000000018009af20     libmp3lame:vbrquantize.obj
 0002:00023f3c       $chain$4$short_block_constrain 000000018009af3c     libmp3lame:vbrquantize.obj
 0002:00023f50       $chain$11$short_block_constrain 000000018009af50     libmp3lame:vbrquantize.obj
 0002:00023f7c       $chain$12$short_block_constrain 000000018009af7c     libmp3lame:vbrquantize.obj
 0002:00023f8c       $chain$13$short_block_constrain 000000018009af8c     libmp3lame:vbrquantize.obj
 0002:00023f9c       $chain$14$short_block_constrain 000000018009af9c     libmp3lame:vbrquantize.obj
 0002:00023fb4       $chain$15$short_block_constrain 000000018009afb4     libmp3lame:vbrquantize.obj
 0002:00023fcc       $chain$16$short_block_constrain 000000018009afcc     libmp3lame:vbrquantize.obj
 0002:00023fe0       $chain$17$short_block_constrain 000000018009afe0     libmp3lame:vbrquantize.obj
 0002:00023ff0       $unwind$long_block_constrain 000000018009aff0     libmp3lame:vbrquantize.obj
 0002:00024004       $chain$5$long_block_constrain 000000018009b004     libmp3lame:vbrquantize.obj
 0002:0002402c       $chain$6$long_block_constrain 000000018009b02c     libmp3lame:vbrquantize.obj
 0002:00024040       $chain$15$long_block_constrain 000000018009b040     libmp3lame:vbrquantize.obj
 0002:00024074       $chain$16$long_block_constrain 000000018009b074     libmp3lame:vbrquantize.obj
 0002:00024084       $chain$17$long_block_constrain 000000018009b084     libmp3lame:vbrquantize.obj
 0002:00024094       $chain$18$long_block_constrain 000000018009b094     libmp3lame:vbrquantize.obj
 0002:000240a8       $chain$19$long_block_constrain 000000018009b0a8     libmp3lame:vbrquantize.obj
 0002:000240b8       $unwind$tryGlobalStepsize  000000018009b0b8     libmp3lame:vbrquantize.obj
 0002:000240d0       $chain$3$tryGlobalStepsize 000000018009b0d0     libmp3lame:vbrquantize.obj
 0002:000240f0       $chain$4$tryGlobalStepsize 000000018009b0f0     libmp3lame:vbrquantize.obj
 0002:00024104       $chain$5$tryGlobalStepsize 000000018009b104     libmp3lame:vbrquantize.obj
 0002:00024114       $chain$6$tryGlobalStepsize 000000018009b114     libmp3lame:vbrquantize.obj
 0002:00024124       $unwind$searchGlobalStepsizeMax 000000018009b124     libmp3lame:vbrquantize.obj
 0002:00024154       $unwind$flattenDistribution 000000018009b154     libmp3lame:vbrquantize.obj
 0002:00024168       $chain$1$flattenDistribution 000000018009b168     libmp3lame:vbrquantize.obj
 0002:00024180       $chain$2$flattenDistribution 000000018009b180     libmp3lame:vbrquantize.obj
 0002:00024190       $unwind$outOfBitsStrategy  000000018009b190     libmp3lame:vbrquantize.obj
 0002:000241b8       $unwind$VBR_encode_frame   000000018009b1b8     libmp3lame:vbrquantize.obj
 0002:000241e0       $chain$1$VBR_encode_frame  000000018009b1e0     libmp3lame:vbrquantize.obj
 0002:000241f8       $chain$2$VBR_encode_frame  000000018009b1f8     libmp3lame:vbrquantize.obj
 0002:0002420c       $chain$3$VBR_encode_frame  000000018009b20c     libmp3lame:vbrquantize.obj
 0002:0002421c       $chain$4$VBR_encode_frame  000000018009b21c     libmp3lame:vbrquantize.obj
 0002:0002422c       $unwind$window_subband     000000018009b22c     libmp3lame:newmdct.obj
 0002:0002425c       $unwind$mdct_short         000000018009b25c     libmp3lame:newmdct.obj
 0002:0002428c       $unwind$mdct_long          000000018009b28c     libmp3lame:newmdct.obj
 0002:000242bc       $unwind$mdct_sub48         000000018009b2bc     libmp3lame:newmdct.obj
 0002:000242d8       $chain$12$mdct_sub48       000000018009b2d8     libmp3lame:newmdct.obj
 0002:0002431c       $chain$13$mdct_sub48       000000018009b31c     libmp3lame:newmdct.obj
 0002:0002432c       $chain$0$frame_buffercheck 000000018009b32c     libmpg123:libmpg123.obj
 0002:00024340       $chain$1$frame_buffercheck 000000018009b340     libmpg123:libmpg123.obj
 0002:00024354       $chain$2$frame_buffercheck 000000018009b354     libmpg123:libmpg123.obj
 0002:00024368       $chain$3$frame_buffercheck 000000018009b368     libmpg123:libmpg123.obj
 0002:00024378       $chain$4$frame_buffercheck 000000018009b378     libmpg123:libmpg123.obj
 0002:00024388       $chain$5$frame_buffercheck 000000018009b388     libmpg123:libmpg123.obj
 0002:00024398       $unwind$mpg123_init        000000018009b398     libmpg123:libmpg123.obj
 0002:000243ac       $chain$13$mpg123_init      000000018009b3ac     libmpg123:libmpg123.obj
 0002:000243f4       $chain$14$mpg123_init      000000018009b3f4     libmpg123:libmpg123.obj
 0002:00024404       $unwind$INT123_decode_update 000000018009b404     libmpg123:libmpg123.obj
 0002:00024420       $unwind$decode_the_frame   000000018009b420     libmpg123:libmpg123.obj
 0002:00024438       $chain$0$mpg123_tell       000000018009b438     libmpg123:libmpg123.obj
 0002:0002444c       $chain$1$mpg123_tell       000000018009b44c     libmpg123:libmpg123.obj
 0002:0002445c       $unwind$mpg123_id3         000000018009b45c     libmpg123:libmpg123.obj
 0002:0002446c       $chain$0$mpg123_id3        000000018009b46c     libmpg123:libmpg123.obj
 0002:00024480       $chain$3$mpg123_id3        000000018009b480     libmpg123:libmpg123.obj
 0002:0002449c       $chain$4$mpg123_id3        000000018009b49c     libmpg123:libmpg123.obj
 0002:000244ac       $chain$5$mpg123_id3        000000018009b4ac     libmpg123:libmpg123.obj
 0002:000244bc       $unwind$mpg123_close       000000018009b4bc     libmpg123:libmpg123.obj
 0002:000244c8       $unwind$INT123_set_synth_functions 000000018009b4c8     libmpg123:optimize.obj
 0002:000244c8       $unwind$?process@?$output_processor@DV?$string_output_adapter@D@__crt_stdio_output@@V?$standard_base@DV?$string_output_adapter@D@__crt_stdio_output@@@2@@__crt_stdio_output@@QEAAHXZ 000000018009b4c8     libucrt:output.obj
 0002:000244c8       $unwind$?process@?$output_processor@DV?$stream_output_adapter@D@__crt_stdio_output@@V?$standard_base@DV?$stream_output_adapter@D@__crt_stdio_output@@@2@@__crt_stdio_output@@QEAAHXZ 000000018009b4c8     libucrt:output.obj
 0002:000244d8       $chain$0$INT123_set_synth_functions 000000018009b4d8     libmpg123:optimize.obj
 0002:000244ec       $chain$1$INT123_set_synth_functions 000000018009b4ec     libmpg123:optimize.obj
 0002:000244fc       $unwind$INT123_frame_exit  000000018009b4fc     libmpg123:frame.obj
 0002:0002450c       $chain$0$INT123_frame_exit 000000018009b50c     libmpg123:frame.obj
 0002:00024520       $chain$1$INT123_frame_exit 000000018009b520     libmpg123:frame.obj
 0002:00024530       $unwind$INT123_frame_outs  000000018009b530     libmpg123:frame.obj
 0002:0002453c       $chain$0$INT123_frame_outs 000000018009b53c     libmpg123:frame.obj
 0002:00024550       $chain$1$INT123_frame_outs 000000018009b550     libmpg123:frame.obj
 0002:00024560       $chain$1$INT123_frame_offset 000000018009b560     libmpg123:frame.obj
 0002:00024578       $chain$2$INT123_frame_offset 000000018009b578     libmpg123:frame.obj
 0002:00024588       $unwind$INT123_do_rva      000000018009b588     libmpg123:frame.obj
 0002:00024598       $unwind$free_id3_text      000000018009b598     libmpg123:id3.obj
 0002:000245a8       $chain$1$free_id3_text     000000018009b5a8     libmpg123:id3.obj
 0002:000245c0       $chain$2$free_id3_text     000000018009b5c0     libmpg123:id3.obj
 0002:000245d0       $unwind$store_id3_text     000000018009b5d0     libmpg123:id3.obj
 0002:000245e4       $unwind$INT123_id3_to_utf8 000000018009b5e4     libmpg123:id3.obj
 0002:00024600       $unwind$process_comment    000000018009b600     libmpg123:id3.obj
 0002:00024620       $chain$0$process_comment   000000018009b620     libmpg123:id3.obj
 0002:00024634       $chain$1$process_comment   000000018009b634     libmpg123:id3.obj
 0002:00024648       $chain$2$process_comment   000000018009b648     libmpg123:id3.obj
 0002:00024658       $chain$3$process_comment   000000018009b658     libmpg123:id3.obj
 0002:00024668       $unwind$process_extra      000000018009b668     libmpg123:id3.obj
 0002:00024684       $chain$1$process_extra     000000018009b684     libmpg123:id3.obj
 0002:0002469c       $chain$2$process_extra     000000018009b69c     libmpg123:id3.obj
 0002:000246b0       $chain$3$process_extra     000000018009b6b0     libmpg123:id3.obj
 0002:000246c4       $chain$4$process_extra     000000018009b6c4     libmpg123:id3.obj
 0002:000246d4       $chain$5$process_extra     000000018009b6d4     libmpg123:id3.obj
 0002:000246e4       $chain$6$process_extra     000000018009b6e4     libmpg123:id3.obj
 0002:000246f4       $unwind$promote_framename  000000018009b6f4     libmpg123:id3.obj
 0002:00024714       $unwind$INT123_parse_new_id3 000000018009b714     libmpg123:id3.obj
 0002:00024730       $chain$0$INT123_parse_new_id3 000000018009b730     libmpg123:id3.obj
 0002:00024744       $chain$1$INT123_parse_new_id3 000000018009b744     libmpg123:id3.obj
 0002:00024758       $chain$3$INT123_parse_new_id3 000000018009b758     libmpg123:id3.obj
 0002:00024770       $chain$4$INT123_parse_new_id3 000000018009b770     libmpg123:id3.obj
 0002:00024780       $chain$5$INT123_parse_new_id3 000000018009b780     libmpg123:id3.obj
 0002:00024780       $chain$7$INT123_parse_new_id3 000000018009b780     libmpg123:id3.obj
 0002:00024790       $chain$6$INT123_parse_new_id3 000000018009b790     libmpg123:id3.obj
 0002:000247ac       $chain$9$INT123_parse_new_id3 000000018009b7ac     libmpg123:id3.obj
 0002:000247c0       $chain$10$INT123_parse_new_id3 000000018009b7c0     libmpg123:id3.obj
 0002:000247d0       $unwind$convert_latin1     000000018009b7d0     libmpg123:id3.obj
 0002:000247d0       $unwind$INT123_synth_4to1_8bit 000000018009b7d0     libmpg123:synth_8bit.obj
 0002:000247d0       $unwind$INT123_synth_1to1_8bit 000000018009b7d0     libmpg123:synth_8bit.obj
 0002:000247d0       $unwind$?type_case_integer@?$output_processor@DV?$stream_output_adapter@D@__crt_stdio_output@@V?$standard_base@DV?$stream_output_adapter@D@__crt_stdio_output@@@2@@__crt_stdio_output@@AEAA_NI_N@Z 000000018009b7d0     libucrt:output.obj
 0002:000247d0       $unwind$??R<lambda_f03950bc5685219e0bcd2087efbe011e>@@QEBAHXZ 000000018009b7d0     libucrt:onexit.obj
 0002:000247d0       $unwind$INT123_synth_2to1_8bit 000000018009b7d0     libmpg123:synth_8bit.obj
 0002:000247d0       $unwind$?type_case_integer@?$output_processor@DV?$string_output_adapter@D@__crt_stdio_output@@V?$standard_base@DV?$string_output_adapter@D@__crt_stdio_output@@@2@@__crt_stdio_output@@AEAA_NI_N@Z 000000018009b7d0     libucrt:output.obj
 0002:000247e8       $unwind$convert_utf16bom   000000018009b7e8     libmpg123:id3.obj
 0002:00024800       $unwind$INT123_frame_output_format 000000018009b800     libmpg123:format.obj
 0002:0002481c       $unwind$mpg123_fmt_all     000000018009b81c     libmpg123:format.obj
 0002:00024828       $unwind$icy_fullread       000000018009b828     libmpg123:readers.obj
 0002:00024844       $unwind$stream_seek_frame  000000018009b844     libmpg123:readers.obj
 0002:00024858       $unwind$stream_skip_bytes  000000018009b858     libmpg123:readers.obj
 0002:00024874       $unwind$stream_back_bytes  000000018009b874     libmpg123:readers.obj
 0002:00024890       $unwind$bc_fill_pool       000000018009b890     libmpg123:readers.obj
 0002:000248a4       $unwind$bc_add             000000018009b8a4     libmpg123:readers.obj
 0002:000248b8       $chain$0$bc_add            000000018009b8b8     libmpg123:readers.obj
 0002:000248cc       $chain$1$bc_add            000000018009b8cc     libmpg123:readers.obj
 0002:000248cc       $chain$3$bc_add            000000018009b8cc     libmpg123:readers.obj
 0002:000248dc       $chain$2$bc_add            000000018009b8dc     libmpg123:readers.obj
 0002:000248f0       $unwind$bc_give            000000018009b8f0     libmpg123:readers.obj
 0002:00024908       $chain$0$bc_give           000000018009b908     libmpg123:readers.obj
 0002:0002491c       $chain$1$bc_give           000000018009b91c     libmpg123:readers.obj
 0002:0002492c       $unwind$buffered_forget    000000018009b92c     libmpg123:readers.obj
 0002:00024938       $chain$1$buffered_forget   000000018009b938     libmpg123:readers.obj
 0002:00024950       $chain$2$buffered_forget   000000018009b950     libmpg123:readers.obj
 0002:00024960       $unwind$buffered_fullread  000000018009b960     libmpg123:readers.obj
 0002:00024980       $chain$1$default_init      000000018009b980     libmpg123:readers.obj
 0002:00024998       $chain$2$default_init      000000018009b998     libmpg123:readers.obj
 0002:000249ac       $unwind$INT123_init_layer12_table 000000018009b9ac     libmpg123:layer2.obj
 0002:000249c8       $unwind$II_step_one        000000018009b9c8     libmpg123:layer2.obj
 0002:000249e4       $chain$1$II_step_one       000000018009b9e4     libmpg123:layer2.obj
 0002:000249fc       $chain$2$II_step_one       000000018009b9fc     libmpg123:layer2.obj
 0002:00024a10       $chain$3$II_step_one       000000018009ba10     libmpg123:layer2.obj
 0002:00024a20       $chain$4$II_step_one       000000018009ba20     libmpg123:layer2.obj
 0002:00024a30       $unwind$II_step_two        000000018009ba30     libmpg123:layer2.obj
 0002:00024a44       $chain$6$II_step_two       000000018009ba44     libmpg123:layer2.obj
 0002:00024a70       $chain$7$II_step_two       000000018009ba70     libmpg123:layer2.obj
 0002:00024a80       $unwind$II_select_table    000000018009ba80     libmpg123:layer2.obj
 0002:00024a94       $unwind$INT123_do_layer2   000000018009ba94     libmpg123:layer2.obj
 0002:00024abc       $chain$0$INT123_ntom_val   000000018009babc     libmpg123:ntom.obj
 0002:00024ad0       $chain$1$INT123_ntom_val   000000018009bad0     libmpg123:ntom.obj
 0002:00024ae0       $unwind$INT123_init_layer3 000000018009bae0     libmpg123:layer3.obj
 0002:00024b30       $unwind$INT123_init_layer3_stuff 000000018009bb30     libmpg123:layer3.obj
 0002:00024b4c       $unwind$III_get_side_info  000000018009bb4c     libmpg123:layer3.obj
 0002:00024b6c       $unwind$III_get_scale_factors_1 000000018009bb6c     libmpg123:layer3.obj
 0002:00024b88       $unwind$III_get_scale_factors_2 000000018009bb88     libmpg123:layer3.obj
 0002:00024ba8       $unwind$III_dequantize_sample 000000018009bba8     libmpg123:layer3.obj
 0002:00024bc4       $chain$1$III_dequantize_sample 000000018009bbc4     libmpg123:layer3.obj
 0002:00024bdc       $unwind$III_i_stereo       000000018009bbdc     libmpg123:layer3.obj
 0002:00024bf8       $chain$2$III_i_stereo      000000018009bbf8     libmpg123:layer3.obj
 0002:00024c14       $chain$3$III_i_stereo      000000018009bc14     libmpg123:layer3.obj
 0002:00024c24       $unwind$INT123_dct36       000000018009bc24     libmpg123:layer3.obj
 0002:00024c54       $unwind$dct12              000000018009bc54     libmpg123:layer3.obj
 0002:00024c70       $unwind$III_hybrid         000000018009bc70     libmpg123:layer3.obj
 0002:00024c70       $unwind$??$copy_and_add_argument_to_buffer@D@@YAHQEBD0_KAEAV?$argument_list@D@?A0x5f5c8891@@@Z 000000018009bc70     libucrt:argv_wildcards.obj
 0002:00024c8c       $unwind$INT123_do_layer3   000000018009bc8c     libmpg123:layer3.obj
 0002:00024cac       $chain$2$INT123_do_layer3  000000018009bcac     libmpg123:layer3.obj
 0002:00024cc4       $chain$3$INT123_do_layer3  000000018009bcc4     libmpg123:layer3.obj
 0002:00024cd4       $unwind$check_lame_tag     000000018009bcd4     libmpg123:parse.obj
 0002:00024cf0       $chain$4$check_lame_tag    000000018009bcf0     libmpg123:parse.obj
 0002:00024d0c       $chain$5$check_lame_tag    000000018009bd0c     libmpg123:parse.obj
 0002:00024d20       $chain$6$check_lame_tag    000000018009bd20     libmpg123:parse.obj
 0002:00024d3c       $unwind$INT123_read_frame  000000018009bd3c     libmpg123:parse.obj
 0002:00024d4c       $chain$2$INT123_read_frame 000000018009bd4c     libmpg123:parse.obj
 0002:00024d68       $chain$4$INT123_read_frame 000000018009bd68     libmpg123:parse.obj
 0002:00024d84       $unwind$decode_header      000000018009bd84     libmpg123:parse.obj
 0002:00024d94       $unwind$skip_junk          000000018009bd94     libmpg123:parse.obj
 0002:00024da8       $unwind$wetwork            000000018009bda8     libmpg123:parse.obj
 0002:00024db4       $chain$2$wetwork           000000018009bdb4     libmpg123:parse.obj
 0002:00024dd0       $chain$3$wetwork           000000018009bdd0     libmpg123:parse.obj
 0002:00024de0       $chain$4$wetwork           000000018009bde0     libmpg123:parse.obj
 0002:00024dfc       $chain$5$wetwork           000000018009bdfc     libmpg123:parse.obj
 0002:00024e10       $unwind$INT123_make_conv16to8_table 000000018009be10     libmpg123:tabinit.obj
 0002:00024e24       $chain$7$INT123_make_conv16to8_table 000000018009be24     libmpg123:tabinit.obj
 0002:00024e50       $chain$8$INT123_make_conv16to8_table 000000018009be50     libmpg123:tabinit.obj
 0002:00024e60       $unwind$INT123_synth_4to1_s32 000000018009be60     libmpg123:synth_s32.obj
 0002:00024e60       $unwind$INT123_synth_2to1_s32 000000018009be60     libmpg123:synth_s32.obj
 0002:00024e60       $unwind$INT123_synth_1to1_s32 000000018009be60     libmpg123:synth_s32.obj
 0002:00024e7c       $unwind$INT123_synth_1to1_s32_mono 000000018009be7c     libmpg123:synth_s32.obj
 0002:00024e7c       $unwind$INT123_synth_1to1_real_mono 000000018009be7c     libmpg123:synth_real.obj
 0002:00024e98       $unwind$INT123_synth_1to1_s32_i386 000000018009be98     libmpg123:synth_s32.obj
 0002:00024e98       $unwind$INT123_synth_2to1_s32_i386 000000018009be98     libmpg123:synth_s32.obj
 0002:00024e98       $unwind$INT123_synth_4to1_s32_i386 000000018009be98     libmpg123:synth_s32.obj
 0002:00024eb8       $unwind$INT123_synth_2to1_s32_mono 000000018009beb8     libmpg123:synth_s32.obj
 0002:00024eb8       $unwind$INT123_synth_2to1_real_mono 000000018009beb8     libmpg123:synth_real.obj
 0002:00024ed4       $unwind$INT123_synth_4to1_s32_mono 000000018009bed4     libmpg123:synth_s32.obj
 0002:00024ed4       $unwind$INT123_synth_2to1_mono 000000018009bed4     libmpg123:synth.obj
 0002:00024ed4       $unwind$INT123_synth_4to1_real_mono 000000018009bed4     libmpg123:synth_real.obj
 0002:00024eec       $unwind$INT123_synth_ntom_real_mono 000000018009beec     libmpg123:synth_real.obj
 0002:00024eec       $unwind$INT123_synth_ntom_s32_mono 000000018009beec     libmpg123:synth_s32.obj
 0002:00024f0c       $unwind$INT123_synth_ntom_s32 000000018009bf0c     libmpg123:synth_s32.obj
 0002:00024f2c       $unwind$INT123_synth_2to1  000000018009bf2c     libmpg123:synth.obj
 0002:00024f2c       $unwind$INT123_synth_4to1  000000018009bf2c     libmpg123:synth.obj
 0002:00024f2c       $unwind$INT123_synth_1to1  000000018009bf2c     libmpg123:synth.obj
 0002:00024f44       $unwind$INT123_synth_1to1_8bit_wrap_mono 000000018009bf44     libmpg123:synth_8bit.obj
 0002:00024f44       $unwind$INT123_synth_1to1_mono 000000018009bf44     libmpg123:synth.obj
 0002:00024f60       $unwind$INT123_synth_1to1_i386 000000018009bf60     libmpg123:synth.obj
 0002:00024f60       $unwind$INT123_synth_2to1_i386 000000018009bf60     libmpg123:synth.obj
 0002:00024f60       $unwind$INT123_synth_4to1_i386 000000018009bf60     libmpg123:synth.obj
 0002:00024f78       $unwind$INT123_synth_2to1_8bit_mono 000000018009bf78     libmpg123:synth_8bit.obj
 0002:00024f78       $unwind$INT123_synth_4to1_mono 000000018009bf78     libmpg123:synth.obj
 0002:00024f90       $unwind$INT123_synth_ntom_mono 000000018009bf90     libmpg123:synth.obj
 0002:00024fb0       $unwind$INT123_synth_ntom  000000018009bfb0     libmpg123:synth.obj
 0002:00024fcc       $unwind$INT123_synth_1to1_real_i386 000000018009bfcc     libmpg123:synth_real.obj
 0002:00024fcc       $unwind$INT123_synth_4to1_real_i386 000000018009bfcc     libmpg123:synth_real.obj
 0002:00024fcc       $unwind$INT123_synth_2to1_real_i386 000000018009bfcc     libmpg123:synth_real.obj
 0002:00024fe4       $unwind$INT123_synth_ntom_real 000000018009bfe4     libmpg123:synth_real.obj
 0002:00025000       $unwind$INT123_synth_1to1_8bit_mono 000000018009c000     libmpg123:synth_8bit.obj
 0002:00025018       $unwind$INT123_synth_4to1_8bit_i386 000000018009c018     libmpg123:synth_8bit.obj
 0002:00025018       $unwind$INT123_synth_2to1_8bit_i386 000000018009c018     libmpg123:synth_8bit.obj
 0002:00025018       $unwind$INT123_synth_1to1_8bit_i386 000000018009c018     libmpg123:synth_8bit.obj
 0002:00025034       $unwind$INT123_synth_1to1_8bit_wrap 000000018009c034     libmpg123:synth_8bit.obj
 0002:00025054       $unwind$INT123_synth_1to1_8bit_wrap_m2s 000000018009c054     libmpg123:synth_8bit.obj
 0002:00025070       $unwind$INT123_synth_4to1_8bit_mono 000000018009c070     libmpg123:synth_8bit.obj
 0002:00025088       $unwind$INT123_synth_ntom_8bit_mono 000000018009c088     libmpg123:synth_8bit.obj
 0002:000250a8       $unwind$INT123_synth_ntom_8bit 000000018009c0a8     libmpg123:synth_8bit.obj
 0002:000250c4       $unwind$I_step_one         000000018009c0c4     libmpg123:layer1.obj
 0002:000250d4       $chain$0$I_step_one        000000018009c0d4     libmpg123:layer1.obj
 0002:000250e8       $chain$1$I_step_one        000000018009c0e8     libmpg123:layer1.obj
 0002:000250f8       $unwind$I_step_two         000000018009c0f8     libmpg123:layer1.obj
 0002:00025118       $chain$0$I_step_two        000000018009c118     libmpg123:layer1.obj
 0002:0002512c       $chain$1$I_step_two        000000018009c12c     libmpg123:layer1.obj
 0002:0002513c       $unwind$INT123_do_layer1   000000018009c13c     libmpg123:layer1.obj
 0002:0002515c       $unwind$INT123_dct64       000000018009c15c     libmpg123:dct64.obj
 0002:00025198       $unwind$dct64_1            000000018009c198     libmpg123:dct64_i386.obj
 0002:000251a4       xdata                      000000018009c1a4     node:node.exe
 0002:000251b0       $xdatasym                  000000018009c1b0     LIBCMT:amdsecgs.obj
 0002:000251b4       $unwind$?dllmain_crt_process_attach@@YAHQEAUHINSTANCE__@@QEAX@Z 000000018009c1b4     LIBCMT:dll_dllmain.obj
 0002:000251f0       $unwind$?fin$0@?0???$common_lseek@_J@@YA_JH_JH@Z@4HA 000000018009c1f0     libucrt:lseek.obj
 0002:000251f0       $unwind$?fin$0@?0???$common_lseek@J@@YAJHJH@Z@4HA 000000018009c1f0     libucrt:lseek.obj
 0002:000251f0       $unwind$?fin$0@?0???$?RV<lambda_c376a267cfb53b6959b3b692ec76b120>@@AEAV<lambda_9a32fed5bf61b6b509b2d3f6003082a1>@@V<lambda_572fbb9fa0ab338edf41edfd4b5fcc8d>@@@?$__crt_seh_guarded_call@H@@QEAAH$$QEAV<lambda_c376a267cfb53b6959b3b692ec76b120>@@AEAV<lambda_9a32fed5bf61b6b509b2d3f6003082a1>@@$$QEAV<lambda_572fbb9fa0ab338edf41edfd4b5fcc8d>@@@Z@4HA 000000018009c1f0     libucrt:fflush.obj
 0002:000251f0       $unwind$?fin$0@?0???$?RV<lambda_842d9ff0dc9ef11c61343bbaebe7f885>@@AEAV<lambda_c5860995281e5c4ce005b3de8f5874ee>@@V<lambda_d90129c13df834fdcbf8d2b88dafcf2d>@@@?$__crt_seh_guarded_call@X@@QEAAX$$QEAV<lambda_842d9ff0dc9ef11c61343bbaebe7f885>@@AEAV<lambda_c5860995281e5c4ce005b3de8f5874ee>@@$$QEAV<lambda_d90129c13df834fdcbf8d2b88dafcf2d>@@@Z@4HA 000000018009c1f0     libucrt:fflush.obj
 0002:000251f0       $unwind$_fcloseall$fin$0   000000018009c1f0     libucrt:closeall.obj
 0002:000251f0       $unwind$?fin$0@?0???$?RV<lambda_f2e299630e499de9f9a165e60fcd3db5>@@AEAV<lambda_2ae9d31cdba2644fcbeaf08da7c24588>@@V<lambda_40d01ff24d0e7b3814fdbdcee8eab3c7>@@@?$__crt_seh_guarded_call@X@@QEAAX$$QEAV<lambda_f2e299630e499de9f9a165e60fcd3db5>@@AEAV<lambda_2ae9d31cdba2644fcbeaf08da7c24588>@@$$QEAV<lambda_40d01ff24d0e7b3814fdbdcee8eab3c7>@@@Z@4HA 000000018009c1f0     libucrt:per_thread_data.obj
 0002:000251f0       $unwind$?fin$0@?0???$?RV<lambda_2d41944a1d46af3157314b8a01080d33>@@AEAV<lambda_8f455de75cd7d7f24b4096f044d8b9e6>@@V<lambda_aa500f224e6afead328df44964fe2772>@@@?$__crt_seh_guarded_call@X@@QEAAX$$QEAV<lambda_2d41944a1d46af3157314b8a01080d33>@@AEAV<lambda_8f455de75cd7d7f24b4096f044d8b9e6>@@$$QEAV<lambda_aa500f224e6afead328df44964fe2772>@@@Z@4HA 000000018009c1f0     libucrt:per_thread_data.obj
 0002:000251f0       $unwind$?fin$0@?0???$?RV<lambda_a37b2b86f63e897a80ea819b0eb08c01>@@AEAV<lambda_38ce7e780aa69e748d6df282ebc68efe>@@V<lambda_99fb1378e971ab6e7edea83e3a7a83a2>@@@?$__crt_seh_guarded_call@H@@QEAAH$$QEAV<lambda_a37b2b86f63e897a80ea819b0eb08c01>@@AEAV<lambda_38ce7e780aa69e748d6df282ebc68efe>@@$$QEAV<lambda_99fb1378e971ab6e7edea83e3a7a83a2>@@@Z@4HA 000000018009c1f0     libucrt:commit.obj
 0002:000251f0       $unwind$_IsNonwritableInCurrentImage$filt$0 000000018009c1f0     LIBCMT:pesect.obj
 0002:000251f0       $unwind$?fin$0@?0???$?RV<lambda_886d6c58226a84441f68b9f2b8217b83>@@AEAV<lambda_ab61a845afdef5b7c387490eaf3616ee>@@V<lambda_f7f22ab5edc0698d5f6905b0d3f44752>@@@?$__crt_seh_guarded_call@X@@QEAAX$$QEAV<lambda_886d6c58226a84441f68b9f2b8217b83>@@AEAV<lambda_ab61a845afdef5b7c387490eaf3616ee>@@$$QEAV<lambda_f7f22ab5edc0698d5f6905b0d3f44752>@@@Z@4HA 000000018009c1f0     libucrt:fflush.obj
 0002:000251f0       $unwind$?fin$0@?0??dllmain_crt_process_detach@@YAH_N@Z@4HA 000000018009c1f0     LIBCMT:dll_dllmain.obj
 0002:000251f0       $unwind$?filt$0@?0???R<lambda_6e4b09c48022b2350581041d5f6b0c4c>@@QEBA@XZ@4HA 000000018009c1f0     libucrt:exit.obj
 0002:000251f0       $unwind$_write$fin$0       000000018009c1f0     libucrt:write.obj
 0002:000251f0       $unwind$?fin$0@?0???$?RV<lambda_aa87e3671a710a21b5dc78c0bdf72e11>@@AEAV<lambda_92619d2358a28f41a33ba319515a20b9>@@V<lambda_6992ecaafeb10aed2b74cb1fae11a551>@@@?$__crt_seh_guarded_call@X@@QEAAX$$QEAV<lambda_aa87e3671a710a21b5dc78c0bdf72e11>@@AEAV<lambda_92619d2358a28f41a33ba319515a20b9>@@$$QEAV<lambda_6992ecaafeb10aed2b74cb1fae11a551>@@@Z@4HA 000000018009c1f0     libucrt:per_thread_data.obj
 0002:000251f0       $unwind$__DestructExceptionObject$filt$0 000000018009c1f0     libvcruntime:ehhelpers.obj
 0002:000251f0       $unwind$?fin$0@?0???$?RV<lambda_d80eeec6fff315bfe5c115232f3240e3>@@AEAV<lambda_6e4b09c48022b2350581041d5f6b0c4c>@@V<lambda_2358e3775559c9db80273638284d5e45>@@@?$__crt_seh_guarded_call@X@@QEAAX$$QEAV<lambda_d80eeec6fff315bfe5c115232f3240e3>@@AEAV<lambda_6e4b09c48022b2350581041d5f6b0c4c>@@$$QEAV<lambda_2358e3775559c9db80273638284d5e45>@@@Z@4HA 000000018009c1f0     libucrt:exit.obj
 0002:000251f0       $unwind$?fin$0@?0??dllmain_crt_process_attach@@YAHQEAUHINSTANCE__@@QEAX@Z@4HA 000000018009c1f0     LIBCMT:dll_dllmain.obj
 0002:000251f0       $unwind$?fin$0@?0???$?RV<lambda_7777bce6b2f8c936911f934f8298dc43>@@AEAV<lambda_f03950bc5685219e0bcd2087efbe011e>@@V<lambda_3883c3dff614d5e0c5f61bb1ac94921c>@@@?$__crt_seh_guarded_call@H@@QEAAH$$QEAV<lambda_7777bce6b2f8c936911f934f8298dc43>@@AEAV<lambda_f03950bc5685219e0bcd2087efbe011e>@@$$QEAV<lambda_3883c3dff614d5e0c5f61bb1ac94921c>@@@Z@4HA 000000018009c1f0     libucrt:onexit.obj
 0002:000251f0       $unwind$__acrt_initialize_lowio$fin$0 000000018009c1f0     libucrt:ioinit.obj
 0002:000251f0       $unwind$__acrt_update_thread_locale_data$fin$0 000000018009c1f0     libucrt:locale_refcounting.obj
 0002:000251f0       $unwind$__acrt_lowio_ensure_fh_exists$fin$0 000000018009c1f0     libucrt:osfinfo.obj
 0002:000251f0       $unwind$?fin$0@?0???$?RV<lambda_751a882b2c74d4b022dec766aa51a29a>@@AEAV<lambda_628dfdc04ba53c8bfc02c9951375f3f5>@@V<lambda_f6c7be5f7998530c34de24c7437d6b54>@@@?$__crt_seh_guarded_call@H@@QEAAH$$QEAV<lambda_751a882b2c74d4b022dec766aa51a29a>@@AEAV<lambda_628dfdc04ba53c8bfc02c9951375f3f5>@@$$QEAV<lambda_f6c7be5f7998530c34de24c7437d6b54>@@@Z@4HA 000000018009c1f0     libucrt:close.obj
 0002:000251f0       $unwind$?fin$0@?0??update_thread_multibyte_data_internal@@YAPEAU__crt_multibyte_data@@QEAU__acrt_ptd@@QEAPEAU1@@Z@4HA 000000018009c1f0     libucrt:mbctype.obj
 0002:000251f0       $unwind$_query_new_handler$fin$0 000000018009c1f0     libucrt:new_handler.obj
 0002:000251f0       $unwind$_read$fin$0        000000018009c1f0     libucrt:read.obj
 0002:000251f0       $unwind$?fin$0@?0???$?RV<lambda_a62c933ada0517137acf5807a1eeac1f>@@AEAV<lambda_a31071773b9a94e445cbd5d04ef99106>@@V<lambda_56065050dbf3ada7e59a83db45153de3>@@@?$__crt_seh_guarded_call@H@@QEAAH$$QEAV<lambda_a62c933ada0517137acf5807a1eeac1f>@@AEAV<lambda_a31071773b9a94e445cbd5d04ef99106>@@$$QEAV<lambda_56065050dbf3ada7e59a83db45153de3>@@@Z@4HA 000000018009c1f0     libucrt:output.obj
 0002:000251f0       $unwind$?fin$0@?0???$?RV<lambda_efdfa57d1f175319df784efa44bb7b81>@@AEAV<lambda_5f0a4c1567f8adc6734073e5d1e1b35c>@@V<lambda_2e8a7d3640ea6ccb4c2413664c2db6fd>@@@?$__crt_seh_guarded_call@X@@QEAAX$$QEAV<lambda_efdfa57d1f175319df784efa44bb7b81>@@AEAV<lambda_5f0a4c1567f8adc6734073e5d1e1b35c>@@$$QEAV<lambda_2e8a7d3640ea6ccb4c2413664c2db6fd>@@@Z@4HA 000000018009c1f0     libucrt:mbctype.obj
 0002:000251f0       $unwind$?fin$0@?0???$?RV<lambda_410d79af7f07d98d83a3f525b3859a53>@@AEAV<lambda_3e16ef9562a7dcce91392c22ab16ea36>@@V<lambda_38119f0e861e05405d8a144b9b982f0a>@@@?$__crt_seh_guarded_call@X@@QEAAX$$QEAV<lambda_410d79af7f07d98d83a3f525b3859a53>@@AEAV<lambda_3e16ef9562a7dcce91392c22ab16ea36>@@$$QEAV<lambda_38119f0e861e05405d8a144b9b982f0a>@@@Z@4HA 000000018009c1f0     libucrt:wsetlocale.obj
 0002:000251f0       $unwind$?fin$0@?0???$?RV<lambda_450d765d439847d4c735a33c368b5fc0>@@AEAV<lambda_44731a7d0e6d81c3e6aa82d741081786>@@V<lambda_601a2a7da3b7a96e9554ac7215c4b07c>@@@?$__crt_seh_guarded_call@P6AXH@Z@@QEAAP6AXH@Z$$QEAV<lambda_450d765d439847d4c735a33c368b5fc0>@@AEAV<lambda_44731a7d0e6d81c3e6aa82d741081786>@@$$QEAV<lambda_601a2a7da3b7a96e9554ac7215c4b07c>@@@Z@4HA 000000018009c1f0     libucrt:signal.obj
 0002:000251f0       $unwind$_ctrlfp$filt$0     000000018009c1f0     libucrt:fpctrl.obj
 0002:000251f0       $unwind$fclose$fin$0       000000018009c1f0     libucrt:fclose.obj
 0002:000251f0       $unwind$?fin$0@?0???$?RV<lambda_0ae27a3a962d80f24befdcbee591983d>@@AEAV<lambda_8d0ee55de4b1038c4002e0adecdf1839>@@V<lambda_dc504788e8f1664fe9b84e20bfb512f2>@@@?$__crt_seh_guarded_call@X@@QEAAX$$QEAV<lambda_0ae27a3a962d80f24befdcbee591983d>@@AEAV<lambda_8d0ee55de4b1038c4002e0adecdf1839>@@$$QEAV<lambda_dc504788e8f1664fe9b84e20bfb512f2>@@@Z@4HA 000000018009c1f0     libucrt:per_thread_data.obj
 0002:000251f0       $unwind$raise$fin$0        000000018009c1f0     libucrt:signal.obj
 0002:000251f8       $unwind$?dllmain_crt_process_detach@@YAH_N@Z 000000018009c1f8     LIBCMT:dll_dllmain.obj
 0002:00025230       $unwind$?dllmain_dispatch@@YAHQEAUHINSTANCE__@@KQEAX@Z 000000018009c230     LIBCMT:dll_dllmain.obj
 0002:00025258       $unwind$?filt$0@?0??dllmain_dispatch@@YAHQEAUHINSTANCE__@@KQEAX@Z@4HA 000000018009c258     LIBCMT:dll_dllmain.obj
 0002:00025260       $unwind$__report_securityfailure 000000018009c260     LIBCMT:gs_report.obj
 0002:00025268       $unwind$__report_gsfailure 000000018009c268     LIBCMT:gs_report.obj
 0002:00025270       $unwind$capture_current_context 000000018009c270     LIBCMT:gs_report.obj
 0002:0002527c       $unwind$_raise_excf        000000018009c27c     libucrt:fpexcept.obj
 0002:0002527c       $unwind$_raise_exc         000000018009c27c     libucrt:fpexcept.obj
 0002:0002527c       $unwind$?__scrt_throw_std_bad_array_new_length@@YAXXZ 000000018009c27c     LIBCMT:throw_bad_alloc.obj
 0002:0002527c       $unwind$?__scrt_throw_std_bad_alloc@@YAXXZ 000000018009c27c     LIBCMT:throw_bad_alloc.obj
 0002:00025284       $unwind$__security_init_cookie 000000018009c284     LIBCMT:gs_support.obj
 0002:00025290       $unwind$__scrt_is_nonwritable_in_current_image 000000018009c290     LIBCMT:utility.obj
 0002:000252b0       $unwind$__scrt_is_nonwritable_in_current_image$filt$0 000000018009c2b0     LIBCMT:utility.obj
 0002:000252b8       $unwind$__scrt_fastfail    000000018009c2b8     LIBCMT:utility_desktop.obj
 0002:000252c8       $unwind$__isa_available_init 000000018009c2c8     LIBCMT:cpu_disp.obj
 0002:000252e0       $xdatasym                  000000018009c2e0     LIBCMT:guard_dispatch.obj
 0002:000252e4       $unwind$__C_specific_handler 000000018009c2e4     libvcruntime:riscchandler.obj
 0002:00025300       $unwind$_free_osfhnd       000000018009c300     libucrt:osfinfo.obj
 0002:00025300       $unwind$__std_exception_copy 000000018009c300     libvcruntime:std_exception.obj
 0002:00025314       $unwind$_CxxThrowException 000000018009c314     libvcruntime:throw.obj
 0002:00025328       $xdatasym                  000000018009c328     libvcruntime:memset.obj
 0002:00025338       $xdatasym                  000000018009c338     libvcruntime:notify.obj
 0002:00025344       $unwind$__DestructExceptionObject 000000018009c344     libvcruntime:ehhelpers.obj
 0002:00025364       $unwind$__acrt_initialize_winapi_thunks 000000018009c364     libucrt:winapi_thunks.obj
 0002:00025364       $unwind$__vcrt_initialize_winapi_thunks 000000018009c364     libvcruntime:winapi_downlevel.obj
 0002:0002536c       $unwind$__acrt_stdio_end_temporary_buffering_nolock 000000018009c36c     libucrt:_sftbuf.obj
 0002:0002536c       $unwind$__vcrt_uninitialize_winapi_thunks 000000018009c36c     libvcruntime:winapi_downlevel.obj
 0002:00025378       $xdatasym                  000000018009c378     libvcruntime:memcpy.obj
 0002:00025388       $xdatasym                  000000018009c388     libvcruntime:handlers.obj
 0002:00025398       $unwind$_tolower_l         000000018009c398     libucrt:tolower_toupper.obj
 0002:000253a8       $xdatasym                  000000018009c3a8     libucrt:strncmp.obj
 0002:000253ac       $unwind$__stdio_common_vfprintf 000000018009c3ac     libucrt:output.obj
 0002:000253b4       $unwind$??$common_vsprintf@Vstandard_base@__crt_stdio_output@@D@@YAH_KQEAD0QEBDQEAU__crt_locale_pointers@@1@Z 000000018009c3b4     libucrt:output.obj
 0002:000253d4       $unwind$??$parse_command_line@D@@YAXPEADPEAPEAD0PEA_K2@Z 000000018009c3d4     libucrt:argv_parsing.obj
 0002:000253d4       $unwind$?write_string_impl@?$output_adapter_common@DV?$stream_output_adapter@D@__crt_stdio_output@@@__crt_stdio_output@@IEBAXQEBDHQEAHAEAV__crt_deferred_errno_cache@@@Z 000000018009c3d4     libucrt:output.obj
 0002:000253d4       $unwind$??$process_string_specifier_tchar@D@?$input_processor@DV?$string_input_adapter@D@__crt_stdio_input@@@__crt_stdio_input@@AEAA_NW4conversion_mode@1@D@Z 000000018009c3d4     libucrt:input.obj
 0002:000253f0       $unwind$?state_case_type@?$output_processor@DV?$stream_output_adapter@D@__crt_stdio_output@@V?$standard_base@DV?$stream_output_adapter@D@__crt_stdio_output@@@2@@__crt_stdio_output@@AEAA_NXZ 000000018009c3f0     libucrt:output.obj
 0002:000253f0       $unwind$?state_case_type@?$output_processor@DV?$string_output_adapter@D@__crt_stdio_output@@V?$standard_base@DV?$string_output_adapter@D@__crt_stdio_output@@@2@@__crt_stdio_output@@AEAA_NXZ 000000018009c3f0     libucrt:output.obj
 0002:00025408       $unwind$?write_stored_string_tchar@?$output_processor@DV?$string_output_adapter@D@__crt_stdio_output@@V?$standard_base@DV?$string_output_adapter@D@__crt_stdio_output@@@2@@__crt_stdio_output@@AEAA_ND@Z 000000018009c408     libucrt:output.obj
 0002:00025408       $unwind$?write_stored_string_tchar@?$output_processor@DV?$stream_output_adapter@D@__crt_stdio_output@@V?$standard_base@DV?$stream_output_adapter@D@__crt_stdio_output@@@2@@__crt_stdio_output@@AEAA_ND@Z 000000018009c408     libucrt:output.obj
 0002:00025420       $unwind$??R<lambda_a31071773b9a94e445cbd5d04ef99106>@@QEBAHXZ 000000018009c420     libucrt:output.obj
 0002:00025440       $unwind$??$write_multiple_characters@V?$stream_output_adapter@D@__crt_stdio_output@@D@__crt_stdio_output@@YAXAEBV?$stream_output_adapter@D@0@DHQEAH@Z 000000018009c440     libucrt:output.obj
 0002:00025440       $unwind$?write_string@?$string_output_adapter@D@__crt_stdio_output@@QEBAXQEBDHQEAHAEAV__crt_deferred_errno_cache@@@Z 000000018009c440     libucrt:output.obj
 0002:00025458       $unwind$??$write_multiple_characters@V?$string_output_adapter@D@__crt_stdio_output@@D@__crt_stdio_output@@YAXAEBV?$string_output_adapter@D@0@DHQEAH@Z 000000018009c458     libucrt:output.obj
 0002:00025464       $unwind$??$?RV<lambda_a62c933ada0517137acf5807a1eeac1f>@@AEAV<lambda_a31071773b9a94e445cbd5d04ef99106>@@V<lambda_56065050dbf3ada7e59a83db45153de3>@@@?$__crt_seh_guarded_call@H@@QEAAH$$QEAV<lambda_a62c933ada0517137acf5807a1eeac1f>@@AEAV<lambda_a31071773b9a94e445cbd5d04ef99106>@@$$QEAV<lambda_56065050dbf3ada7e59a83db45153de3>@@@Z 000000018009c464     libucrt:output.obj
 0002:00025488       $unwind$?as_float@floating_point_value@__crt_strtox@@QEBAAEAMXZ 000000018009c488     libucrt:atof.obj
 0002:00025488       $unwind$_log_special       000000018009c488     libucrt:log_special.obj
 0002:00025488       $unwind$strtol             000000018009c488     libucrt:strtox.obj
 0002:00025488       $unwind$fflush             000000018009c488     libucrt:fflush.obj
 0002:00025488       $unwind$_log10f_special    000000018009c488     libucrt:log_special.obj
 0002:00025488       $unwind$_log10_special     000000018009c488     libucrt:log_special.obj
 0002:00025488       $unwind$??$parse_floating_point_write_result@M@__crt_strtox@@YA?AW4SLD_STATUS@@W4floating_point_parse_result@0@AEBUfloating_point_string@0@QEAM@Z 000000018009c488     libucrt:atof.obj
 0002:00025488       $unwind$?as_double@floating_point_value@__crt_strtox@@QEBAAEANXZ 000000018009c488     libucrt:atof.obj
 0002:00025488       $unwind$strtoull           000000018009c488     libucrt:strtox.obj
 0002:00025488       $unwind$wctomb_s           000000018009c488     libucrt:wctomb.obj
 0002:00025488       $unwind$??$parse_floating_point_write_result@N@__crt_strtox@@YA?AW4SLD_STATUS@@W4floating_point_parse_result@0@AEBUfloating_point_string@0@QEAN@Z 000000018009c488     libucrt:atof.obj
 0002:00025488       $unwind$_invalid_parameter_noinfo 000000018009c488     libucrt:invalid_parameter.obj
 0002:00025490       $unwind$??$parse_integer@KV?$c_string_character_source@D@__crt_strtox@@@__crt_strtox@@YAKQEAU__crt_locale_pointers@@V?$c_string_character_source@D@0@H_N@Z 000000018009c490     libucrt:strtox.obj
 0002:00025490       $unwind$??$parse_integer@_KV?$c_string_character_source@D@__crt_strtox@@@__crt_strtox@@YA_KQEAU__crt_locale_pointers@@V?$c_string_character_source@D@0@H_N@Z 000000018009c490     libucrt:strtox.obj
 0002:000254ac       $unwind$??$parse_floating_point_possible_nan@DV?$c_string_character_source@D@__crt_strtox@@PEBD@__crt_strtox@@YA?AW4floating_point_parse_result@0@AEADAEAV?$c_string_character_source@D@0@PEBD@Z 000000018009c4ac     libucrt:atof.obj
 0002:000254ac       $unwind$__acrt_initialize_stdio 000000018009c4ac     libucrt:_file.obj
 0002:000254ac       $unwind$?initialize_stdio_handles_nolock@@YAXXZ 000000018009c4ac     libucrt:ioinit.obj
 0002:000254c4       $unwind$?common_flush_all@@YAH_N@Z 000000018009c4c4     libucrt:fflush.obj
 0002:000254cc       $unwind$??$?RV<lambda_842d9ff0dc9ef11c61343bbaebe7f885>@@AEAV<lambda_c5860995281e5c4ce005b3de8f5874ee>@@V<lambda_d90129c13df834fdcbf8d2b88dafcf2d>@@@?$__crt_seh_guarded_call@X@@QEAAX$$QEAV<lambda_842d9ff0dc9ef11c61343bbaebe7f885>@@AEAV<lambda_c5860995281e5c4ce005b3de8f5874ee>@@$$QEAV<lambda_d90129c13df834fdcbf8d2b88dafcf2d>@@@Z 000000018009c4cc     libucrt:fflush.obj
 0002:000254f0       $unwind$??$?RV<lambda_886d6c58226a84441f68b9f2b8217b83>@@AEAV<lambda_ab61a845afdef5b7c387490eaf3616ee>@@V<lambda_f7f22ab5edc0698d5f6905b0d3f44752>@@@?$__crt_seh_guarded_call@X@@QEAAX$$QEAV<lambda_886d6c58226a84441f68b9f2b8217b83>@@AEAV<lambda_ab61a845afdef5b7c387490eaf3616ee>@@$$QEAV<lambda_f7f22ab5edc0698d5f6905b0d3f44752>@@@Z 000000018009c4f0     libucrt:fflush.obj
 0002:00025518       $unwind$??$?RV<lambda_c376a267cfb53b6959b3b692ec76b120>@@AEAV<lambda_9a32fed5bf61b6b509b2d3f6003082a1>@@V<lambda_572fbb9fa0ab338edf41edfd4b5fcc8d>@@@?$__crt_seh_guarded_call@H@@QEAAH$$QEAV<lambda_c376a267cfb53b6959b3b692ec76b120>@@AEAV<lambda_9a32fed5bf61b6b509b2d3f6003082a1>@@$$QEAV<lambda_572fbb9fa0ab338edf41edfd4b5fcc8d>@@@Z 000000018009c518     libucrt:fflush.obj
 0002:00025540       $xdatasym                  000000018009c540     libucrt:strncpy.obj
 0002:00025544       $unwind$?common_exit@@YAXHW4_crt_exit_cleanup_mode@@W4_crt_exit_return_mode@@@Z 000000018009c544     libucrt:exit.obj
 0002:00025550       $unwind$??R<lambda_6e4b09c48022b2350581041d5f6b0c4c>@@QEBA@XZ 000000018009c550     libucrt:exit.obj
 0002:00025570       $unwind$??$?RV<lambda_d80eeec6fff315bfe5c115232f3240e3>@@AEAV<lambda_6e4b09c48022b2350581041d5f6b0c4c>@@V<lambda_2358e3775559c9db80273638284d5e45>@@@?$__crt_seh_guarded_call@X@@QEAAX$$QEAV<lambda_d80eeec6fff315bfe5c115232f3240e3>@@AEAV<lambda_6e4b09c48022b2350581041d5f6b0c4c>@@$$QEAV<lambda_2358e3775559c9db80273638284d5e45>@@@Z 000000018009c570     libucrt:exit.obj
 0002:00025594       $unwind$qsort              000000018009c594     libucrt:qsort.obj
 0002:000255ac       $chain$4$qsort             000000018009c5ac     libucrt:qsort.obj
 0002:000255d0       $chain$5$qsort             000000018009c5d0     libucrt:qsort.obj
 0002:000255e0       $unwind$??$__acrt_wcs_to_mbs_cp@U__crt_win32_buffer_no_resizing@@@@YAHQEB_WAEAV?$__crt_win32_buffer@DU__crt_win32_buffer_no_resizing@@@@I@Z 000000018009c5e0     libucrt:getmodulefilenamea.obj
 0002:000255e0       $unwind$__dcrt_write_console 000000018009c5e0     libucrt:initcon.obj
 0002:000255e0       $unwind$_strnicmp_l        000000018009c5e0     libucrt:strnicmp.obj
 0002:000255f4       $unwind$?divide@__crt_strtox@@YA_KAEAUbig_integer@1@AEBU21@@Z 000000018009c5f4     libucrt:atof.obj
 0002:0002560c       $chain$0$?divide@__crt_strtox@@YA_KAEAUbig_integer@1@AEBU21@@Z 000000018009c60c     libucrt:atof.obj
 0002:00025620       $chain$1$?divide@__crt_strtox@@YA_KAEAUbig_integer@1@AEBU21@@Z 000000018009c620     libucrt:atof.obj
 0002:00025630       $unwind$?assemble_floating_point_value@__crt_strtox@@YA?AW4SLD_STATUS@@_KH_N1AEBVfloating_point_value@1@@Z 000000018009c630     libucrt:atof.obj
 0002:00025648       $unwind$?assemble_floating_point_value_from_big_integer@__crt_strtox@@YA?AW4SLD_STATUS@@AEBUbig_integer@1@I_N1AEBVfloating_point_value@1@@Z 000000018009c648     libucrt:atof.obj
 0002:00025664       $unwind$?convert_decimal_string_to_floating_type_common@__crt_strtox@@YA?AW4SLD_STATUS@@AEBUfloating_point_string@1@AEBVfloating_point_value@1@@Z 000000018009c664     libucrt:atof.obj
 0002:00025688       $unwind$??$parse_floating_point@V?$input_adapter_character_source@V?$string_input_adapter@D@__crt_stdio_input@@@__crt_strtox@@N@__crt_strtox@@YA?AW4SLD_STATUS@@QEAU__crt_locale_pointers@@V?$input_adapter_character_source@V?$string_input_adapter@D@__crt_stdio_input@@@0@QEAN@Z 000000018009c688     libucrt:input.obj
 0002:00025688       $unwind$??$parse_floating_point@V?$input_adapter_character_source@V?$string_input_adapter@D@__crt_stdio_input@@@__crt_strtox@@M@__crt_strtox@@YA?AW4SLD_STATUS@@QEAU__crt_locale_pointers@@V?$input_adapter_character_source@V?$string_input_adapter@D@__crt_stdio_input@@@0@QEAM@Z 000000018009c688     libucrt:input.obj
 0002:00025688       $unwind$??$parse_floating_point@V?$c_string_character_source@D@__crt_strtox@@N@__crt_strtox@@YA?AW4SLD_STATUS@@QEAU__crt_locale_pointers@@V?$c_string_character_source@D@0@QEAN@Z 000000018009c688     libucrt:atof.obj
 0002:000256a0       $unwind$??$parse_floating_point_from_source@V?$input_adapter_character_source@V?$string_input_adapter@D@__crt_stdio_input@@@__crt_strtox@@@__crt_strtox@@YA?AW4floating_point_parse_result@0@QEAU__crt_locale_pointers@@AEAV?$input_adapter_character_source@V?$string_input_adapter@D@__crt_stdio_input@@@0@AEAUfloating_point_string@0@@Z 000000018009c6a0     libucrt:input.obj
 0002:000256a0       $unwind$??$parse_floating_point_from_source@V?$c_string_character_source@D@__crt_strtox@@@__crt_strtox@@YA?AW4floating_point_parse_result@0@QEAU__crt_locale_pointers@@AEAV?$c_string_character_source@D@0@AEAUfloating_point_string@0@@Z 000000018009c6a0     libucrt:atof.obj
 0002:000256b8       $unwind$??$parse_floating_point_possible_infinity@DV?$c_string_character_source@D@__crt_strtox@@PEBD@__crt_strtox@@YA?AW4floating_point_parse_result@0@AEADAEAV?$c_string_character_source@D@0@PEBD@Z 000000018009c6b8     libucrt:atof.obj
 0002:000256cc       $unwind$__stdio_common_vsscanf 000000018009c6cc     libucrt:input.obj
 0002:000256ec       $unwind$?write_character@?$input_processor@DV?$string_input_adapter@D@__crt_stdio_input@@@__crt_stdio_input@@AEAA_NQEFA_W_KAEAPEFA_WAEA_KD@Z 000000018009c6ec     libucrt:input.obj
 0002:000256fc       $unwind$?process_integer_specifier@?$input_processor@DV?$string_input_adapter@D@__crt_stdio_input@@@__crt_stdio_input@@AEAA_NI_N@Z 000000018009c6fc     libucrt:input.obj
 0002:00025710       $unwind$??$process_floating_point_specifier_t@M@?$input_processor@DV?$string_input_adapter@D@__crt_stdio_input@@@__crt_stdio_input@@AEAA_NXZ 000000018009c710     libucrt:input.obj
 0002:00025710       $unwind$??$process_floating_point_specifier_t@N@?$input_processor@DV?$string_input_adapter@D@__crt_stdio_input@@@__crt_stdio_input@@AEAA_NXZ 000000018009c710     libucrt:input.obj
 0002:0002571c       $unwind$??$parse_integer@_KV?$input_adapter_character_source@V?$string_input_adapter@D@__crt_stdio_input@@@__crt_strtox@@@__crt_strtox@@YA_KQEAU__crt_locale_pointers@@V?$input_adapter_character_source@V?$string_input_adapter@D@__crt_stdio_input@@@0@H_N@Z 000000018009c71c     libucrt:input.obj
 0002:00025738       $unwind$??$process_string_specifier_tchar@_W@?$input_processor@DV?$string_input_adapter@D@__crt_stdio_input@@@__crt_stdio_input@@AEAA_NW4conversion_mode@1@_W@Z 000000018009c738     libucrt:input.obj
 0002:00025750       $unwind$_commit            000000018009c750     libucrt:commit.obj
 0002:00025750       $unwind$_close             000000018009c750     libucrt:close.obj
 0002:00025758       $unwind$??$?RV<lambda_751a882b2c74d4b022dec766aa51a29a>@@AEAV<lambda_628dfdc04ba53c8bfc02c9951375f3f5>@@V<lambda_f6c7be5f7998530c34de24c7437d6b54>@@@?$__crt_seh_guarded_call@H@@QEAAH$$QEAV<lambda_751a882b2c74d4b022dec766aa51a29a>@@AEAV<lambda_628dfdc04ba53c8bfc02c9951375f3f5>@@$$QEAV<lambda_f6c7be5f7998530c34de24c7437d6b54>@@@Z 000000018009c758     libucrt:close.obj
 0002:0002577c       $unwind$??$__acrt_mbs_to_wcs_cp@U__crt_win32_buffer_internal_dynamic_resizing@@@@YAHQEBDAEAV?$__crt_win32_buffer@_WU__crt_win32_buffer_internal_dynamic_resizing@@@@I@Z 000000018009c77c     libucrt:open.obj
 0002:00025794       $unwind$_query_new_handler 000000018009c794     libucrt:new_handler.obj
 0002:000257b4       $unwind$_configure_narrow_argv 000000018009c7b4     libucrt:argv_parsing.obj
 0002:000257c8       $unwind$??$free_environment@_W@@YAXQEAPEA_W@Z 000000018009c7c8     libucrt:environment_initialization.obj
 0002:000257c8       $unwind$??$free_environment@D@@YAXQEAPEAD@Z 000000018009c7c8     libucrt:environment_initialization.obj
 0002:000257d4       $unwind$_execute_onexit_table 000000018009c7d4     libucrt:onexit.obj
 0002:000257dc       $unwind$??$?RV<lambda_7777bce6b2f8c936911f934f8298dc43>@@AEAV<lambda_f03950bc5685219e0bcd2087efbe011e>@@V<lambda_3883c3dff614d5e0c5f61bb1ac94921c>@@@?$__crt_seh_guarded_call@H@@QEAAH$$QEAV<lambda_7777bce6b2f8c936911f934f8298dc43>@@AEAV<lambda_f03950bc5685219e0bcd2087efbe011e>@@$$QEAV<lambda_3883c3dff614d5e0c5f61bb1ac94921c>@@@Z 000000018009c7dc     libucrt:onexit.obj
 0002:00025800       $unwind$terminate          000000018009c800     libucrt:terminate.obj
 0002:00025820       $unwind$_read              000000018009c820     libucrt:read.obj
 0002:00025850       $unwind$_read_nolock       000000018009c850     libucrt:read.obj
 0002:00025868       $unwind$?translate_ansi_or_utf8_nolock@@YAHHQEAD_KQEA_W1@Z 000000018009c868     libucrt:read.obj
 0002:00025884       $unwind$??$translate_text_mode_nolock@D@@YAHHQEAD_K@Z 000000018009c884     libucrt:read.obj
 0002:0002589c       $unwind$??$translate_text_mode_nolock@_W@@YAHHQEA_W_K@Z 000000018009c89c     libucrt:read.obj
 0002:000258b4       $unwind$??$common_lseek@J@@YAJHJH@Z 000000018009c8b4     libucrt:lseek.obj
 0002:000258e4       $unwind$??$common_lseek@_J@@YA_JH_JH@Z 000000018009c8e4     libucrt:lseek.obj
 0002:00025914       $unwind$??$common_lseek_nolock@J@@YAJHJH@Z 000000018009c914     libucrt:lseek.obj
 0002:00025914       $unwind$_invalid_parameter 000000018009c914     libucrt:invalid_parameter.obj
 0002:00025928       $unwind$__acrt_call_reportfault 000000018009c928     libucrt:invalid_parameter.obj
 0002:00025948       $unwind$__acrt_GetModuleFileNameA 000000018009c948     libucrt:getmodulefilenamea.obj
 0002:00025964       $unwind$__acrt_get_sigabrt_handler 000000018009c964     libucrt:signal.obj
 0002:00025964       $unwind$__acrt_uninitialize_locale 000000018009c964     libucrt:wsetlocale.obj
 0002:0002596c       $unwind$raise              000000018009c96c     libucrt:signal.obj
 0002:000259a8       $unwind$??$?RV<lambda_450d765d439847d4c735a33c368b5fc0>@@AEAV<lambda_44731a7d0e6d81c3e6aa82d741081786>@@V<lambda_601a2a7da3b7a96e9554ac7215c4b07c>@@@?$__crt_seh_guarded_call@P6AXH@Z@@QEAAP6AXH@Z$$QEAV<lambda_450d765d439847d4c735a33c368b5fc0>@@AEAV<lambda_44731a7d0e6d81c3e6aa82d741081786>@@$$QEAV<lambda_601a2a7da3b7a96e9554ac7215c4b07c>@@@Z 000000018009c9a8     libucrt:signal.obj
 0002:000259cc       $unwind$__acrt_locale_free_lc_time_if_unreferenced 000000018009c9cc     libucrt:locale_refcounting.obj
 0002:000259cc       $unwind$__acrt_locale_free_numeric 000000018009c9cc     libucrt:initnum.obj
 0002:000259cc       $unwind$_free_base         000000018009c9cc     libucrt:free_base.obj
 0002:000259cc       $unwind$?destroy_fls@@YAXPEAX@Z 000000018009c9cc     libucrt:per_thread_data.obj
 0002:000259d4       $unwind$?construct_ptd_array@@YAXQEAU__acrt_ptd@@@Z 000000018009c9d4     libucrt:per_thread_data.obj
 0002:000259dc       $unwind$?destroy_ptd_array@@YAXQEAU__acrt_ptd@@@Z 000000018009c9dc     libucrt:per_thread_data.obj
 0002:000259e4       $unwind$??$?RV<lambda_0ae27a3a962d80f24befdcbee591983d>@@AEAV<lambda_8d0ee55de4b1038c4002e0adecdf1839>@@V<lambda_dc504788e8f1664fe9b84e20bfb512f2>@@@?$__crt_seh_guarded_call@X@@QEAAX$$QEAV<lambda_0ae27a3a962d80f24befdcbee591983d>@@AEAV<lambda_8d0ee55de4b1038c4002e0adecdf1839>@@$$QEAV<lambda_dc504788e8f1664fe9b84e20bfb512f2>@@@Z 000000018009c9e4     libucrt:per_thread_data.obj
 0002:00025a08       $unwind$??$?RV<lambda_aa87e3671a710a21b5dc78c0bdf72e11>@@AEAV<lambda_92619d2358a28f41a33ba319515a20b9>@@V<lambda_6992ecaafeb10aed2b74cb1fae11a551>@@@?$__crt_seh_guarded_call@X@@QEAAX$$QEAV<lambda_aa87e3671a710a21b5dc78c0bdf72e11>@@AEAV<lambda_92619d2358a28f41a33ba319515a20b9>@@$$QEAV<lambda_6992ecaafeb10aed2b74cb1fae11a551>@@@Z 000000018009ca08     libucrt:per_thread_data.obj
 0002:00025a2c       $unwind$??$?RV<lambda_f2e299630e499de9f9a165e60fcd3db5>@@AEAV<lambda_2ae9d31cdba2644fcbeaf08da7c24588>@@V<lambda_40d01ff24d0e7b3814fdbdcee8eab3c7>@@@?$__crt_seh_guarded_call@X@@QEAAX$$QEAV<lambda_f2e299630e499de9f9a165e60fcd3db5>@@AEAV<lambda_2ae9d31cdba2644fcbeaf08da7c24588>@@$$QEAV<lambda_40d01ff24d0e7b3814fdbdcee8eab3c7>@@@Z 000000018009ca2c     libucrt:per_thread_data.obj
 0002:00025a50       $unwind$??$?RV<lambda_2d41944a1d46af3157314b8a01080d33>@@AEAV<lambda_8f455de75cd7d7f24b4096f044d8b9e6>@@V<lambda_aa500f224e6afead328df44964fe2772>@@@?$__crt_seh_guarded_call@X@@QEAAX$$QEAV<lambda_2d41944a1d46af3157314b8a01080d33>@@AEAV<lambda_8f455de75cd7d7f24b4096f044d8b9e6>@@$$QEAV<lambda_aa500f224e6afead328df44964fe2772>@@@Z 000000018009ca50     libucrt:per_thread_data.obj
 0002:00025a74       $unwind$??$?RV<lambda_410d79af7f07d98d83a3f525b3859a53>@@AEAV<lambda_3e16ef9562a7dcce91392c22ab16ea36>@@V<lambda_38119f0e861e05405d8a144b9b982f0a>@@@?$__crt_seh_guarded_call@X@@QEAAX$$QEAV<lambda_410d79af7f07d98d83a3f525b3859a53>@@AEAV<lambda_3e16ef9562a7dcce91392c22ab16ea36>@@$$QEAV<lambda_38119f0e861e05405d8a144b9b982f0a>@@@Z 000000018009ca74     libucrt:wsetlocale.obj
 0002:00025a9c       $unwind$__acrt_initialize_lowio 000000018009ca9c     libucrt:ioinit.obj
 0002:00025abc       $unwind$?initialize_inherited_file_handles_nolock@@YAXXZ 000000018009cabc     libucrt:ioinit.obj
 0002:00025ad8       $unwind$_isctype_l         000000018009cad8     libucrt:isctype.obj
 0002:00025af4       $unwind$__acrt_LCMapStringA 000000018009caf4     libucrt:lcmapstringa.obj
 0002:00025b04       $unwind$?__acrt_LCMapStringA_stat@@YAHPEAU__crt_locale_pointers@@PEB_WKPEBDHPEADHHH@Z 000000018009cb04     libucrt:lcmapstringa.obj
 0002:00025b2c       $unwind$isspace            000000018009cb2c     libucrt:_ctype.obj
 0002:00025b2c       $unwind$_mbsdec_l          000000018009cb2c     libucrt:mbsdec.obj
 0002:00025b2c       $unwind$isdigit            000000018009cb2c     libucrt:_ctype.obj
 0002:00025b38       $unwind$_mbtowc_l          000000018009cb38     libucrt:mbtowc.obj
 0002:00025b38       $unwind$?fp_format_e@@YAHQEBNQEAD_K12H_NIQEAU__crt_locale_pointers@@@Z 000000018009cb38     libucrt:cvt.obj
 0002:00025b38       $unwind$__acrt_LCMapStringEx 000000018009cb38     libucrt:winapi_thunks.obj
 0002:00025b4c       $unwind$_wctomb_s_l        000000018009cb4c     libucrt:wctomb.obj
 0002:00025b5c       $unwind$__acrt_fp_format   000000018009cb5c     libucrt:cvt.obj
 0002:00025b70       $unwind$?fp_format_nan_or_infinity@@YAHW4__acrt_fp_class@@_NPEAD_K1@Z 000000018009cb70     libucrt:cvt.obj
 0002:00025b84       $unwind$?fp_format_e_internal@@YAHQEAD_KH_NIQEAU_strflt@@2QEAU__crt_locale_pointers@@@Z 000000018009cb84     libucrt:cvt.obj
 0002:00025b9c       $unwind$?fp_format_a@@YAHQEBNPEAD_KQEAD2H_NIQEAU__crt_locale_pointers@@@Z 000000018009cb9c     libucrt:cvt.obj
 0002:00025bb8       $unwind$__dcrt_get_narrow_environment_from_os 000000018009cbb8     libucrt:get_environment_from_os.obj
 0002:00025bb8       $unwind$??$__acrt_wcs_to_mbs_cp@U__crt_win32_buffer_internal_dynamic_resizing@@@@YAHQEB_WAEAV?$__crt_win32_buffer@DU__crt_win32_buffer_internal_dynamic_resizing@@@@I@Z 000000018009cbb8     libucrt:argv_wildcards.obj
 0002:00025bb8       $unwind$?fp_format_f_internal@@YAHQEAD_KHQEAU_strflt@@_NQEAU__crt_locale_pointers@@@Z 000000018009cbb8     libucrt:cvt.obj
 0002:00025bd0       $unwind$?fp_format_g@@YAHQEBNQEAD_K12H_NIQEAU__crt_locale_pointers@@@Z 000000018009cbd0     libucrt:cvt.obj
 0002:00025be4       $unwind$_fcloseall         000000018009cbe4     libucrt:closeall.obj
 0002:00025c08       $unwind$??$?RV<lambda_a37b2b86f63e897a80ea819b0eb08c01>@@AEAV<lambda_38ce7e780aa69e748d6df282ebc68efe>@@V<lambda_99fb1378e971ab6e7edea83e3a7a83a2>@@@?$__crt_seh_guarded_call@H@@QEAAH$$QEAV<lambda_a37b2b86f63e897a80ea819b0eb08c01>@@AEAV<lambda_38ce7e780aa69e748d6df282ebc68efe>@@$$QEAV<lambda_99fb1378e971ab6e7edea83e3a7a83a2>@@@Z 000000018009cc08     libucrt:commit.obj
 0002:00025c2c       $unwind$_write             000000018009cc2c     libucrt:write.obj
 0002:00025c5c       $unwind$_write_nolock      000000018009cc5c     libucrt:write.obj
 0002:00025c74       $unwind$?write_double_translated_ansi_nolock@@YA?AUwrite_result@?A0x17268360@@HQEBDI@Z 000000018009cc74     libucrt:write.obj
 0002:00025c98       $unwind$?write_text_utf16le_nolock@@YA?AUwrite_result@?A0x17268360@@HQEBDI@Z 000000018009cc98     libucrt:write.obj
 0002:00025c98       $unwind$?write_text_ansi_nolock@@YA?AUwrite_result@?A0x17268360@@HQEBDI@Z 000000018009cc98     libucrt:write.obj
 0002:00025cb8       $unwind$?write_text_utf8_nolock@@YA?AUwrite_result@?A0x17268360@@HQEBDI@Z 000000018009ccb8     libucrt:write.obj
 0002:00025cdc       $unwind$??$write_buffer_nolock@D@@YA_NDV__crt_stdio_stream@@@Z 000000018009ccdc     libucrt:_flsbuf.obj
 0002:00025cec       $unwind$__acrt_lowio_destroy_handle_array 000000018009ccec     libucrt:osfinfo.obj
 0002:00025cfc       $unwind$__acrt_lowio_ensure_fh_exists 000000018009ccfc     libucrt:osfinfo.obj
 0002:00025d28       $unwind$??$common_expand_argv_wildcards@D@@YAHQEAPEADQEAPEAPEAD@Z 000000018009cd28     libucrt:argv_wildcards.obj
 0002:00025d40       $unwind$??$expand_argument_wildcards@D@@YAHQEAD0AEAV?$argument_list@D@?A0x5f5c8891@@@Z 000000018009cd40     libucrt:argv_wildcards.obj
 0002:00025d64       $unwind$_setmbcp_nolock    000000018009cd64     libucrt:mbctype.obj
 0002:00025d84       $unwind$?update_thread_multibyte_data_internal@@YAPEAU__crt_multibyte_data@@QEAU__acrt_ptd@@QEAPEAU1@@Z 000000018009cd84     libucrt:mbctype.obj
 0002:00025dac       $unwind$?setmbcp_internal@@YAHH_NQEAU__acrt_ptd@@QEAPEAU__crt_multibyte_data@@@Z 000000018009cdac     libucrt:mbctype.obj
 0002:00025dbc       $unwind$?setSBUpLow@@YAXPEAU__crt_multibyte_data@@@Z 000000018009cdbc     libucrt:mbctype.obj
 0002:00025dd8       $unwind$??$?RV<lambda_efdfa57d1f175319df784efa44bb7b81>@@AEAV<lambda_5f0a4c1567f8adc6734073e5d1e1b35c>@@V<lambda_2e8a7d3640ea6ccb4c2413664c2db6fd>@@@?$__crt_seh_guarded_call@X@@QEAAX$$QEAV<lambda_efdfa57d1f175319df784efa44bb7b81>@@AEAV<lambda_5f0a4c1567f8adc6734073e5d1e1b35c>@@$$QEAV<lambda_2e8a7d3640ea6ccb4c2413664c2db6fd>@@@Z 000000018009cdd8     libucrt:mbctype.obj
 0002:00025dfc       $unwind$__acrt_WideCharToMultiByte 000000018009cdfc     libucrt:widechartomultibyte.obj
 0002:00025dfc       $unwind$__GSHandlerCheckCommon 000000018009cdfc     LIBCMT:gshandler.obj
 0002:00025e04       $unwind$__acrt_update_thread_locale_data 000000018009ce04     libucrt:locale_refcounting.obj
 0002:00025e28       $unwind$__acrt_locale_free_monetary 000000018009ce28     libucrt:initmon.obj
 0002:00025e30       $unwind$__acrt_locale_free_time 000000018009ce30     libucrt:inittime.obj
 0002:00025e40       $unwind$__acrt_GetStringTypeA 000000018009ce40     libucrt:getstringtypea.obj
 0002:00025e68       $unwind$?__mbsrtowcs_utf8@__crt_mbstring@@YA_KPEA_WPEAPEBD_KPEAU_Mbstatet@@@Z 000000018009ce68     libucrt:mbrtowc.obj
 0002:00025e80       $unwind$__acrt_fltout      000000018009ce80     libucrt:cfout.obj
 0002:00025ea0       $unwind$?GetTableIndexFromLocaleName@@YAHPEB_W@Z 000000018009cea0     libucrt:lcidtoname_downlevel.obj
 0002:00025eb8       $unwind$fclose             000000018009ceb8     libucrt:fclose.obj
 0002:00025edc       $unwind$_putwch_nolock     000000018009cedc     libucrt:putwch.obj
 0002:00025ee4       $unwind$__acrt_fenv_set_control 000000018009cee4     libucrt:_fenvutils.obj
 0002:00025ef4       $unwind$fallbackMethod     000000018009cef4     libucrt:strpbrk.obj
 0002:00025f04       $unwind$?__mbrtoc32_utf8@__crt_mbstring@@YA_KPEA_UPEBD_KPEAU_Mbstatet@@@Z 000000018009cf04     libucrt:mbrtoc32.obj
 0002:00025f20       $xdatasym                  000000018009cf20     libucrt:log10.obj
 0002:00025f2c       $unwind$_call_matherr      000000018009cf2c     libucrt:libm_error.obj
 0002:00025f34       $unwind$_handle_errorf     000000018009cf34     libucrt:libm_error.obj
 0002:00025f34       $unwind$_handle_error      000000018009cf34     libucrt:libm_error.obj
 0002:00025f54       $unwind$__acrt_initialize_fma3 000000018009cf54     libucrt:fma3_available.obj
 0002:00025f5c       $unwind$_logf_special_common 000000018009cf5c     libucrt:log_special.obj
 0002:00025f68       $unwind$_exp_special       000000018009cf68     libucrt:exp_special.obj
 0002:00025f68       $unwind$_log_special_common 000000018009cf68     libucrt:log_special.obj
 0002:00025f78       $xdatasym                  000000018009cf78     libucrt:fpsr.obj
 0002:00025f80       $unwind$_raise_exc_ex      000000018009cf80     libucrt:fpexcept.obj
 0002:00025f94       $unwind$_ctrlfp            000000018009cf94     libucrt:fpctrl.obj
 0002:00025fbc       $unwind$?DloadMakePermanentImageCommit@@YAXPEAX_K@Z 000000018009cfbc     DelayImp:delayhlp.obj
 0002:00025fc8       $unwind$?DloadProtectSection@@YAXKPEAK@Z 000000018009cfc8     DelayImp:delayhlp.obj
 0002:00025fd8       $unwind$__delayLoadHelper2 000000018009cfd8     DelayImp:delayhlp.obj
 0002:00025ff0       $unwind$_IsNonwritableInCurrentImage 000000018009cff0     LIBCMT:pesect.obj
 0002:00026018       $xdatasym                  000000018009d018     LIBCMT:chkstk.obj
 0002:00026020       $xdatasym                  000000018009d020     libvcruntime:memcmp.obj
 0002:00026024       $unwind$strrchr            000000018009d024     libvcruntime:strrchr.obj
 0002:00026030       $xdatasym                  000000018009d030     LIBCMT:svml_dcos2_sse2.obj
 0002:00026060       $xdatasym                  000000018009d060     LIBCMT:svml_dlog2_sse2.obj
 0002:00026070       $xdatasym                  000000018009d070     LIBCMT:svml_dpow2_sse2.obj
 0002:000260b4       $unwind$atan               000000018009d0b4     libucrt:atan.obj
 0002:000260c0       $xdatasym                  000000018009d0c0     libucrt:cos.obj
 0002:000260c8       $xdatasym                  000000018009d0c8     libucrt:exp.obj
 0002:000260d0       $xdatasym                  000000018009d0d0     libucrt:log.obj
 0002:000260e0       $xdatasym                  000000018009d0e0     libucrt:log10f.obj
 0002:000260e8       $xdatasym                  000000018009d0e8     libucrt:pow.obj
 0002:000260f8       $xdatasym                  000000018009d0f8     libucrt:powf.obj
 0002:00026108       $xdatasym                  000000018009d108     libucrt:sin.obj
 0002:00026110       $unwind$sqrt               000000018009d110     libucrt:sqrt.obj
 0002:00026118       $xdatasym                  000000018009d118     libucrt:tan.obj
 0002:00026138       $xdatasym                  000000018009d138     libucrt:remainder_piby2_forasm.obj
 0002:00026148       $xdatasym                  000000018009d148     libucrt:remainder_piby2_forfma3.obj
 0002:00026154       $unwind$_sincos_special    000000018009d154     libucrt:sincos_special.obj
 0002:0002615c       $unwind$_powf_special      000000018009d15c     libucrt:pow_special.obj
 0002:0002616c       $unwind$_pow_special       000000018009d16c     libucrt:pow_special.obj
 0002:00027210       .edata                     000000018009e210     bindings.exp
 0002:00027238       rgpv                       000000018009e238     bindings.exp
 0002:0002723c       rgszName                   000000018009e23c     bindings.exp
 0002:00027240       rgwOrd                     000000018009e240     bindings.exp
 0002:00027242       szName                     000000018009e242     bindings.exp
 0002:00027250       $N00001                    000000018009e250     bindings.exp
 0002:00027504       .idata$6                   000000018009e504     kernel32:KERNEL32.dll
 0003:00000030       ?__vcrt_flsindex@@3KA      000000018009f030     libvcruntime:per_thread_data.obj
 0003:00000150       ?errno_no_memory@@3HA      000000018009f150     libucrt:errno.obj
 0003:00000154       ?doserrno_no_memory@@3KA   000000018009f154     libucrt:errno.obj
 0003:00000264       ?__acrt_flsindex@@3KA      000000018009f264     libucrt:per_thread_data.obj
 0003:00000430       _mbctypes                  000000018009f430     libucrt:mbctype.obj
 0003:00000540       _mbcasemaps                000000018009f540     libucrt:mbctype.obj
 0003:00000640       ?__rgctypeflag@@3PADA      000000018009f640     libucrt:mbctype.obj
 0003:00000650       ?__rgcode_page_info@@3PAUcode_page_info@@A 000000018009f650     libucrt:mbctype.obj
 0003:00000a10       ?__dcrt_lowio_console_output_handle@@3PEAXEA 000000018009fa10     libucrt:initcon.obj
 0003:00000a20       ?dazSupported@?1??_ctrlfp@@9@9 000000018009fa20     libucrt:fpctrl.obj
 0003:00000a40       _module                    000000018009fa40     bindings.obj
 0003:00000a80       mpg123_decoder_list        000000018009fa80     libmpg123:optimize.obj
 0003:00000a90       readers                    000000018009fa90     libmpg123:readers.obj
 0003:00000c70       bad_reader                 000000018009fc70     libmpg123:readers.obj
 0003:00000cd0       pretab_choice              000000018009fcd0     libmpg123:layer3.obj
 0003:00000f48       ?__proc_attached@@3HA      000000018009ff48     LIBCMT:dll_dllmain.obj
 0003:00000f50       GS_ExceptionRecord         000000018009ff50     LIBCMT:gs_report.obj
 0003:00000ff0       GS_ContextRecord           000000018009fff0     LIBCMT:gs_report.obj
 0003:000014e0       ?is_initialized_as_dll@@3_NA 00000001800a04e0     LIBCMT:utility.obj
 0003:000014e1       ?module_local_atexit_table_initialized@@3_NA 00000001800a04e1     LIBCMT:utility.obj
 0003:000014e8       ?module_local_atexit_table@@3U_onexit_table_t@@A 00000001800a04e8     LIBCMT:utility.obj
 0003:00001500       ?module_local_at_quick_exit_table@@3U_onexit_table_t@@A 00000001800a0500     LIBCMT:utility.obj
 0003:00001568       ?heap@@3V_HeapManager@@A   00000001800a0568     libvcruntime:undname.obj
 0003:00001590       ?__vcrt_startup_thread_ptd@@3U__vcrt_ptd@@A 00000001800a0590     libvcruntime:per_thread_data.obj
 0003:00001620       __vcrt_lock_table          00000001800a0620     libvcruntime:locks.obj
 0003:00001648       __vcrt_locks_initialized   00000001800a0648     libvcruntime:locks.obj
 0003:00001650       ?module_handles@@3PAPEAUHINSTANCE__@@A 00000001800a0650     libvcruntime:winapi_downlevel.obj
 0003:00001668       ?encoded_function_pointers@@3PAPEAXA 00000001800a0668     libvcruntime:winapi_downlevel.obj
 0003:000016ac       ?c_termination_complete@@3JA 00000001800a06ac     libucrt:exit.obj
 0003:000016b0       ?thread_local_exit_callback_func@@3P6AXPEAXK0@ZEA 00000001800a06b0     libucrt:exit.obj
 0003:000016c0       ?__acrt_new_handler@@3V?$dual_state_global@P6AH_K@Z@__crt_state_management@@A 00000001800a06c0     libucrt:new_handler.obj
 0003:000016d0       ?program_name@?1???$common_configure_argv@D@@YAHW4_crt_argv_mode@@@Z@4PADA 00000001800a06d0     libucrt:argv_parsing.obj
 0003:00001828       ?__acrt_invalid_parameter_handler@@3V?$dual_state_global@P6AXPEB_W00I_K@Z@__crt_state_management@@A 00000001800a0828     libucrt:invalid_parameter.obj
 0003:00001830       ?__acrt_app_type@@3W4_crt_app_type@@A 00000001800a0830     libucrt:report_runtime_error.obj
 0003:00001838       ?ctrlc_action@@3V?$dual_state_global@P6AXH@Z@__crt_state_management@@A 00000001800a0838     libucrt:signal.obj
 0003:00001840       ?ctrlbreak_action@@3V?$dual_state_global@P6AXH@Z@__crt_state_management@@A 00000001800a0840     libucrt:signal.obj
 0003:00001848       ?abort_action@@3V?$dual_state_global@P6AXH@Z@__crt_state_management@@A 00000001800a0848     libucrt:signal.obj
 0003:00001850       ?term_action@@3V?$dual_state_global@P6AXH@Z@__crt_state_management@@A 00000001800a0850     libucrt:signal.obj
 0003:00001c78       ?internal_state@?1??_mbtowc_l@@9@4U_Mbstatet@@A 00000001800a0c78     libucrt:mbtowc.obj
 0003:00001c80       ?enable_percent_n@@3_KA    00000001800a0c80     libucrt:printf_count_output.obj
 0003:00001ca0       ?module_handles@@3PAPEAUHINSTANCE__@@A 00000001800a0ca0     libucrt:winapi_thunks.obj
 0003:00001d40       ?encoded_function_pointers@@3PAPEAXA 00000001800a0d40     libucrt:winapi_thunks.obj
 0003:00001e50       ?__acrt_lock_table@@3PAU_RTL_CRITICAL_SECTION@@A 00000001800a0e50     libucrt:locks.obj
 0003:00002080       ?__acrt_locks_initialized@@3IA 00000001800a1080     libucrt:locks.obj
 0003:000020a0       ?fSystemSet@@3HA           00000001800a10a0     libucrt:mbctype.obj
 0003:000020a4       ?initialized@?1??__acrt_initialize_multibyte@@9@4_NA 00000001800a10a4     libucrt:mbctype.obj
 0003:000020e0       ?user_matherr@@3V?$dual_state_global@P6AHPEAU_exception@@@Z@__crt_state_management@@A 00000001800a10e0     libucrt:matherr.obj
 0003:000020f0       ?__acrt_global_new_mode@@3V?$dual_state_global@J@__crt_state_management@@A 00000001800a10f0     libucrt:new_mode.obj
 0003:000020f8       ?internal_pst@?1??__mbrtoc32_utf8@__crt_mbstring@@YA_KPEA_UPEBD_KPEAU_Mbstatet@@@Z@4U3@A 00000001800a10f8     libucrt:mbrtoc32.obj
 0003:00002140       cos64                      00000001800a1140     libmpg123:tabinit.obj
 0003:00002180       cos32                      00000001800a1180     libmpg123:tabinit.obj
 0003:000021a0       cos8                       00000001800a11a0     libmpg123:tabinit.obj
 0003:000021a8       cos16                      00000001800a11a8     libmpg123:tabinit.obj
 0003:000021b8       cos4                       00000001800a11b8     libmpg123:tabinit.obj
 0003:000021bc       ma_max_i2                  00000001800a11bc     libmp3lame:psymodel.obj
 0003:000021c0       ma_max_i1                  00000001800a11c0     libmp3lame:psymodel.obj
 0003:000021c4       ?init@?1??init_log_table@@9@9 00000001800a11c4     libmp3lame:util.obj
 0003:000021c8       initialized                00000001800a11c8     libmpg123:libmpg123.obj
 0003:000021cc       COS6_1                     00000001800a11cc     libmpg123:layer3.obj
 0003:000021d0       log_table                  00000001800a11d0     libmp3lame:util.obj
 0003:000029d4       COS6_2                     00000001800a19d4     libmpg123:layer3.obj
 0003:000029e0       window                     00000001800a19e0     libmp3lame:fft.obj
 0003:000039e0       window_s                   00000001800a29e0     libmp3lame:fft.obj
 0003:00003be0       grp_3tab                   00000001800a2be0     libmpg123:layer2.obj
 0003:00003d60       grp_9tab                   00000001800a2d60     libmpg123:layer2.obj
 0003:00006d60       grp_5tab                   00000001800a5d60     libmpg123:layer2.obj
 0003:00007360       mapbuf1                    00000001800a6360     libmpg123:layer3.obj
 0003:00008950       tan2_1                     00000001800a7950     libmpg123:layer3.obj
 0003:00008990       mapbuf0                    00000001800a7990     libmpg123:layer3.obj
 0003:00009ef0       i_slen2                    00000001800a8ef0     libmpg123:layer3.obj
 0003:0000a2f0       tan1_1                     00000001800a92f0     libmpg123:layer3.obj
 0003:0000a330       tan1_2                     00000001800a9330     libmpg123:layer3.obj
 0003:0000a370       pow1_1                     00000001800a9370     libmpg123:layer3.obj
 0003:0000a3f0       pow2_1                     00000001800a93f0     libmpg123:layer3.obj
 0003:0000a470       cos18                      00000001800a9470     libmpg123:layer3.obj
 0003:0000a480       pow2_2                     00000001800a9480     libmpg123:layer3.obj
 0003:0000a500       map                        00000001800a9500     libmpg123:layer3.obj
 0003:0000a5e0       n_slen2                    00000001800a95e0     libmpg123:layer3.obj
 0003:0000ade0       win                        00000001800a9de0     libmpg123:layer3.obj
 0003:0000b020       cos9                       00000001800aa020     libmpg123:layer3.obj
 0003:0000b030       tfcos12                    00000001800aa030     libmpg123:layer3.obj
 0003:0000b040       aa_cs                      00000001800aa040     libmpg123:layer3.obj
 0003:0000b060       pow1_2                     00000001800aa060     libmpg123:layer3.obj
 0003:0000b0e0       tan2_2                     00000001800aa0e0     libmpg123:layer3.obj
 0003:0000b120       win1                       00000001800aa120     libmpg123:layer3.obj
 0003:0000b360       mapbuf2                    00000001800aa360     libmpg123:layer3.obj
 0003:0000b990       mapend                     00000001800aa990     libmpg123:layer3.obj
 0003:0000ba70       aa_ca                      00000001800aaa70     libmpg123:layer3.obj
 0003:0000ba90       ispow                      00000001800aaa90     libmpg123:layer3.obj
 0004:00000000       $pdata$?Initialize@nodelame@@YAXV?$Local@VObject@v8@@@v8@@@Z 00000001800c4000     bindings.obj
 0004:0000000c       $pdata$?FunctionCallbackWrapper@imp@Nan@@YAXAEBV?$FunctionCallbackInfo@VValue@v8@@@v8@@@Z 00000001800c400c     node_lame.obj
 0004:00000018       $pdata$?Set@Nan@@YA?AV?$Maybe@_N@v8@@V?$Local@VObject@v8@@@3@V?$Local@VValue@v8@@@3@1@Z 00000001800c4018     node_lame.obj
 0004:00000024       $pdata$?ForceSet@Nan@@YA?AV?$Maybe@_N@v8@@V?$Local@VObject@v8@@@3@V?$Local@VValue@v8@@@3@1W4PropertyAttribute@3@@Z 00000001800c4024     node_lame.obj
 0004:00000030       $pdata$??$To@VInteger@v8@@@imp@Nan@@YA?AV?$Local@VInteger@v8@@@v8@@V23@@Z 00000001800c4030     node_lame.obj
 0004:0000003c       $pdata$?node_get_lame_version@nodelame@@YAXAEBV?$FunctionCallbackInfo@VValue@v8@@@Nan@@@Z 00000001800c403c     node_lame.obj
 0004:00000048       $pdata$?node_get_lame_os_bitness@nodelame@@YAXAEBV?$FunctionCallbackInfo@VValue@v8@@@Nan@@@Z 00000001800c4048     node_lame.obj
 0004:00000054       $pdata$?node_lame_close@nodelame@@YAXAEBV?$FunctionCallbackInfo@VValue@v8@@@Nan@@@Z 00000001800c4054     node_lame.obj
 0004:00000060       $pdata$?node_lame_init@nodelame@@YAXAEBV?$FunctionCallbackInfo@VValue@v8@@@Nan@@@Z 00000001800c4060     node_lame.obj
 0004:0000006c       $pdata$?node_lame_encode_buffer@nodelame@@YAXAEBV?$FunctionCallbackInfo@VValue@v8@@@Nan@@@Z 00000001800c406c     node_lame.obj
 0004:00000078       $pdata$?node_lame_encode_buffer_async@nodelame@@YAXPEAUuv_work_s@@@Z 00000001800c4078     node_lame.obj
 0004:00000084       $pdata$?node_lame_encode_buffer_after@nodelame@@YAXPEAUuv_work_s@@@Z 00000001800c4084     node_lame.obj
 0004:00000090       $pdata$?node_lame_encode_flush_nogap@nodelame@@YAXAEBV?$FunctionCallbackInfo@VValue@v8@@@Nan@@@Z 00000001800c4090     node_lame.obj
 0004:0000009c       $pdata$?node_lame_encode_flush_nogap_async@nodelame@@YAXPEAUuv_work_s@@@Z 00000001800c409c     node_lame.obj
 0004:000000a8       $pdata$?node_lame_get_id3v1_tag@nodelame@@YAXAEBV?$FunctionCallbackInfo@VValue@v8@@@Nan@@@Z 00000001800c40a8     node_lame.obj
 0004:000000b4       $pdata$?node_lame_get_id3v2_tag@nodelame@@YAXAEBV?$FunctionCallbackInfo@VValue@v8@@@Nan@@@Z 00000001800c40b4     node_lame.obj
 0004:000000c0       $pdata$?node_lame_init_params@nodelame@@YAXAEBV?$FunctionCallbackInfo@VValue@v8@@@Nan@@@Z 00000001800c40c0     node_lame.obj
 0004:000000cc       $pdata$?node_lame_print_internals@nodelame@@YAXAEBV?$FunctionCallbackInfo@VValue@v8@@@Nan@@@Z 00000001800c40cc     node_lame.obj
 0004:000000d8       $pdata$?node_lame_print_config@nodelame@@YAXAEBV?$FunctionCallbackInfo@VValue@v8@@@Nan@@@Z 00000001800c40d8     node_lame.obj
 0004:000000e4       $pdata$?node_lame_bitrates@nodelame@@YAXAEBV?$FunctionCallbackInfo@VValue@v8@@@Nan@@@Z 00000001800c40e4     node_lame.obj
 0004:000000f0       $pdata$?node_lame_samplerates@nodelame@@YAXAEBV?$FunctionCallbackInfo@VValue@v8@@@Nan@@@Z 00000001800c40f0     node_lame.obj
 0004:000000fc       $pdata$?node_lame_get_num_samples@nodelame@@YAXAEBV?$FunctionCallbackInfo@VValue@v8@@@Nan@@@Z 00000001800c40fc     node_lame.obj
 0004:00000108       $pdata$?node_lame_set_num_samples@nodelame@@YAXAEBV?$FunctionCallbackInfo@VValue@v8@@@Nan@@@Z 00000001800c4108     node_lame.obj
 0004:00000114       $pdata$?node_lame_get_in_samplerate@nodelame@@YAXAEBV?$FunctionCallbackInfo@VValue@v8@@@Nan@@@Z 00000001800c4114     node_lame.obj
 0004:00000120       $pdata$?node_lame_set_in_samplerate@nodelame@@YAXAEBV?$FunctionCallbackInfo@VValue@v8@@@Nan@@@Z 00000001800c4120     node_lame.obj
 0004:0000012c       $pdata$?node_lame_get_num_channels@nodelame@@YAXAEBV?$FunctionCallbackInfo@VValue@v8@@@Nan@@@Z 00000001800c412c     node_lame.obj
 0004:00000138       $pdata$?node_lame_set_num_channels@nodelame@@YAXAEBV?$FunctionCallbackInfo@VValue@v8@@@Nan@@@Z 00000001800c4138     node_lame.obj
 0004:00000144       $pdata$?node_lame_get_scale@nodelame@@YAXAEBV?$FunctionCallbackInfo@VValue@v8@@@Nan@@@Z 00000001800c4144     node_lame.obj
 0004:00000150       $pdata$?node_lame_set_scale@nodelame@@YAXAEBV?$FunctionCallbackInfo@VValue@v8@@@Nan@@@Z 00000001800c4150     node_lame.obj
 0004:0000015c       $pdata$?node_lame_get_scale_left@nodelame@@YAXAEBV?$FunctionCallbackInfo@VValue@v8@@@Nan@@@Z 00000001800c415c     node_lame.obj
 0004:00000168       $pdata$?node_lame_set_scale_left@nodelame@@YAXAEBV?$FunctionCallbackInfo@VValue@v8@@@Nan@@@Z 00000001800c4168     node_lame.obj
 0004:00000174       $pdata$?node_lame_get_scale_right@nodelame@@YAXAEBV?$FunctionCallbackInfo@VValue@v8@@@Nan@@@Z 00000001800c4174     node_lame.obj
 0004:00000180       $pdata$?node_lame_set_scale_right@nodelame@@YAXAEBV?$FunctionCallbackInfo@VValue@v8@@@Nan@@@Z 00000001800c4180     node_lame.obj
 0004:0000018c       $pdata$?node_lame_get_out_samplerate@nodelame@@YAXAEBV?$FunctionCallbackInfo@VValue@v8@@@Nan@@@Z 00000001800c418c     node_lame.obj
 0004:00000198       $pdata$?node_lame_set_out_samplerate@nodelame@@YAXAEBV?$FunctionCallbackInfo@VValue@v8@@@Nan@@@Z 00000001800c4198     node_lame.obj
 0004:000001a4       $pdata$?node_lame_get_analysis@nodelame@@YAXAEBV?$FunctionCallbackInfo@VValue@v8@@@Nan@@@Z 00000001800c41a4     node_lame.obj
 0004:000001b0       $pdata$?node_lame_set_analysis@nodelame@@YAXAEBV?$FunctionCallbackInfo@VValue@v8@@@Nan@@@Z 00000001800c41b0     node_lame.obj
 0004:000001bc       $pdata$?node_lame_get_bWriteVbrTag@nodelame@@YAXAEBV?$FunctionCallbackInfo@VValue@v8@@@Nan@@@Z 00000001800c41bc     node_lame.obj
 0004:000001c8       $pdata$?node_lame_set_bWriteVbrTag@nodelame@@YAXAEBV?$FunctionCallbackInfo@VValue@v8@@@Nan@@@Z 00000001800c41c8     node_lame.obj
 0004:000001d4       $pdata$?node_lame_get_quality@nodelame@@YAXAEBV?$FunctionCallbackInfo@VValue@v8@@@Nan@@@Z 00000001800c41d4     node_lame.obj
 0004:000001e0       $pdata$?node_lame_set_quality@nodelame@@YAXAEBV?$FunctionCallbackInfo@VValue@v8@@@Nan@@@Z 00000001800c41e0     node_lame.obj
 0004:000001ec       $pdata$?node_lame_get_mode@nodelame@@YAXAEBV?$FunctionCallbackInfo@VValue@v8@@@Nan@@@Z 00000001800c41ec     node_lame.obj
 0004:000001f8       $pdata$?node_lame_set_mode@nodelame@@YAXAEBV?$FunctionCallbackInfo@VValue@v8@@@Nan@@@Z 00000001800c41f8     node_lame.obj
 0004:00000204       $pdata$?node_lame_get_brate@nodelame@@YAXAEBV?$FunctionCallbackInfo@VValue@v8@@@Nan@@@Z 00000001800c4204     node_lame.obj
 0004:00000210       $pdata$?node_lame_set_brate@nodelame@@YAXAEBV?$FunctionCallbackInfo@VValue@v8@@@Nan@@@Z 00000001800c4210     node_lame.obj
 0004:0000021c       $pdata$?node_lame_get_compression_ratio@nodelame@@YAXAEBV?$FunctionCallbackInfo@VValue@v8@@@Nan@@@Z 00000001800c421c     node_lame.obj
 0004:00000228       $pdata$?node_lame_set_compression_ratio@nodelame@@YAXAEBV?$FunctionCallbackInfo@VValue@v8@@@Nan@@@Z 00000001800c4228     node_lame.obj
 0004:00000234       $pdata$?node_lame_get_copyright@nodelame@@YAXAEBV?$FunctionCallbackInfo@VValue@v8@@@Nan@@@Z 00000001800c4234     node_lame.obj
 0004:00000240       $pdata$?node_lame_set_copyright@nodelame@@YAXAEBV?$FunctionCallbackInfo@VValue@v8@@@Nan@@@Z 00000001800c4240     node_lame.obj
 0004:0000024c       $pdata$?node_lame_get_original@nodelame@@YAXAEBV?$FunctionCallbackInfo@VValue@v8@@@Nan@@@Z 00000001800c424c     node_lame.obj
 0004:00000258       $pdata$?node_lame_set_original@nodelame@@YAXAEBV?$FunctionCallbackInfo@VValue@v8@@@Nan@@@Z 00000001800c4258     node_lame.obj
 0004:00000264       $pdata$?node_lame_get_error_protection@nodelame@@YAXAEBV?$FunctionCallbackInfo@VValue@v8@@@Nan@@@Z 00000001800c4264     node_lame.obj
 0004:00000270       $pdata$?node_lame_set_error_protection@nodelame@@YAXAEBV?$FunctionCallbackInfo@VValue@v8@@@Nan@@@Z 00000001800c4270     node_lame.obj
 0004:0000027c       $pdata$?node_lame_get_extension@nodelame@@YAXAEBV?$FunctionCallbackInfo@VValue@v8@@@Nan@@@Z 00000001800c427c     node_lame.obj
 0004:00000288       $pdata$?node_lame_set_extension@nodelame@@YAXAEBV?$FunctionCallbackInfo@VValue@v8@@@Nan@@@Z 00000001800c4288     node_lame.obj
 0004:00000294       $pdata$?node_lame_get_strict_ISO@nodelame@@YAXAEBV?$FunctionCallbackInfo@VValue@v8@@@Nan@@@Z 00000001800c4294     node_lame.obj
 0004:000002a0       $pdata$?node_lame_set_strict_ISO@nodelame@@YAXAEBV?$FunctionCallbackInfo@VValue@v8@@@Nan@@@Z 00000001800c42a0     node_lame.obj
 0004:000002ac       $pdata$?node_lame_get_disable_reservoir@nodelame@@YAXAEBV?$FunctionCallbackInfo@VValue@v8@@@Nan@@@Z 00000001800c42ac     node_lame.obj
 0004:000002b8       $pdata$?node_lame_set_disable_reservoir@nodelame@@YAXAEBV?$FunctionCallbackInfo@VValue@v8@@@Nan@@@Z 00000001800c42b8     node_lame.obj
 0004:000002c4       $pdata$?node_lame_get_quant_comp@nodelame@@YAXAEBV?$FunctionCallbackInfo@VValue@v8@@@Nan@@@Z 00000001800c42c4     node_lame.obj
 0004:000002d0       $pdata$?node_lame_set_quant_comp@nodelame@@YAXAEBV?$FunctionCallbackInfo@VValue@v8@@@Nan@@@Z 00000001800c42d0     node_lame.obj
 0004:000002dc       $pdata$?node_lame_get_quant_comp_short@nodelame@@YAXAEBV?$FunctionCallbackInfo@VValue@v8@@@Nan@@@Z 00000001800c42dc     node_lame.obj
 0004:000002e8       $pdata$?node_lame_set_quant_comp_short@nodelame@@YAXAEBV?$FunctionCallbackInfo@VValue@v8@@@Nan@@@Z 00000001800c42e8     node_lame.obj
 0004:000002f4       $pdata$?node_lame_get_exp_nspsytune@nodelame@@YAXAEBV?$FunctionCallbackInfo@VValue@v8@@@Nan@@@Z 00000001800c42f4     node_lame.obj
 0004:00000300       $pdata$?node_lame_set_exp_nspsytune@nodelame@@YAXAEBV?$FunctionCallbackInfo@VValue@v8@@@Nan@@@Z 00000001800c4300     node_lame.obj
 0004:0000030c       $pdata$?node_lame_get_VBR@nodelame@@YAXAEBV?$FunctionCallbackInfo@VValue@v8@@@Nan@@@Z 00000001800c430c     node_lame.obj
 0004:00000318       $pdata$?node_lame_set_VBR@nodelame@@YAXAEBV?$FunctionCallbackInfo@VValue@v8@@@Nan@@@Z 00000001800c4318     node_lame.obj
 0004:00000324       $pdata$?node_lame_get_VBR_q@nodelame@@YAXAEBV?$FunctionCallbackInfo@VValue@v8@@@Nan@@@Z 00000001800c4324     node_lame.obj
 0004:00000330       $pdata$?node_lame_set_VBR_q@nodelame@@YAXAEBV?$FunctionCallbackInfo@VValue@v8@@@Nan@@@Z 00000001800c4330     node_lame.obj
 0004:0000033c       $pdata$?node_lame_get_VBR_quality@nodelame@@YAXAEBV?$FunctionCallbackInfo@VValue@v8@@@Nan@@@Z 00000001800c433c     node_lame.obj
 0004:00000348       $pdata$?node_lame_set_VBR_quality@nodelame@@YAXAEBV?$FunctionCallbackInfo@VValue@v8@@@Nan@@@Z 00000001800c4348     node_lame.obj
 0004:00000354       $pdata$?node_lame_get_VBR_mean_bitrate_kbps@nodelame@@YAXAEBV?$FunctionCallbackInfo@VValue@v8@@@Nan@@@Z 00000001800c4354     node_lame.obj
 0004:00000360       $pdata$?node_lame_set_VBR_mean_bitrate_kbps@nodelame@@YAXAEBV?$FunctionCallbackInfo@VValue@v8@@@Nan@@@Z 00000001800c4360     node_lame.obj
 0004:0000036c       $pdata$?node_lame_get_VBR_min_bitrate_kbps@nodelame@@YAXAEBV?$FunctionCallbackInfo@VValue@v8@@@Nan@@@Z 00000001800c436c     node_lame.obj
 0004:00000378       $pdata$?node_lame_set_VBR_min_bitrate_kbps@nodelame@@YAXAEBV?$FunctionCallbackInfo@VValue@v8@@@Nan@@@Z 00000001800c4378     node_lame.obj
 0004:00000384       $pdata$?node_lame_get_VBR_max_bitrate_kbps@nodelame@@YAXAEBV?$FunctionCallbackInfo@VValue@v8@@@Nan@@@Z 00000001800c4384     node_lame.obj
 0004:00000390       $pdata$?node_lame_set_VBR_max_bitrate_kbps@nodelame@@YAXAEBV?$FunctionCallbackInfo@VValue@v8@@@Nan@@@Z 00000001800c4390     node_lame.obj
 0004:0000039c       $pdata$?node_lame_get_VBR_hard_min@nodelame@@YAXAEBV?$FunctionCallbackInfo@VValue@v8@@@Nan@@@Z 00000001800c439c     node_lame.obj
 0004:000003a8       $pdata$?node_lame_set_VBR_hard_min@nodelame@@YAXAEBV?$FunctionCallbackInfo@VValue@v8@@@Nan@@@Z 00000001800c43a8     node_lame.obj
 0004:000003b4       $pdata$?node_lame_get_lowpassfreq@nodelame@@YAXAEBV?$FunctionCallbackInfo@VValue@v8@@@Nan@@@Z 00000001800c43b4     node_lame.obj
 0004:000003c0       $pdata$?node_lame_set_lowpassfreq@nodelame@@YAXAEBV?$FunctionCallbackInfo@VValue@v8@@@Nan@@@Z 00000001800c43c0     node_lame.obj
 0004:000003cc       $pdata$?node_lame_get_lowpasswidth@nodelame@@YAXAEBV?$FunctionCallbackInfo@VValue@v8@@@Nan@@@Z 00000001800c43cc     node_lame.obj
 0004:000003d8       $pdata$?node_lame_set_lowpasswidth@nodelame@@YAXAEBV?$FunctionCallbackInfo@VValue@v8@@@Nan@@@Z 00000001800c43d8     node_lame.obj
 0004:000003e4       $pdata$?node_lame_get_highpassfreq@nodelame@@YAXAEBV?$FunctionCallbackInfo@VValue@v8@@@Nan@@@Z 00000001800c43e4     node_lame.obj
 0004:000003f0       $pdata$?node_lame_set_highpassfreq@nodelame@@YAXAEBV?$FunctionCallbackInfo@VValue@v8@@@Nan@@@Z 00000001800c43f0     node_lame.obj
 0004:000003fc       $pdata$?node_lame_get_highpasswidth@nodelame@@YAXAEBV?$FunctionCallbackInfo@VValue@v8@@@Nan@@@Z 00000001800c43fc     node_lame.obj
 0004:00000408       $pdata$?node_lame_set_highpasswidth@nodelame@@YAXAEBV?$FunctionCallbackInfo@VValue@v8@@@Nan@@@Z 00000001800c4408     node_lame.obj
 0004:00000414       $pdata$?InitLame@nodelame@@YAXV?$Local@VObject@v8@@@v8@@@Z 00000001800c4414     node_lame.obj
 0004:00000420       $pdata$??$SetMethod@VObject@v8@@VLocal@2@@Nan@@YAXV?$Local@VObject@v8@@@v8@@PEBDP6AXAEBV?$FunctionCallbackInfo@VValue@v8@@@0@@Z@Z 00000001800c4420     node_lame.obj
 0004:0000042c       $pdata$3$??$SetMethod@VObject@v8@@VLocal@2@@Nan@@YAXV?$Local@VObject@v8@@@v8@@PEBDP6AXAEBV?$FunctionCallbackInfo@VValue@v8@@@0@@Z@Z 00000001800c442c     node_lame.obj
 0004:00000438       $pdata$4$??$SetMethod@VObject@v8@@VLocal@2@@Nan@@YAXV?$Local@VObject@v8@@@v8@@PEBDP6AXAEBV?$FunctionCallbackInfo@VValue@v8@@@0@@Z@Z 00000001800c4438     node_lame.obj
 0004:00000444       $pdata$5$??$SetMethod@VObject@v8@@VLocal@2@@Nan@@YAXV?$Local@VObject@v8@@@v8@@PEBDP6AXAEBV?$FunctionCallbackInfo@VValue@v8@@@0@@Z@Z 00000001800c4444     node_lame.obj
 0004:00000450       $pdata$6$??$SetMethod@VObject@v8@@VLocal@2@@Nan@@YAXV?$Local@VObject@v8@@@v8@@PEBDP6AXAEBV?$FunctionCallbackInfo@VValue@v8@@@0@@Z@Z 00000001800c4450     node_lame.obj
 0004:0000045c       $pdata$??$SetMethodAux@V?$Local@VObject@v8@@@v8@@@imp@Nan@@YAXV?$Local@VObject@v8@@@v8@@V?$Local@VString@v8@@@3@V?$Local@VFunctionTemplate@v8@@@3@ZZ 00000001800c445c     node_lame.obj
 0004:00000468       $pdata$?node_mpg123_init@nodelame@@YAXAEBV?$FunctionCallbackInfo@VValue@v8@@@Nan@@@Z 00000001800c4468     node_mpg123.obj
 0004:00000474       $pdata$?node_mpg123_new@nodelame@@YAXAEBV?$FunctionCallbackInfo@VValue@v8@@@Nan@@@Z 00000001800c4474     node_mpg123.obj
 0004:00000480       $pdata$?node_mpg123_current_decoder@nodelame@@YAXAEBV?$FunctionCallbackInfo@VValue@v8@@@Nan@@@Z 00000001800c4480     node_mpg123.obj
 0004:0000048c       $pdata$?node_mpg123_decoders@nodelame@@YAXAEBV?$FunctionCallbackInfo@VValue@v8@@@Nan@@@Z 00000001800c448c     node_mpg123.obj
 0004:0000048c       $pdata$?node_mpg123_supported_decoders@nodelame@@YAXAEBV?$FunctionCallbackInfo@VValue@v8@@@Nan@@@Z 00000001800c448c     node_mpg123.obj
 0004:00000498       $pdata$3$?node_mpg123_decoders@nodelame@@YAXAEBV?$FunctionCallbackInfo@VValue@v8@@@Nan@@@Z 00000001800c4498     node_mpg123.obj
 0004:00000498       $pdata$3$?node_mpg123_supported_decoders@nodelame@@YAXAEBV?$FunctionCallbackInfo@VValue@v8@@@Nan@@@Z 00000001800c4498     node_mpg123.obj
 0004:000004a4       $pdata$5$?node_mpg123_decoders@nodelame@@YAXAEBV?$FunctionCallbackInfo@VValue@v8@@@Nan@@@Z 00000001800c44a4     node_mpg123.obj
 0004:000004a4       $pdata$5$?node_mpg123_supported_decoders@nodelame@@YAXAEBV?$FunctionCallbackInfo@VValue@v8@@@Nan@@@Z 00000001800c44a4     node_mpg123.obj
 0004:000004b0       $pdata$6$?node_mpg123_decoders@nodelame@@YAXAEBV?$FunctionCallbackInfo@VValue@v8@@@Nan@@@Z 00000001800c44b0     node_mpg123.obj
 0004:000004b0       $pdata$6$?node_mpg123_supported_decoders@nodelame@@YAXAEBV?$FunctionCallbackInfo@VValue@v8@@@Nan@@@Z 00000001800c44b0     node_mpg123.obj
 0004:000004bc       $pdata$7$?node_mpg123_supported_decoders@nodelame@@YAXAEBV?$FunctionCallbackInfo@VValue@v8@@@Nan@@@Z 00000001800c44bc     node_mpg123.obj
 0004:000004bc       $pdata$7$?node_mpg123_decoders@nodelame@@YAXAEBV?$FunctionCallbackInfo@VValue@v8@@@Nan@@@Z 00000001800c44bc     node_mpg123.obj
 0004:000004c8       $pdata$?node_mpg123_open_feed@nodelame@@YAXAEBV?$FunctionCallbackInfo@VValue@v8@@@Nan@@@Z 00000001800c44c8     node_mpg123.obj
 0004:000004d4       $pdata$?node_mpg123_getformat@nodelame@@YAXAEBV?$FunctionCallbackInfo@VValue@v8@@@Nan@@@Z 00000001800c44d4     node_mpg123.obj
 0004:000004e0       $pdata$1$?node_mpg123_getformat@nodelame@@YAXAEBV?$FunctionCallbackInfo@VValue@v8@@@Nan@@@Z 00000001800c44e0     node_mpg123.obj
 0004:000004ec       $pdata$3$?node_mpg123_getformat@nodelame@@YAXAEBV?$FunctionCallbackInfo@VValue@v8@@@Nan@@@Z 00000001800c44ec     node_mpg123.obj
 0004:000004f8       $pdata$6$?node_mpg123_getformat@nodelame@@YAXAEBV?$FunctionCallbackInfo@VValue@v8@@@Nan@@@Z 00000001800c44f8     node_mpg123.obj
 0004:00000504       $pdata$7$?node_mpg123_getformat@nodelame@@YAXAEBV?$FunctionCallbackInfo@VValue@v8@@@Nan@@@Z 00000001800c4504     node_mpg123.obj
 0004:00000510       $pdata$8$?node_mpg123_getformat@nodelame@@YAXAEBV?$FunctionCallbackInfo@VValue@v8@@@Nan@@@Z 00000001800c4510     node_mpg123.obj
 0004:0000051c       $pdata$9$?node_mpg123_getformat@nodelame@@YAXAEBV?$FunctionCallbackInfo@VValue@v8@@@Nan@@@Z 00000001800c451c     node_mpg123.obj
 0004:00000528       $pdata$10$?node_mpg123_getformat@nodelame@@YAXAEBV?$FunctionCallbackInfo@VValue@v8@@@Nan@@@Z 00000001800c4528     node_mpg123.obj
 0004:00000534       $pdata$?node_mpg123_safe_buffer@nodelame@@YAXAEBV?$FunctionCallbackInfo@VValue@v8@@@Nan@@@Z 00000001800c4534     node_mpg123.obj
 0004:00000540       $pdata$?node_mpg123_outblock@nodelame@@YAXAEBV?$FunctionCallbackInfo@VValue@v8@@@Nan@@@Z 00000001800c4540     node_mpg123.obj
 0004:0000054c       $pdata$?node_mpg123_framepos@nodelame@@YAXAEBV?$FunctionCallbackInfo@VValue@v8@@@Nan@@@Z 00000001800c454c     node_mpg123.obj
 0004:00000558       $pdata$?node_mpg123_tell@nodelame@@YAXAEBV?$FunctionCallbackInfo@VValue@v8@@@Nan@@@Z 00000001800c4558     node_mpg123.obj
 0004:00000564       $pdata$?node_mpg123_tellframe@nodelame@@YAXAEBV?$FunctionCallbackInfo@VValue@v8@@@Nan@@@Z 00000001800c4564     node_mpg123.obj
 0004:00000570       $pdata$?node_mpg123_tell_stream@nodelame@@YAXAEBV?$FunctionCallbackInfo@VValue@v8@@@Nan@@@Z 00000001800c4570     node_mpg123.obj
 0004:0000057c       $pdata$?node_mpg123_feed@nodelame@@YAXAEBV?$FunctionCallbackInfo@VValue@v8@@@Nan@@@Z 00000001800c457c     node_mpg123.obj
 0004:00000588       $pdata$?node_mpg123_feed_async@nodelame@@YAXPEAUuv_work_s@@@Z 00000001800c4588     node_mpg123.obj
 0004:00000594       $pdata$?node_mpg123_feed_after@nodelame@@YAXPEAUuv_work_s@@@Z 00000001800c4594     node_mpg123.obj
 0004:000005a0       $pdata$?node_mpg123_read@nodelame@@YAXAEBV?$FunctionCallbackInfo@VValue@v8@@@Nan@@@Z 00000001800c45a0     node_mpg123.obj
 0004:000005ac       $pdata$?node_mpg123_read_async@nodelame@@YAXPEAUuv_work_s@@@Z 00000001800c45ac     node_mpg123.obj
 0004:000005b8       $pdata$4$?node_mpg123_read_async@nodelame@@YAXPEAUuv_work_s@@@Z 00000001800c45b8     node_mpg123.obj
 0004:000005c4       $pdata$5$?node_mpg123_read_async@nodelame@@YAXPEAUuv_work_s@@@Z 00000001800c45c4     node_mpg123.obj
 0004:000005d0       $pdata$6$?node_mpg123_read_async@nodelame@@YAXPEAUuv_work_s@@@Z 00000001800c45d0     node_mpg123.obj
 0004:000005dc       $pdata$7$?node_mpg123_read_async@nodelame@@YAXPEAUuv_work_s@@@Z 00000001800c45dc     node_mpg123.obj
 0004:000005e8       $pdata$8$?node_mpg123_read_async@nodelame@@YAXPEAUuv_work_s@@@Z 00000001800c45e8     node_mpg123.obj
 0004:000005f4       $pdata$9$?node_mpg123_read_async@nodelame@@YAXPEAUuv_work_s@@@Z 00000001800c45f4     node_mpg123.obj
 0004:00000600       $pdata$?node_mpg123_read_after@nodelame@@YAXPEAUuv_work_s@@@Z 00000001800c4600     node_mpg123.obj
 0004:0000060c       $pdata$?node_mpg123_id3@nodelame@@YAXAEBV?$FunctionCallbackInfo@VValue@v8@@@Nan@@@Z 00000001800c460c     node_mpg123.obj
 0004:00000618       $pdata$?node_mpg123_id3_async@nodelame@@YAXPEAUuv_work_s@@@Z 00000001800c4618     node_mpg123.obj
 0004:00000624       $pdata$?node_mpg123_id3_after@nodelame@@YAXPEAUuv_work_s@@@Z 00000001800c4624     node_mpg123.obj
 0004:00000630       $pdata$0$?node_mpg123_id3_after@nodelame@@YAXPEAUuv_work_s@@@Z 00000001800c4630     node_mpg123.obj
 0004:0000063c       $pdata$6$?node_mpg123_id3_after@nodelame@@YAXPEAUuv_work_s@@@Z 00000001800c463c     node_mpg123.obj
 0004:00000648       $pdata$7$?node_mpg123_id3_after@nodelame@@YAXPEAUuv_work_s@@@Z 00000001800c4648     node_mpg123.obj
 0004:00000654       $pdata$8$?node_mpg123_id3_after@nodelame@@YAXPEAUuv_work_s@@@Z 00000001800c4654     node_mpg123.obj
 0004:00000660       $pdata$9$?node_mpg123_id3_after@nodelame@@YAXPEAUuv_work_s@@@Z 00000001800c4660     node_mpg123.obj
 0004:0000066c       $pdata$10$?node_mpg123_id3_after@nodelame@@YAXPEAUuv_work_s@@@Z 00000001800c466c     node_mpg123.obj
 0004:00000678       $pdata$?InitMPG123@nodelame@@YAXV?$Local@VObject@v8@@@v8@@@Z 00000001800c4678     node_mpg123.obj
 0004:00000684       $pdata$?load_exe_hook@@YAP6A_JXZIPEAUDelayLoadInfo@@@Z 00000001800c4684     win_delay_load_hook.obj
 0004:00000690       $pdata$lame_init_params_ppflt 00000001800c4690     libmp3lame:lame.obj
 0004:0000069c       $pdata$lame_init_params    00000001800c469c     libmp3lame:lame.obj
 0004:000006a8       $pdata$5$lame_init_params  00000001800c46a8     libmp3lame:lame.obj
 0004:000006b4       $pdata$6$lame_init_params  00000001800c46b4     libmp3lame:lame.obj
 0004:000006c0       $pdata$7$lame_init_params  00000001800c46c0     libmp3lame:lame.obj
 0004:000006cc       $pdata$lame_print_config   00000001800c46cc     libmp3lame:lame.obj
 0004:000006d8       $pdata$lame_print_internals 00000001800c46d8     libmp3lame:lame.obj
 0004:000006e4       $pdata$save_gain_values    00000001800c46e4     libmp3lame:lame.obj
 0004:000006f0       $pdata$lame_encode_buffer_sample_t 00000001800c46f0     libmp3lame:lame.obj
 0004:000006fc       $pdata$0$lame_encode_buffer_sample_t 00000001800c46fc     libmp3lame:lame.obj
 0004:00000708       $pdata$6$lame_encode_buffer_sample_t 00000001800c4708     libmp3lame:lame.obj
 0004:00000714       $pdata$7$lame_encode_buffer_sample_t 00000001800c4714     libmp3lame:lame.obj
 0004:00000720       $pdata$9$lame_encode_buffer_sample_t 00000001800c4720     libmp3lame:lame.obj
 0004:0000072c       $pdata$lame_copy_inbuffer  00000001800c472c     libmp3lame:lame.obj
 0004:00000738       $pdata$lame_encode_buffer_template 00000001800c4738     libmp3lame:lame.obj
 0004:00000744       $pdata$0$lame_encode_buffer_template 00000001800c4744     libmp3lame:lame.obj
 0004:00000750       $pdata$1$lame_encode_buffer_template 00000001800c4750     libmp3lame:lame.obj
 0004:0000075c       $pdata$2$lame_encode_buffer_template 00000001800c475c     libmp3lame:lame.obj
 0004:00000768       $pdata$4$lame_encode_buffer_template 00000001800c4768     libmp3lame:lame.obj
 0004:00000774       $pdata$5$lame_encode_buffer_template 00000001800c4774     libmp3lame:lame.obj
 0004:00000780       $pdata$lame_init_bitstream 00000001800c4780     libmp3lame:lame.obj
 0004:0000078c       $pdata$0$lame_init_bitstream 00000001800c478c     libmp3lame:lame.obj
 0004:00000798       $pdata$1$lame_init_bitstream 00000001800c4798     libmp3lame:lame.obj
 0004:000007a4       $pdata$3$lame_init_bitstream 00000001800c47a4     libmp3lame:lame.obj
 0004:000007b0       $pdata$4$lame_init_bitstream 00000001800c47b0     libmp3lame:lame.obj
 0004:000007bc       $pdata$5$lame_init_bitstream 00000001800c47bc     libmp3lame:lame.obj
 0004:000007c8       $pdata$6$lame_init_bitstream 00000001800c47c8     libmp3lame:lame.obj
 0004:000007d4       $pdata$7$lame_init_bitstream 00000001800c47d4     libmp3lame:lame.obj
 0004:000007e0       $pdata$9$lame_init_bitstream 00000001800c47e0     libmp3lame:lame.obj
 0004:000007ec       $pdata$10$lame_init_bitstream 00000001800c47ec     libmp3lame:lame.obj
 0004:000007f8       $pdata$lame_close          00000001800c47f8     libmp3lame:lame.obj
 0004:00000804       $pdata$lame_init           00000001800c4804     libmp3lame:lame.obj
 0004:00000810       $pdata$4$lame_init         00000001800c4810     libmp3lame:lame.obj
 0004:0000081c       $pdata$5$lame_init         00000001800c481c     libmp3lame:lame.obj
 0004:00000828       $pdata$6$lame_init         00000001800c4828     libmp3lame:lame.obj
 0004:00000834       $pdata$7$lame_init         00000001800c4834     libmp3lame:lame.obj
 0004:00000840       $pdata$sprintf             00000001800c4840     libmp3lame:id3tag.obj
 0004:0000084c       $pdata$local_strdup        00000001800c484c     libmp3lame:id3tag.obj
 0004:00000858       $pdata$id3v2_add_latin1    00000001800c4858     libmp3lame:id3tag.obj
 0004:00000864       $pdata$0$id3v2_add_latin1  00000001800c4864     libmp3lame:id3tag.obj
 0004:00000870       $pdata$2$id3v2_add_latin1  00000001800c4870     libmp3lame:id3tag.obj
 0004:0000087c       $pdata$3$id3v2_add_latin1  00000001800c487c     libmp3lame:id3tag.obj
 0004:00000888       $pdata$writeLoBytes        00000001800c4888     libmp3lame:id3tag.obj
 0004:00000894       $pdata$2$writeLoBytes      00000001800c4894     libmp3lame:id3tag.obj
 0004:000008a0       $pdata$4$writeLoBytes      00000001800c48a0     libmp3lame:id3tag.obj
 0004:000008ac       $pdata$5$writeLoBytes      00000001800c48ac     libmp3lame:id3tag.obj
 0004:000008b8       $pdata$set_frame_comment   00000001800c48b8     libmp3lame:id3tag.obj
 0004:000008c4       $pdata$0$set_frame_comment 00000001800c48c4     libmp3lame:id3tag.obj
 0004:000008d0       $pdata$2$set_frame_comment 00000001800c48d0     libmp3lame:id3tag.obj
 0004:000008dc       $pdata$3$set_frame_comment 00000001800c48dc     libmp3lame:id3tag.obj
 0004:000008e8       $pdata$set_frame_custom2   00000001800c48e8     libmp3lame:id3tag.obj
 0004:000008f4       $pdata$set_frame_wxxx      00000001800c48f4     libmp3lame:id3tag.obj
 0004:00000900       $pdata$lame_get_id3v2_tag  00000001800c4900     libmp3lame:id3tag.obj
 0004:0000090c       $pdata$lame_get_id3v1_tag  00000001800c490c     libmp3lame:id3tag.obj
 0004:00000918       $pdata$0$lame_get_id3v1_tag 00000001800c4918     libmp3lame:id3tag.obj
 0004:00000924       $pdata$2$lame_get_id3v1_tag 00000001800c4924     libmp3lame:id3tag.obj
 0004:00000930       $pdata$3$lame_get_id3v1_tag 00000001800c4930     libmp3lame:id3tag.obj
 0004:0000093c       $pdata$4$lame_get_id3v1_tag 00000001800c493c     libmp3lame:id3tag.obj
 0004:00000948       $pdata$putbits2            00000001800c4948     libmp3lame:bitstream.obj
 0004:00000954       $pdata$drain_into_ancillary 00000001800c4954     libmp3lame:bitstream.obj
 0004:00000960       $pdata$writeheader         00000001800c4960     libmp3lame:bitstream.obj
 0004:0000096c       $pdata$CRC_writeheader     00000001800c496c     libmp3lame:bitstream.obj
 0004:00000978       $pdata$encodeSideInfo2     00000001800c4978     libmp3lame:bitstream.obj
 0004:00000984       $pdata$1$encodeSideInfo2   00000001800c4984     libmp3lame:bitstream.obj
 0004:00000990       $pdata$2$encodeSideInfo2   00000001800c4990     libmp3lame:bitstream.obj
 0004:0000099c       $pdata$4$encodeSideInfo2   00000001800c499c     libmp3lame:bitstream.obj
 0004:000009a8       $pdata$6$encodeSideInfo2   00000001800c49a8     libmp3lame:bitstream.obj
 0004:000009b4       $pdata$7$encodeSideInfo2   00000001800c49b4     libmp3lame:bitstream.obj
 0004:000009c0       $pdata$8$encodeSideInfo2   00000001800c49c0     libmp3lame:bitstream.obj
 0004:000009cc       $pdata$9$encodeSideInfo2   00000001800c49cc     libmp3lame:bitstream.obj
 0004:000009d8       $pdata$huffman_coder_count1 00000001800c49d8     libmp3lame:bitstream.obj
 0004:000009e4       $pdata$3$huffman_coder_count1 00000001800c49e4     libmp3lame:bitstream.obj
 0004:000009f0       $pdata$4$huffman_coder_count1 00000001800c49f0     libmp3lame:bitstream.obj
 0004:000009fc       $pdata$Huffmancode         00000001800c49fc     libmp3lame:bitstream.obj
 0004:00000a08       $pdata$0$Huffmancode       00000001800c4a08     libmp3lame:bitstream.obj
 0004:00000a14       $pdata$5$Huffmancode       00000001800c4a14     libmp3lame:bitstream.obj
 0004:00000a20       $pdata$6$Huffmancode       00000001800c4a20     libmp3lame:bitstream.obj
 0004:00000a2c       $pdata$7$Huffmancode       00000001800c4a2c     libmp3lame:bitstream.obj
 0004:00000a38       $pdata$LongHuffmancodebits 00000001800c4a38     libmp3lame:bitstream.obj
 0004:00000a44       $pdata$writeMainData       00000001800c4a44     libmp3lame:bitstream.obj
 0004:00000a50       $pdata$0$writeMainData     00000001800c4a50     libmp3lame:bitstream.obj
 0004:00000a5c       $pdata$1$writeMainData     00000001800c4a5c     libmp3lame:bitstream.obj
 0004:00000a68       $pdata$compute_flushbits   00000001800c4a68     libmp3lame:bitstream.obj
 0004:00000a74       $pdata$add_dummy_byte      00000001800c4a74     libmp3lame:bitstream.obj
 0004:00000a80       $pdata$format_bitstream    00000001800c4a80     libmp3lame:bitstream.obj
 0004:00000a8c       $pdata$copy_buffer         00000001800c4a8c     libmp3lame:bitstream.obj
 0004:00000a98       $pdata$apply_vbr_preset    00000001800c4a98     libmp3lame:presets.obj
 0004:00000aa4       $pdata$apply_abr_preset    00000001800c4aa4     libmp3lame:presets.obj
 0004:00000ab0       $pdata$apply_preset        00000001800c4ab0     libmp3lame:presets.obj
 0004:00000abc       $pdata$convert_partition2scalefac 00000001800c4abc     libmp3lame:psymodel.obj
 0004:00000ac8       $pdata$2$convert_partition2scalefac 00000001800c4ac8     libmp3lame:psymodel.obj
 0004:00000ad4       $pdata$4$convert_partition2scalefac 00000001800c4ad4     libmp3lame:psymodel.obj
 0004:00000ae0       $pdata$5$convert_partition2scalefac 00000001800c4ae0     libmp3lame:psymodel.obj
 0004:00000aec       $pdata$6$convert_partition2scalefac 00000001800c4aec     libmp3lame:psymodel.obj
 0004:00000af8       $pdata$7$convert_partition2scalefac 00000001800c4af8     libmp3lame:psymodel.obj
 0004:00000b04       $pdata$8$convert_partition2scalefac 00000001800c4b04     libmp3lame:psymodel.obj
 0004:00000b10       $pdata$pecalc_s            00000001800c4b10     libmp3lame:psymodel.obj
 0004:00000b1c       $pdata$pecalc_l            00000001800c4b1c     libmp3lame:psymodel.obj
 0004:00000b28       $pdata$calc_mask_index_l   00000001800c4b28     libmp3lame:psymodel.obj
 0004:00000b34       $pdata$0$calc_mask_index_l 00000001800c4b34     libmp3lame:psymodel.obj
 0004:00000b40       $pdata$2$calc_mask_index_l 00000001800c4b40     libmp3lame:psymodel.obj
 0004:00000b4c       $pdata$3$calc_mask_index_l 00000001800c4b4c     libmp3lame:psymodel.obj
 0004:00000b58       $pdata$4$calc_mask_index_l 00000001800c4b58     libmp3lame:psymodel.obj
 0004:00000b64       $pdata$vbrpsy_compute_fft_l 00000001800c4b64     libmp3lame:psymodel.obj
 0004:00000b70       $pdata$0$vbrpsy_compute_fft_l 00000001800c4b70     libmp3lame:psymodel.obj
 0004:00000b7c       $pdata$1$vbrpsy_compute_fft_l 00000001800c4b7c     libmp3lame:psymodel.obj
 0004:00000b88       $pdata$vbrpsy_compute_fft_s 00000001800c4b88     libmp3lame:psymodel.obj
 0004:00000b94       $pdata$vbrpsy_attack_detection 00000001800c4b94     libmp3lame:psymodel.obj
 0004:00000ba0       $pdata$8$vbrpsy_attack_detection 00000001800c4ba0     libmp3lame:psymodel.obj
 0004:00000bac       $pdata$9$vbrpsy_attack_detection 00000001800c4bac     libmp3lame:psymodel.obj
 0004:00000bb8       $pdata$vbrpsy_calc_mask_index_s 00000001800c4bb8     libmp3lame:psymodel.obj
 0004:00000bc4       $pdata$1$vbrpsy_calc_mask_index_s 00000001800c4bc4     libmp3lame:psymodel.obj
 0004:00000bd0       $pdata$3$vbrpsy_calc_mask_index_s 00000001800c4bd0     libmp3lame:psymodel.obj
 0004:00000bdc       $pdata$4$vbrpsy_calc_mask_index_s 00000001800c4bdc     libmp3lame:psymodel.obj
 0004:00000be8       $pdata$5$vbrpsy_calc_mask_index_s 00000001800c4be8     libmp3lame:psymodel.obj
 0004:00000bf4       $pdata$vbrpsy_compute_masking_s 00000001800c4bf4     libmp3lame:psymodel.obj
 0004:00000c00       $pdata$6$vbrpsy_compute_masking_s 00000001800c4c00     libmp3lame:psymodel.obj
 0004:00000c0c       $pdata$11$vbrpsy_compute_masking_s 00000001800c4c0c     libmp3lame:psymodel.obj
 0004:00000c18       $pdata$12$vbrpsy_compute_masking_s 00000001800c4c18     libmp3lame:psymodel.obj
 0004:00000c24       $pdata$13$vbrpsy_compute_masking_s 00000001800c4c24     libmp3lame:psymodel.obj
 0004:00000c30       $pdata$14$vbrpsy_compute_masking_s 00000001800c4c30     libmp3lame:psymodel.obj
 0004:00000c3c       $pdata$vbrpsy_compute_masking_l 00000001800c4c3c     libmp3lame:psymodel.obj
 0004:00000c48       $pdata$5$vbrpsy_compute_masking_l 00000001800c4c48     libmp3lame:psymodel.obj
 0004:00000c54       $pdata$12$vbrpsy_compute_masking_l 00000001800c4c54     libmp3lame:psymodel.obj
 0004:00000c60       $pdata$13$vbrpsy_compute_masking_l 00000001800c4c60     libmp3lame:psymodel.obj
 0004:00000c6c       $pdata$14$vbrpsy_compute_masking_l 00000001800c4c6c     libmp3lame:psymodel.obj
 0004:00000c78       $pdata$15$vbrpsy_compute_masking_l 00000001800c4c78     libmp3lame:psymodel.obj
 0004:00000c84       $pdata$vbrpsy_compute_MS_thresholds 00000001800c4c84     libmp3lame:psymodel.obj
 0004:00000c90       $pdata$0$vbrpsy_compute_MS_thresholds 00000001800c4c90     libmp3lame:psymodel.obj
 0004:00000c9c       $pdata$1$vbrpsy_compute_MS_thresholds 00000001800c4c9c     libmp3lame:psymodel.obj
 0004:00000ca8       $pdata$L3psycho_anal_vbr   00000001800c4ca8     libmp3lame:psymodel.obj
 0004:00000cb4       $pdata$1$L3psycho_anal_vbr 00000001800c4cb4     libmp3lame:psymodel.obj
 0004:00000cc0       $pdata$2$L3psycho_anal_vbr 00000001800c4cc0     libmp3lame:psymodel.obj
 0004:00000ccc       $pdata$7$L3psycho_anal_vbr 00000001800c4ccc     libmp3lame:psymodel.obj
 0004:00000cd8       $pdata$8$L3psycho_anal_vbr 00000001800c4cd8     libmp3lame:psymodel.obj
 0004:00000ce4       $pdata$9$L3psycho_anal_vbr 00000001800c4ce4     libmp3lame:psymodel.obj
 0004:00000cf0       $pdata$init_numline        00000001800c4cf0     libmp3lame:psymodel.obj
 0004:00000cfc       $pdata$compute_bark_values 00000001800c4cfc     libmp3lame:psymodel.obj
 0004:00000d08       $pdata$10$compute_bark_values 00000001800c4d08     libmp3lame:psymodel.obj
 0004:00000d14       $pdata$11$compute_bark_values 00000001800c4d14     libmp3lame:psymodel.obj
 0004:00000d20       $pdata$init_s3_values      00000001800c4d20     libmp3lame:psymodel.obj
 0004:00000d2c       $pdata$5$init_s3_values    00000001800c4d2c     libmp3lame:psymodel.obj
 0004:00000d38       $pdata$14$init_s3_values   00000001800c4d38     libmp3lame:psymodel.obj
 0004:00000d44       $pdata$15$init_s3_values   00000001800c4d44     libmp3lame:psymodel.obj
 0004:00000d50       $pdata$16$init_s3_values   00000001800c4d50     libmp3lame:psymodel.obj
 0004:00000d5c       $pdata$psymodel_init       00000001800c4d5c     libmp3lame:psymodel.obj
 0004:00000d68       $pdata$5$psymodel_init     00000001800c4d68     libmp3lame:psymodel.obj
 0004:00000d74       $pdata$6$psymodel_init     00000001800c4d74     libmp3lame:psymodel.obj
 0004:00000d80       $pdata$12$psymodel_init    00000001800c4d80     libmp3lame:psymodel.obj
 0004:00000d8c       $pdata$13$psymodel_init    00000001800c4d8c     libmp3lame:psymodel.obj
 0004:00000d98       $pdata$14$psymodel_init    00000001800c4d98     libmp3lame:psymodel.obj
 0004:00000da4       $pdata$15$psymodel_init    00000001800c4da4     libmp3lame:psymodel.obj
 0004:00000db0       $pdata$free_id3tag         00000001800c4db0     libmp3lame:util.obj
 0004:00000dbc       $pdata$1$free_id3tag       00000001800c4dbc     libmp3lame:util.obj
 0004:00000dc8       $pdata$2$free_id3tag       00000001800c4dc8     libmp3lame:util.obj
 0004:00000dd4       $pdata$freegfc             00000001800c4dd4     libmp3lame:util.obj
 0004:00000de0       $pdata$ATHformula_GB       00000001800c4de0     libmp3lame:util.obj
 0004:00000dec       $pdata$ATHformula          00000001800c4dec     libmp3lame:util.obj
 0004:00000df8       $pdata$FindNearestBitrate  00000001800c4df8     libmp3lame:util.obj
 0004:00000e04       $pdata$nearestBitrateFullIndex 00000001800c4e04     libmp3lame:util.obj
 0004:00000e10       $pdata$fill_buffer_resample 00000001800c4e10     libmp3lame:util.obj
 0004:00000e1c       $pdata$2$fill_buffer_resample 00000001800c4e1c     libmp3lame:util.obj
 0004:00000e28       $pdata$5$fill_buffer_resample 00000001800c4e28     libmp3lame:util.obj
 0004:00000e34       $pdata$11$fill_buffer_resample 00000001800c4e34     libmp3lame:util.obj
 0004:00000e40       $pdata$12$fill_buffer_resample 00000001800c4e40     libmp3lame:util.obj
 0004:00000e4c       $pdata$13$fill_buffer_resample 00000001800c4e4c     libmp3lame:util.obj
 0004:00000e58       $pdata$14$fill_buffer_resample 00000001800c4e58     libmp3lame:util.obj
 0004:00000e64       $pdata$lame_report_def     00000001800c4e64     libmp3lame:util.obj
 0004:00000e70       $pdata$lame_msgf           00000001800c4e70     libmp3lame:util.obj
 0004:00000e7c       $pdata$lame_errorf         00000001800c4e7c     libmp3lame:util.obj
 0004:00000e88       $pdata$compute_ath         00000001800c4e88     libmp3lame:quantize_pvt.obj
 0004:00000e94       $pdata$iteration_init      00000001800c4e94     libmp3lame:quantize_pvt.obj
 0004:00000ea0       $pdata$7$iteration_init    00000001800c4ea0     libmp3lame:quantize_pvt.obj
 0004:00000eac       $pdata$9$iteration_init    00000001800c4eac     libmp3lame:quantize_pvt.obj
 0004:00000eb8       $pdata$10$iteration_init   00000001800c4eb8     libmp3lame:quantize_pvt.obj
 0004:00000ec4       $pdata$11$iteration_init   00000001800c4ec4     libmp3lame:quantize_pvt.obj
 0004:00000ed0       $pdata$12$iteration_init   00000001800c4ed0     libmp3lame:quantize_pvt.obj
 0004:00000edc       $pdata$on_pe               00000001800c4edc     libmp3lame:quantize_pvt.obj
 0004:00000ee8       $pdata$reduce_side         00000001800c4ee8     libmp3lame:quantize_pvt.obj
 0004:00000ef4       $pdata$athAdjust           00000001800c4ef4     libmp3lame:quantize_pvt.obj
 0004:00000f00       $pdata$calc_xmin           00000001800c4f00     libmp3lame:quantize_pvt.obj
 0004:00000f0c       $pdata$0$calc_xmin         00000001800c4f0c     libmp3lame:quantize_pvt.obj
 0004:00000f18       $pdata$1$calc_xmin         00000001800c4f18     libmp3lame:quantize_pvt.obj
 0004:00000f24       $pdata$calc_noise          00000001800c4f24     libmp3lame:quantize_pvt.obj
 0004:00000f30       $pdata$9$calc_noise        00000001800c4f30     libmp3lame:quantize_pvt.obj
 0004:00000f3c       $pdata$10$calc_noise       00000001800c4f3c     libmp3lame:quantize_pvt.obj
 0004:00000f48       $pdata$set_pinfo           00000001800c4f48     libmp3lame:quantize_pvt.obj
 0004:00000f54       $pdata$1$set_pinfo         00000001800c4f54     libmp3lame:quantize_pvt.obj
 0004:00000f60       $pdata$2$set_pinfo         00000001800c4f60     libmp3lame:quantize_pvt.obj
 0004:00000f6c       $pdata$setLameTagFrameHeader 00000001800c4f6c     libmp3lame:VbrTag.obj
 0004:00000f78       $pdata$init_xrpow_core_c   00000001800c4f78     libmp3lame:quantize.obj
 0004:00000f84       $pdata$4$init_xrpow_core_c 00000001800c4f84     libmp3lame:quantize.obj
 0004:00000f90       $pdata$5$init_xrpow_core_c 00000001800c4f90     libmp3lame:quantize.obj
 0004:00000f9c       $pdata$init_xrpow          00000001800c4f9c     libmp3lame:quantize.obj
 0004:00000fa8       $pdata$psfb21_analogsilence 00000001800c4fa8     libmp3lame:quantize.obj
 0004:00000fb4       $pdata$0$psfb21_analogsilence 00000001800c4fb4     libmp3lame:quantize.obj
 0004:00000fc0       $pdata$1$psfb21_analogsilence 00000001800c4fc0     libmp3lame:quantize.obj
 0004:00000fcc       $pdata$init_outer_loop     00000001800c4fcc     libmp3lame:quantize.obj
 0004:00000fd8       $pdata$0$init_outer_loop   00000001800c4fd8     libmp3lame:quantize.obj
 0004:00000fe4       $pdata$3$init_outer_loop   00000001800c4fe4     libmp3lame:quantize.obj
 0004:00000ff0       $pdata$4$init_outer_loop   00000001800c4ff0     libmp3lame:quantize.obj
 0004:00000ffc       $pdata$5$init_outer_loop   00000001800c4ffc     libmp3lame:quantize.obj
 0004:00001008       $pdata$6$init_outer_loop   00000001800c5008     libmp3lame:quantize.obj
 0004:00001014       $pdata$7$init_outer_loop   00000001800c5014     libmp3lame:quantize.obj
 0004:00001020       $pdata$8$init_outer_loop   00000001800c5020     libmp3lame:quantize.obj
 0004:0000102c       $pdata$trancate_smallspectrums 00000001800c502c     libmp3lame:quantize.obj
 0004:00001038       $pdata$10$trancate_smallspectrums 00000001800c5038     libmp3lame:quantize.obj
 0004:00001044       $pdata$12$trancate_smallspectrums 00000001800c5044     libmp3lame:quantize.obj
 0004:00001050       $pdata$13$trancate_smallspectrums 00000001800c5050     libmp3lame:quantize.obj
 0004:0000105c       $pdata$get_klemm_noise     00000001800c505c     libmp3lame:quantize.obj
 0004:00001068       $pdata$0$get_klemm_noise   00000001800c5068     libmp3lame:quantize.obj
 0004:00001074       $pdata$1$get_klemm_noise   00000001800c5074     libmp3lame:quantize.obj
 0004:00001080       $pdata$quant_compare       00000001800c5080     libmp3lame:quantize.obj
 0004:0000108c       $pdata$0$quant_compare     00000001800c508c     libmp3lame:quantize.obj
 0004:00001098       $pdata$1$quant_compare     00000001800c5098     libmp3lame:quantize.obj
 0004:000010a4       $pdata$2$quant_compare     00000001800c50a4     libmp3lame:quantize.obj
 0004:000010b0       $pdata$3$quant_compare     00000001800c50b0     libmp3lame:quantize.obj
 0004:000010bc       $pdata$amp_scalefac_bands  00000001800c50bc     libmp3lame:quantize.obj
 0004:000010c8       $pdata$inc_scalefac_scale  00000001800c50c8     libmp3lame:quantize.obj
 0004:000010d4       $pdata$0$inc_scalefac_scale 00000001800c50d4     libmp3lame:quantize.obj
 0004:000010e0       $pdata$1$inc_scalefac_scale 00000001800c50e0     libmp3lame:quantize.obj
 0004:000010ec       $pdata$inc_subblock_gain   00000001800c50ec     libmp3lame:quantize.obj
 0004:000010f8       $pdata$outer_loop          00000001800c50f8     libmp3lame:quantize.obj
 0004:00001104       $pdata$0$outer_loop        00000001800c5104     libmp3lame:quantize.obj
 0004:00001110       $pdata$1$outer_loop        00000001800c5110     libmp3lame:quantize.obj
 0004:0000111c       $pdata$VBR_old_prepare     00000001800c511c     libmp3lame:quantize.obj
 0004:00001128       $pdata$2$VBR_old_prepare   00000001800c5128     libmp3lame:quantize.obj
 0004:00001134       $pdata$12$VBR_old_prepare  00000001800c5134     libmp3lame:quantize.obj
 0004:00001140       $pdata$13$VBR_old_prepare  00000001800c5140     libmp3lame:quantize.obj
 0004:0000114c       $pdata$14$VBR_old_prepare  00000001800c514c     libmp3lame:quantize.obj
 0004:00001158       $pdata$bitpressure_strategy 00000001800c5158     libmp3lame:quantize.obj
 0004:00001164       $pdata$5$bitpressure_strategy 00000001800c5164     libmp3lame:quantize.obj
 0004:00001170       $pdata$6$bitpressure_strategy 00000001800c5170     libmp3lame:quantize.obj
 0004:0000117c       $pdata$VBR_old_iteration_loop 00000001800c517c     libmp3lame:quantize.obj
 0004:00001188       $pdata$VBR_new_prepare     00000001800c5188     libmp3lame:quantize.obj
 0004:00001194       $pdata$6$VBR_new_prepare   00000001800c5194     libmp3lame:quantize.obj
 0004:000011a0       $pdata$8$VBR_new_prepare   00000001800c51a0     libmp3lame:quantize.obj
 0004:000011ac       $pdata$9$VBR_new_prepare   00000001800c51ac     libmp3lame:quantize.obj
 0004:000011b8       $pdata$10$VBR_new_prepare  00000001800c51b8     libmp3lame:quantize.obj
 0004:000011c4       $pdata$11$VBR_new_prepare  00000001800c51c4     libmp3lame:quantize.obj
 0004:000011d0       $pdata$VBR_new_iteration_loop 00000001800c51d0     libmp3lame:quantize.obj
 0004:000011dc       $pdata$3$VBR_new_iteration_loop 00000001800c51dc     libmp3lame:quantize.obj
 0004:000011e8       $pdata$5$VBR_new_iteration_loop 00000001800c51e8     libmp3lame:quantize.obj
 0004:000011f4       $pdata$6$VBR_new_iteration_loop 00000001800c51f4     libmp3lame:quantize.obj
 0004:00001200       $pdata$7$VBR_new_iteration_loop 00000001800c5200     libmp3lame:quantize.obj
 0004:0000120c       $pdata$8$VBR_new_iteration_loop 00000001800c520c     libmp3lame:quantize.obj
 0004:00001218       $pdata$calc_target_bits    00000001800c5218     libmp3lame:quantize.obj
 0004:00001224       $pdata$ABR_iteration_loop  00000001800c5224     libmp3lame:quantize.obj
 0004:00001230       $pdata$1$ABR_iteration_loop 00000001800c5230     libmp3lame:quantize.obj
 0004:0000123c       $pdata$10$ABR_iteration_loop 00000001800c523c     libmp3lame:quantize.obj
 0004:00001248       $pdata$11$ABR_iteration_loop 00000001800c5248     libmp3lame:quantize.obj
 0004:00001254       $pdata$12$ABR_iteration_loop 00000001800c5254     libmp3lame:quantize.obj
 0004:00001260       $pdata$CBR_iteration_loop  00000001800c5260     libmp3lame:quantize.obj
 0004:0000126c       $pdata$4$CBR_iteration_loop 00000001800c526c     libmp3lame:quantize.obj
 0004:00001278       $pdata$13$CBR_iteration_loop 00000001800c5278     libmp3lame:quantize.obj
 0004:00001284       $pdata$14$CBR_iteration_loop 00000001800c5284     libmp3lame:quantize.obj
 0004:00001290       $pdata$15$CBR_iteration_loop 00000001800c5290     libmp3lame:quantize.obj
 0004:0000129c       $pdata$ResetSampleFrequency 00000001800c529c     libmp3lame:gain_analysis.obj
 0004:000012a8       $pdata$AnalyzeSamples      00000001800c52a8     libmp3lame:gain_analysis.obj
 0004:000012b4       $pdata$GetTitleGain        00000001800c52b4     libmp3lame:gain_analysis.obj
 0004:000012c0       $pdata$lame_encode_frame_init 00000001800c52c0     libmp3lame:encoder.obj
 0004:000012cc       $pdata$0$lame_encode_frame_init 00000001800c52cc     libmp3lame:encoder.obj
 0004:000012d8       $pdata$2$lame_encode_frame_init 00000001800c52d8     libmp3lame:encoder.obj
 0004:000012e4       $pdata$3$lame_encode_frame_init 00000001800c52e4     libmp3lame:encoder.obj
 0004:000012f0       $pdata$4$lame_encode_frame_init 00000001800c52f0     libmp3lame:encoder.obj
 0004:000012fc       $pdata$lame_encode_mp3_frame 00000001800c52fc     libmp3lame:encoder.obj
 0004:00001308       $pdata$13$lame_encode_mp3_frame 00000001800c5308     libmp3lame:encoder.obj
 0004:00001314       $pdata$14$lame_encode_mp3_frame 00000001800c5314     libmp3lame:encoder.obj
 0004:00001320       $pdata$quantize_lines_xrpow 00000001800c5320     libmp3lame:takehiro.obj
 0004:0000132c       $pdata$quantize_xrpow      00000001800c532c     libmp3lame:takehiro.obj
 0004:00001338       $pdata$count_bit_noESC_from2 00000001800c5338     libmp3lame:takehiro.obj
 0004:00001344       $pdata$count_bit_noESC_from3 00000001800c5344     libmp3lame:takehiro.obj
 0004:00001350       $pdata$choose_table_nonMMX 00000001800c5350     libmp3lame:takehiro.obj
 0004:0000135c       $pdata$0$choose_table_nonMMX 00000001800c535c     libmp3lame:takehiro.obj
 0004:00001368       $pdata$1$choose_table_nonMMX 00000001800c5368     libmp3lame:takehiro.obj
 0004:00001374       $pdata$noquant_count_bits  00000001800c5374     libmp3lame:takehiro.obj
 0004:00001380       $pdata$count_bits          00000001800c5380     libmp3lame:takehiro.obj
 0004:0000138c       $pdata$0$count_bits        00000001800c538c     libmp3lame:takehiro.obj
 0004:00001398       $pdata$2$count_bits        00000001800c5398     libmp3lame:takehiro.obj
 0004:000013a4       $pdata$3$count_bits        00000001800c53a4     libmp3lame:takehiro.obj
 0004:000013b0       $pdata$4$count_bits        00000001800c53b0     libmp3lame:takehiro.obj
 0004:000013bc       $pdata$best_huffman_divide 00000001800c53bc     libmp3lame:takehiro.obj
 0004:000013c8       $pdata$2$best_huffman_divide 00000001800c53c8     libmp3lame:takehiro.obj
 0004:000013d4       $pdata$3$best_huffman_divide 00000001800c53d4     libmp3lame:takehiro.obj
 0004:000013e0       $pdata$scfsi_calc          00000001800c53e0     libmp3lame:takehiro.obj
 0004:000013ec       $pdata$best_scalefac_store 00000001800c53ec     libmp3lame:takehiro.obj
 0004:000013f8       $pdata$mpeg1_scale_bitcount 00000001800c53f8     libmp3lame:takehiro.obj
 0004:00001404       $pdata$1$mpeg1_scale_bitcount 00000001800c5404     libmp3lame:takehiro.obj
 0004:00001410       $pdata$2$mpeg1_scale_bitcount 00000001800c5410     libmp3lame:takehiro.obj
 0004:0000141c       $pdata$3$mpeg1_scale_bitcount 00000001800c541c     libmp3lame:takehiro.obj
 0004:00001428       $pdata$4$mpeg1_scale_bitcount 00000001800c5428     libmp3lame:takehiro.obj
 0004:00001434       $pdata$mpeg2_scale_bitcount 00000001800c5434     libmp3lame:takehiro.obj
 0004:00001440       $pdata$0$mpeg2_scale_bitcount 00000001800c5440     libmp3lame:takehiro.obj
 0004:0000144c       $pdata$1$mpeg2_scale_bitcount 00000001800c544c     libmp3lame:takehiro.obj
 0004:00001458       $pdata$fht                 00000001800c5458     libmp3lame:fft.obj
 0004:00001464       $pdata$fft_short           00000001800c5464     libmp3lame:fft.obj
 0004:00001470       $pdata$init_fft            00000001800c5470     libmp3lame:fft.obj
 0004:0000147c       $pdata$ResvFrameBegin      00000001800c547c     libmp3lame:reservoir.obj
 0004:00001488       $pdata$calc_sfb_noise_x34  00000001800c5488     libmp3lame:vbrquantize.obj
 0004:00001494       $pdata$1$calc_sfb_noise_x34 00000001800c5494     libmp3lame:vbrquantize.obj
 0004:000014a0       $pdata$2$calc_sfb_noise_x34 00000001800c54a0     libmp3lame:vbrquantize.obj
 0004:000014ac       $pdata$guess_scalefac_x34  00000001800c54ac     libmp3lame:vbrquantize.obj
 0004:000014b8       $pdata$find_scalefac_x34   00000001800c54b8     libmp3lame:vbrquantize.obj
 0004:000014c4       $pdata$block_sf            00000001800c54c4     libmp3lame:vbrquantize.obj
 0004:000014d0       $pdata$quantize_x34        00000001800c54d0     libmp3lame:vbrquantize.obj
 0004:000014dc       $pdata$set_subblock_gain   00000001800c54dc     libmp3lame:vbrquantize.obj
 0004:000014e8       $pdata$set_scalefacs       00000001800c54e8     libmp3lame:vbrquantize.obj
 0004:000014f4       $pdata$short_block_constrain 00000001800c54f4     libmp3lame:vbrquantize.obj
 0004:00001500       $pdata$0$short_block_constrain 00000001800c5500     libmp3lame:vbrquantize.obj
 0004:0000150c       $pdata$3$short_block_constrain 00000001800c550c     libmp3lame:vbrquantize.obj
 0004:00001518       $pdata$4$short_block_constrain 00000001800c5518     libmp3lame:vbrquantize.obj
 0004:00001524       $pdata$11$short_block_constrain 00000001800c5524     libmp3lame:vbrquantize.obj
 0004:00001530       $pdata$12$short_block_constrain 00000001800c5530     libmp3lame:vbrquantize.obj
 0004:0000153c       $pdata$13$short_block_constrain 00000001800c553c     libmp3lame:vbrquantize.obj
 0004:00001548       $pdata$14$short_block_constrain 00000001800c5548     libmp3lame:vbrquantize.obj
 0004:00001554       $pdata$15$short_block_constrain 00000001800c5554     libmp3lame:vbrquantize.obj
 0004:00001560       $pdata$16$short_block_constrain 00000001800c5560     libmp3lame:vbrquantize.obj
 0004:0000156c       $pdata$17$short_block_constrain 00000001800c556c     libmp3lame:vbrquantize.obj
 0004:00001578       $pdata$long_block_constrain 00000001800c5578     libmp3lame:vbrquantize.obj
 0004:00001584       $pdata$5$long_block_constrain 00000001800c5584     libmp3lame:vbrquantize.obj
 0004:00001590       $pdata$6$long_block_constrain 00000001800c5590     libmp3lame:vbrquantize.obj
 0004:0000159c       $pdata$15$long_block_constrain 00000001800c559c     libmp3lame:vbrquantize.obj
 0004:000015a8       $pdata$16$long_block_constrain 00000001800c55a8     libmp3lame:vbrquantize.obj
 0004:000015b4       $pdata$17$long_block_constrain 00000001800c55b4     libmp3lame:vbrquantize.obj
 0004:000015c0       $pdata$18$long_block_constrain 00000001800c55c0     libmp3lame:vbrquantize.obj
 0004:000015cc       $pdata$19$long_block_constrain 00000001800c55cc     libmp3lame:vbrquantize.obj
 0004:000015d8       $pdata$tryGlobalStepsize   00000001800c55d8     libmp3lame:vbrquantize.obj
 0004:000015e4       $pdata$3$tryGlobalStepsize 00000001800c55e4     libmp3lame:vbrquantize.obj
 0004:000015f0       $pdata$4$tryGlobalStepsize 00000001800c55f0     libmp3lame:vbrquantize.obj
 0004:000015fc       $pdata$5$tryGlobalStepsize 00000001800c55fc     libmp3lame:vbrquantize.obj
 0004:00001608       $pdata$6$tryGlobalStepsize 00000001800c5608     libmp3lame:vbrquantize.obj
 0004:00001614       $pdata$searchGlobalStepsizeMax 00000001800c5614     libmp3lame:vbrquantize.obj
 0004:00001620       $pdata$flattenDistribution 00000001800c5620     libmp3lame:vbrquantize.obj
 0004:0000162c       $pdata$1$flattenDistribution 00000001800c562c     libmp3lame:vbrquantize.obj
 0004:00001638       $pdata$2$flattenDistribution 00000001800c5638     libmp3lame:vbrquantize.obj
 0004:00001644       $pdata$outOfBitsStrategy   00000001800c5644     libmp3lame:vbrquantize.obj
 0004:00001650       $pdata$VBR_encode_frame    00000001800c5650     libmp3lame:vbrquantize.obj
 0004:0000165c       $pdata$1$VBR_encode_frame  00000001800c565c     libmp3lame:vbrquantize.obj
 0004:00001668       $pdata$2$VBR_encode_frame  00000001800c5668     libmp3lame:vbrquantize.obj
 0004:00001674       $pdata$3$VBR_encode_frame  00000001800c5674     libmp3lame:vbrquantize.obj
 0004:00001680       $pdata$4$VBR_encode_frame  00000001800c5680     libmp3lame:vbrquantize.obj
 0004:0000168c       $pdata$window_subband      00000001800c568c     libmp3lame:newmdct.obj
 0004:00001698       $pdata$mdct_short          00000001800c5698     libmp3lame:newmdct.obj
 0004:000016a4       $pdata$mdct_long           00000001800c56a4     libmp3lame:newmdct.obj
 0004:000016b0       $pdata$mdct_sub48          00000001800c56b0     libmp3lame:newmdct.obj
 0004:000016bc       $pdata$12$mdct_sub48       00000001800c56bc     libmp3lame:newmdct.obj
 0004:000016c8       $pdata$13$mdct_sub48       00000001800c56c8     libmp3lame:newmdct.obj
 0004:000016d4       $pdata$fprintf             00000001800c56d4     libmpg123:libmpg123.obj
 0004:000016e0       $pdata$frame_buffercheck   00000001800c56e0     libmpg123:libmpg123.obj
 0004:000016ec       $pdata$0$frame_buffercheck 00000001800c56ec     libmpg123:libmpg123.obj
 0004:000016f8       $pdata$1$frame_buffercheck 00000001800c56f8     libmpg123:libmpg123.obj
 0004:00001704       $pdata$2$frame_buffercheck 00000001800c5704     libmpg123:libmpg123.obj
 0004:00001710       $pdata$3$frame_buffercheck 00000001800c5710     libmpg123:libmpg123.obj
 0004:0000171c       $pdata$4$frame_buffercheck 00000001800c571c     libmpg123:libmpg123.obj
 0004:00001728       $pdata$5$frame_buffercheck 00000001800c5728     libmpg123:libmpg123.obj
 0004:00001734       $pdata$mpg123_init         00000001800c5734     libmpg123:libmpg123.obj
 0004:00001740       $pdata$13$mpg123_init      00000001800c5740     libmpg123:libmpg123.obj
 0004:0000174c       $pdata$14$mpg123_init      00000001800c574c     libmpg123:libmpg123.obj
 0004:00001758       $pdata$INT123_decode_update 00000001800c5758     libmpg123:libmpg123.obj
 0004:00001764       $pdata$get_next_frame      00000001800c5764     libmpg123:libmpg123.obj
 0004:00001770       $pdata$decode_the_frame    00000001800c5770     libmpg123:libmpg123.obj
 0004:0000177c       $pdata$mpg123_feed         00000001800c577c     libmpg123:libmpg123.obj
 0004:00001788       $pdata$mpg123_tell         00000001800c5788     libmpg123:libmpg123.obj
 0004:00001794       $pdata$0$mpg123_tell       00000001800c5794     libmpg123:libmpg123.obj
 0004:000017a0       $pdata$1$mpg123_tell       00000001800c57a0     libmpg123:libmpg123.obj
 0004:000017ac       $pdata$mpg123_id3          00000001800c57ac     libmpg123:libmpg123.obj
 0004:000017b8       $pdata$0$mpg123_id3        00000001800c57b8     libmpg123:libmpg123.obj
 0004:000017c4       $pdata$3$mpg123_id3        00000001800c57c4     libmpg123:libmpg123.obj
 0004:000017d0       $pdata$4$mpg123_id3        00000001800c57d0     libmpg123:libmpg123.obj
 0004:000017dc       $pdata$5$mpg123_id3        00000001800c57dc     libmpg123:libmpg123.obj
 0004:000017e8       $pdata$mpg123_close        00000001800c57e8     libmpg123:libmpg123.obj
 0004:000017f4       $pdata$mpg123_resize_string 00000001800c57f4     libmpg123:stringbuf.obj
 0004:00001800       $pdata$synth_stereo_wrap   00000001800c5800     libmpg123:optimize.obj
 0004:0000180c       $pdata$INT123_set_synth_functions 00000001800c580c     libmpg123:optimize.obj
 0004:00001818       $pdata$0$INT123_set_synth_functions 00000001800c5818     libmpg123:optimize.obj
 0004:00001824       $pdata$1$INT123_set_synth_functions 00000001800c5824     libmpg123:optimize.obj
 0004:00001830       $pdata$INT123_frame_cpu_opt 00000001800c5830     libmpg123:optimize.obj
 0004:0000183c       $pdata$frame_default_pars  00000001800c583c     libmpg123:frame.obj
 0004:00001848       $pdata$INT123_frame_init_par 00000001800c5848     libmpg123:frame.obj
 0004:00001854       $pdata$INT123_frame_outbuffer 00000001800c5854     libmpg123:frame.obj
 0004:00001860       $pdata$INT123_frame_buffers 00000001800c5860     libmpg123:frame.obj
 0004:0000186c       $pdata$INT123_frame_buffers_reset 00000001800c586c     libmpg123:frame.obj
 0004:00001878       $pdata$frame_fixed_reset   00000001800c5878     libmpg123:frame.obj
 0004:00001884       $pdata$INT123_frame_exit   00000001800c5884     libmpg123:frame.obj
 0004:00001890       $pdata$0$INT123_frame_exit 00000001800c5890     libmpg123:frame.obj
 0004:0000189c       $pdata$1$INT123_frame_exit 00000001800c589c     libmpg123:frame.obj
 0004:000018a8       $pdata$frame_fuzzy_find    00000001800c58a8     libmpg123:frame.obj
 0004:000018b4       $pdata$INT123_frame_index_find 00000001800c58b4     libmpg123:frame.obj
 0004:000018c0       $pdata$INT123_frame_ins2outs 00000001800c58c0     libmpg123:frame.obj
 0004:000018cc       $pdata$INT123_frame_outs   00000001800c58cc     libmpg123:frame.obj
 0004:000018d8       $pdata$0$INT123_frame_outs 00000001800c58d8     libmpg123:frame.obj
 0004:000018e4       $pdata$1$INT123_frame_outs 00000001800c58e4     libmpg123:frame.obj
 0004:000018f0       $pdata$INT123_frame_offset 00000001800c58f0     libmpg123:frame.obj
 0004:000018fc       $pdata$1$INT123_frame_offset 00000001800c58fc     libmpg123:frame.obj
 0004:00001908       $pdata$2$INT123_frame_offset 00000001800c5908     libmpg123:frame.obj
 0004:00001914       $pdata$INT123_frame_gapless_realinit 00000001800c5914     libmpg123:frame.obj
 0004:00001920       $pdata$INT123_frame_set_frameseek 00000001800c5920     libmpg123:frame.obj
 0004:0000192c       $pdata$INT123_do_rva       00000001800c592c     libmpg123:frame.obj
 0004:00001938       $pdata$INT123_fi_resize    00000001800c5938     libmpg123:index.obj
 0004:00001944       $pdata$free_id3_text       00000001800c5944     libmpg123:id3.obj
 0004:00001950       $pdata$1$free_id3_text     00000001800c5950     libmpg123:id3.obj
 0004:0000195c       $pdata$2$free_id3_text     00000001800c595c     libmpg123:id3.obj
 0004:00001968       $pdata$add_id3_text        00000001800c5968     libmpg123:id3.obj
 0004:00001974       $pdata$store_id3_text      00000001800c5974     libmpg123:id3.obj
 0004:00001980       $pdata$INT123_id3_to_utf8  00000001800c5980     libmpg123:id3.obj
 0004:0000198c       $pdata$process_comment     00000001800c598c     libmpg123:id3.obj
 0004:00001998       $pdata$0$process_comment   00000001800c5998     libmpg123:id3.obj
 0004:000019a4       $pdata$1$process_comment   00000001800c59a4     libmpg123:id3.obj
 0004:000019b0       $pdata$2$process_comment   00000001800c59b0     libmpg123:id3.obj
 0004:000019bc       $pdata$3$process_comment   00000001800c59bc     libmpg123:id3.obj
 0004:000019c8       $pdata$process_extra       00000001800c59c8     libmpg123:id3.obj
 0004:000019d4       $pdata$1$process_extra     00000001800c59d4     libmpg123:id3.obj
 0004:000019e0       $pdata$2$process_extra     00000001800c59e0     libmpg123:id3.obj
 0004:000019ec       $pdata$3$process_extra     00000001800c59ec     libmpg123:id3.obj
 0004:000019f8       $pdata$4$process_extra     00000001800c59f8     libmpg123:id3.obj
 0004:00001a04       $pdata$5$process_extra     00000001800c5a04     libmpg123:id3.obj
 0004:00001a10       $pdata$6$process_extra     00000001800c5a10     libmpg123:id3.obj
 0004:00001a1c       $pdata$promote_framename   00000001800c5a1c     libmpg123:id3.obj
 0004:00001a28       $pdata$INT123_parse_new_id3 00000001800c5a28     libmpg123:id3.obj
 0004:00001a34       $pdata$0$INT123_parse_new_id3 00000001800c5a34     libmpg123:id3.obj
 0004:00001a40       $pdata$1$INT123_parse_new_id3 00000001800c5a40     libmpg123:id3.obj
 0004:00001a4c       $pdata$3$INT123_parse_new_id3 00000001800c5a4c     libmpg123:id3.obj
 0004:00001a58       $pdata$4$INT123_parse_new_id3 00000001800c5a58     libmpg123:id3.obj
 0004:00001a64       $pdata$5$INT123_parse_new_id3 00000001800c5a64     libmpg123:id3.obj
 0004:00001a70       $pdata$6$INT123_parse_new_id3 00000001800c5a70     libmpg123:id3.obj
 0004:00001a7c       $pdata$7$INT123_parse_new_id3 00000001800c5a7c     libmpg123:id3.obj
 0004:00001a88       $pdata$9$INT123_parse_new_id3 00000001800c5a88     libmpg123:id3.obj
 0004:00001a94       $pdata$10$INT123_parse_new_id3 00000001800c5a94     libmpg123:id3.obj
 0004:00001aa0       $pdata$convert_latin1      00000001800c5aa0     libmpg123:id3.obj
 0004:00001aac       $pdata$check_bom           00000001800c5aac     libmpg123:id3.obj
 0004:00001ab8       $pdata$convert_utf16bom    00000001800c5ab8     libmpg123:id3.obj
 0004:00001ac4       $pdata$convert_utf8        00000001800c5ac4     libmpg123:id3.obj
 0004:00001ad0       $pdata$cap_fit             00000001800c5ad0     libmpg123:format.obj
 0004:00001adc       $pdata$freq_fit            00000001800c5adc     libmpg123:format.obj
 0004:00001ae8       $pdata$INT123_frame_output_format 00000001800c5ae8     libmpg123:format.obj
 0004:00001af4       $pdata$mpg123_fmt_all      00000001800c5af4     libmpg123:format.obj
 0004:00001b00       $pdata$posix_read          00000001800c5b00     libmpg123:readers.obj
 0004:00001b0c       $pdata$icy_fullread        00000001800c5b0c     libmpg123:readers.obj
 0004:00001b18       $pdata$plain_fullread      00000001800c5b18     libmpg123:readers.obj
 0004:00001b24       $pdata$stream_close        00000001800c5b24     libmpg123:readers.obj
 0004:00001b30       $pdata$stream_seek_frame   00000001800c5b30     libmpg123:readers.obj
 0004:00001b3c       $pdata$generic_head_read   00000001800c5b3c     libmpg123:readers.obj
 0004:00001b48       $pdata$generic_head_shift  00000001800c5b48     libmpg123:readers.obj
 0004:00001b54       $pdata$stream_skip_bytes   00000001800c5b54     libmpg123:readers.obj
 0004:00001b60       $pdata$stream_back_bytes   00000001800c5b60     libmpg123:readers.obj
 0004:00001b6c       $pdata$generic_read_frame_body 00000001800c5b6c     libmpg123:readers.obj
 0004:00001b78       $pdata$stream_rewind       00000001800c5b78     libmpg123:readers.obj
 0004:00001b84       $pdata$buffy_new           00000001800c5b84     libmpg123:readers.obj
 0004:00001b90       $pdata$bc_fill_pool        00000001800c5b90     libmpg123:readers.obj
 0004:00001b9c       $pdata$bc_reset            00000001800c5b9c     libmpg123:readers.obj
 0004:00001ba8       $pdata$bc_add              00000001800c5ba8     libmpg123:readers.obj
 0004:00001bb4       $pdata$0$bc_add            00000001800c5bb4     libmpg123:readers.obj
 0004:00001bc0       $pdata$1$bc_add            00000001800c5bc0     libmpg123:readers.obj
 0004:00001bcc       $pdata$2$bc_add            00000001800c5bcc     libmpg123:readers.obj
 0004:00001bd8       $pdata$3$bc_add            00000001800c5bd8     libmpg123:readers.obj
 0004:00001be4       $pdata$bc_give             00000001800c5be4     libmpg123:readers.obj
 0004:00001bf0       $pdata$0$bc_give           00000001800c5bf0     libmpg123:readers.obj
 0004:00001bfc       $pdata$1$bc_give           00000001800c5bfc     libmpg123:readers.obj
 0004:00001c08       $pdata$feed_init           00000001800c5c08     libmpg123:readers.obj
 0004:00001c14       $pdata$feed_read           00000001800c5c14     libmpg123:readers.obj
 0004:00001c20       $pdata$buffered_forget     00000001800c5c20     libmpg123:readers.obj
 0004:00001c2c       $pdata$1$buffered_forget   00000001800c5c2c     libmpg123:readers.obj
 0004:00001c38       $pdata$2$buffered_forget   00000001800c5c38     libmpg123:readers.obj
 0004:00001c44       $pdata$buffered_fullread   00000001800c5c44     libmpg123:readers.obj
 0004:00001c50       $pdata$default_init        00000001800c5c50     libmpg123:readers.obj
 0004:00001c5c       $pdata$1$default_init      00000001800c5c5c     libmpg123:readers.obj
 0004:00001c68       $pdata$2$default_init      00000001800c5c68     libmpg123:readers.obj
 0004:00001c74       $pdata$INT123_init_layer12_table 00000001800c5c74     libmpg123:layer2.obj
 0004:00001c80       $pdata$II_step_one         00000001800c5c80     libmpg123:layer2.obj
 0004:00001c8c       $pdata$1$II_step_one       00000001800c5c8c     libmpg123:layer2.obj
 0004:00001c98       $pdata$2$II_step_one       00000001800c5c98     libmpg123:layer2.obj
 0004:00001ca4       $pdata$3$II_step_one       00000001800c5ca4     libmpg123:layer2.obj
 0004:00001cb0       $pdata$4$II_step_one       00000001800c5cb0     libmpg123:layer2.obj
 0004:00001cbc       $pdata$II_step_two         00000001800c5cbc     libmpg123:layer2.obj
 0004:00001cc8       $pdata$6$II_step_two       00000001800c5cc8     libmpg123:layer2.obj
 0004:00001cd4       $pdata$7$II_step_two       00000001800c5cd4     libmpg123:layer2.obj
 0004:00001ce0       $pdata$II_select_table     00000001800c5ce0     libmpg123:layer2.obj
 0004:00001cec       $pdata$INT123_do_layer2    00000001800c5cec     libmpg123:layer2.obj
 0004:00001cf8       $pdata$INT123_ntom_val     00000001800c5cf8     libmpg123:ntom.obj
 0004:00001d04       $pdata$0$INT123_ntom_val   00000001800c5d04     libmpg123:ntom.obj
 0004:00001d10       $pdata$1$INT123_ntom_val   00000001800c5d10     libmpg123:ntom.obj
 0004:00001d1c       $pdata$INT123_init_layer3  00000001800c5d1c     libmpg123:layer3.obj
 0004:00001d28       $pdata$INT123_init_layer3_stuff 00000001800c5d28     libmpg123:layer3.obj
 0004:00001d34       $pdata$III_get_side_info   00000001800c5d34     libmpg123:layer3.obj
 0004:00001d40       $pdata$III_get_scale_factors_1 00000001800c5d40     libmpg123:layer3.obj
 0004:00001d4c       $pdata$III_get_scale_factors_2 00000001800c5d4c     libmpg123:layer3.obj
 0004:00001d58       $pdata$III_dequantize_sample 00000001800c5d58     libmpg123:layer3.obj
 0004:00001d64       $pdata$1$III_dequantize_sample 00000001800c5d64     libmpg123:layer3.obj
 0004:00001d70       $pdata$III_i_stereo        00000001800c5d70     libmpg123:layer3.obj
 0004:00001d7c       $pdata$2$III_i_stereo      00000001800c5d7c     libmpg123:layer3.obj
 0004:00001d88       $pdata$3$III_i_stereo      00000001800c5d88     libmpg123:layer3.obj
 0004:00001d94       $pdata$INT123_dct36        00000001800c5d94     libmpg123:layer3.obj
 0004:00001da0       $pdata$dct12               00000001800c5da0     libmpg123:layer3.obj
 0004:00001dac       $pdata$III_hybrid          00000001800c5dac     libmpg123:layer3.obj
 0004:00001db8       $pdata$INT123_do_layer3    00000001800c5db8     libmpg123:layer3.obj
 0004:00001dc4       $pdata$2$INT123_do_layer3  00000001800c5dc4     libmpg123:layer3.obj
 0004:00001dd0       $pdata$3$INT123_do_layer3  00000001800c5dd0     libmpg123:layer3.obj
 0004:00001ddc       $pdata$sscanf              00000001800c5ddc     libmpg123:parse.obj
 0004:00001de8       $pdata$check_lame_tag      00000001800c5de8     libmpg123:parse.obj
 0004:00001df4       $pdata$4$check_lame_tag    00000001800c5df4     libmpg123:parse.obj
 0004:00001e00       $pdata$5$check_lame_tag    00000001800c5e00     libmpg123:parse.obj
 0004:00001e0c       $pdata$6$check_lame_tag    00000001800c5e0c     libmpg123:parse.obj
 0004:00001e18       $pdata$INT123_read_frame   00000001800c5e18     libmpg123:parse.obj
 0004:00001e24       $pdata$2$INT123_read_frame 00000001800c5e24     libmpg123:parse.obj
 0004:00001e30       $pdata$4$INT123_read_frame 00000001800c5e30     libmpg123:parse.obj
 0004:00001e3c       $pdata$decode_header       00000001800c5e3c     libmpg123:parse.obj
 0004:00001e48       $pdata$do_readahead        00000001800c5e48     libmpg123:parse.obj
 0004:00001e54       $pdata$skip_junk           00000001800c5e54     libmpg123:parse.obj
 0004:00001e60       $pdata$wetwork             00000001800c5e60     libmpg123:parse.obj
 0004:00001e6c       $pdata$2$wetwork           00000001800c5e6c     libmpg123:parse.obj
 0004:00001e78       $pdata$3$wetwork           00000001800c5e78     libmpg123:parse.obj
 0004:00001e84       $pdata$4$wetwork           00000001800c5e84     libmpg123:parse.obj
 0004:00001e90       $pdata$5$wetwork           00000001800c5e90     libmpg123:parse.obj
 0004:00001e9c       $pdata$INT123_make_decode_tables 00000001800c5e9c     libmpg123:tabinit.obj
 0004:00001ea8       $pdata$INT123_make_conv16to8_table 00000001800c5ea8     libmpg123:tabinit.obj
 0004:00001eb4       $pdata$7$INT123_make_conv16to8_table 00000001800c5eb4     libmpg123:tabinit.obj
 0004:00001ec0       $pdata$8$INT123_make_conv16to8_table 00000001800c5ec0     libmpg123:tabinit.obj
 0004:00001ecc       $pdata$INT123_synth_1to1_s32 00000001800c5ecc     libmpg123:synth_s32.obj
 0004:00001ed8       $pdata$INT123_synth_1to1_s32_mono 00000001800c5ed8     libmpg123:synth_s32.obj
 0004:00001ee4       $pdata$INT123_synth_1to1_s32_m2s 00000001800c5ee4     libmpg123:synth_s32.obj
 0004:00001ef0       $pdata$INT123_synth_1to1_s32_i386 00000001800c5ef0     libmpg123:synth_s32.obj
 0004:00001efc       $pdata$INT123_synth_2to1_s32 00000001800c5efc     libmpg123:synth_s32.obj
 0004:00001f08       $pdata$INT123_synth_2to1_s32_mono 00000001800c5f08     libmpg123:synth_s32.obj
 0004:00001f14       $pdata$INT123_synth_2to1_s32_m2s 00000001800c5f14     libmpg123:synth_s32.obj
 0004:00001f20       $pdata$INT123_synth_2to1_s32_i386 00000001800c5f20     libmpg123:synth_s32.obj
 0004:00001f2c       $pdata$INT123_synth_4to1_s32 00000001800c5f2c     libmpg123:synth_s32.obj
 0004:00001f38       $pdata$INT123_synth_4to1_s32_mono 00000001800c5f38     libmpg123:synth_s32.obj
 0004:00001f44       $pdata$INT123_synth_4to1_s32_m2s 00000001800c5f44     libmpg123:synth_s32.obj
 0004:00001f50       $pdata$INT123_synth_4to1_s32_i386 00000001800c5f50     libmpg123:synth_s32.obj
 0004:00001f5c       $pdata$INT123_synth_ntom_s32_mono 00000001800c5f5c     libmpg123:synth_s32.obj
 0004:00001f68       $pdata$INT123_synth_ntom_s32_m2s 00000001800c5f68     libmpg123:synth_s32.obj
 0004:00001f74       $pdata$INT123_synth_ntom_s32 00000001800c5f74     libmpg123:synth_s32.obj
 0004:00001f80       $pdata$INT123_synth_1to1   00000001800c5f80     libmpg123:synth.obj
 0004:00001f8c       $pdata$INT123_synth_1to1_mono 00000001800c5f8c     libmpg123:synth.obj
 0004:00001f98       $pdata$INT123_synth_1to1_m2s 00000001800c5f98     libmpg123:synth.obj
 0004:00001fa4       $pdata$INT123_synth_1to1_i386 00000001800c5fa4     libmpg123:synth.obj
 0004:00001fb0       $pdata$INT123_synth_2to1   00000001800c5fb0     libmpg123:synth.obj
 0004:00001fbc       $pdata$INT123_synth_2to1_mono 00000001800c5fbc     libmpg123:synth.obj
 0004:00001fc8       $pdata$INT123_synth_2to1_m2s 00000001800c5fc8     libmpg123:synth.obj
 0004:00001fd4       $pdata$INT123_synth_2to1_i386 00000001800c5fd4     libmpg123:synth.obj
 0004:00001fe0       $pdata$INT123_synth_4to1   00000001800c5fe0     libmpg123:synth.obj
 0004:00001fec       $pdata$INT123_synth_4to1_mono 00000001800c5fec     libmpg123:synth.obj
 0004:00001ff8       $pdata$INT123_synth_4to1_m2s 00000001800c5ff8     libmpg123:synth.obj
 0004:00002004       $pdata$INT123_synth_4to1_i386 00000001800c6004     libmpg123:synth.obj
 0004:00002010       $pdata$INT123_synth_ntom_mono 00000001800c6010     libmpg123:synth.obj
 0004:0000201c       $pdata$INT123_synth_ntom_m2s 00000001800c601c     libmpg123:synth.obj
 0004:00002028       $pdata$INT123_synth_ntom   00000001800c6028     libmpg123:synth.obj
 0004:00002034       $pdata$INT123_synth_1to1_real 00000001800c6034     libmpg123:synth_real.obj
 0004:00002040       $pdata$INT123_synth_1to1_real_mono 00000001800c6040     libmpg123:synth_real.obj
 0004:0000204c       $pdata$INT123_synth_1to1_real_m2s 00000001800c604c     libmpg123:synth_real.obj
 0004:00002058       $pdata$INT123_synth_1to1_real_i386 00000001800c6058     libmpg123:synth_real.obj
 0004:00002064       $pdata$INT123_synth_2to1_real 00000001800c6064     libmpg123:synth_real.obj
 0004:00002070       $pdata$INT123_synth_2to1_real_mono 00000001800c6070     libmpg123:synth_real.obj
 0004:0000207c       $pdata$INT123_synth_2to1_real_m2s 00000001800c607c     libmpg123:synth_real.obj
 0004:00002088       $pdata$INT123_synth_2to1_real_i386 00000001800c6088     libmpg123:synth_real.obj
 0004:00002094       $pdata$INT123_synth_4to1_real 00000001800c6094     libmpg123:synth_real.obj
 0004:000020a0       $pdata$INT123_synth_4to1_real_mono 00000001800c60a0     libmpg123:synth_real.obj
 0004:000020ac       $pdata$INT123_synth_4to1_real_m2s 00000001800c60ac     libmpg123:synth_real.obj
 0004:000020b8       $pdata$INT123_synth_4to1_real_i386 00000001800c60b8     libmpg123:synth_real.obj
 0004:000020c4       $pdata$INT123_synth_ntom_real_mono 00000001800c60c4     libmpg123:synth_real.obj
 0004:000020d0       $pdata$INT123_synth_ntom_real_m2s 00000001800c60d0     libmpg123:synth_real.obj
 0004:000020dc       $pdata$INT123_synth_ntom_real 00000001800c60dc     libmpg123:synth_real.obj
 0004:000020e8       $pdata$INT123_synth_1to1_8bit 00000001800c60e8     libmpg123:synth_8bit.obj
 0004:000020f4       $pdata$INT123_synth_1to1_8bit_mono 00000001800c60f4     libmpg123:synth_8bit.obj
 0004:00002100       $pdata$INT123_synth_1to1_8bit_m2s 00000001800c6100     libmpg123:synth_8bit.obj
 0004:0000210c       $pdata$INT123_synth_1to1_8bit_i386 00000001800c610c     libmpg123:synth_8bit.obj
 0004:00002118       $pdata$INT123_synth_1to1_8bit_wrap 00000001800c6118     libmpg123:synth_8bit.obj
 0004:00002124       $pdata$INT123_synth_1to1_8bit_wrap_mono 00000001800c6124     libmpg123:synth_8bit.obj
 0004:00002130       $pdata$INT123_synth_1to1_8bit_wrap_m2s 00000001800c6130     libmpg123:synth_8bit.obj
 0004:0000213c       $pdata$INT123_synth_2to1_8bit 00000001800c613c     libmpg123:synth_8bit.obj
 0004:00002148       $pdata$INT123_synth_2to1_8bit_mono 00000001800c6148     libmpg123:synth_8bit.obj
 0004:00002154       $pdata$INT123_synth_2to1_8bit_m2s 00000001800c6154     libmpg123:synth_8bit.obj
 0004:00002160       $pdata$INT123_synth_2to1_8bit_i386 00000001800c6160     libmpg123:synth_8bit.obj
 0004:0000216c       $pdata$INT123_synth_4to1_8bit 00000001800c616c     libmpg123:synth_8bit.obj
 0004:00002178       $pdata$INT123_synth_4to1_8bit_mono 00000001800c6178     libmpg123:synth_8bit.obj
 0004:00002184       $pdata$INT123_synth_4to1_8bit_m2s 00000001800c6184     libmpg123:synth_8bit.obj
 0004:00002190       $pdata$INT123_synth_4to1_8bit_i386 00000001800c6190     libmpg123:synth_8bit.obj
 0004:0000219c       $pdata$INT123_synth_ntom_8bit_mono 00000001800c619c     libmpg123:synth_8bit.obj
 0004:000021a8       $pdata$INT123_synth_ntom_8bit_m2s 00000001800c61a8     libmpg123:synth_8bit.obj
 0004:000021b4       $pdata$INT123_synth_ntom_8bit 00000001800c61b4     libmpg123:synth_8bit.obj
 0004:000021c0       $pdata$I_step_one          00000001800c61c0     libmpg123:layer1.obj
 0004:000021cc       $pdata$0$I_step_one        00000001800c61cc     libmpg123:layer1.obj
 0004:000021d8       $pdata$1$I_step_one        00000001800c61d8     libmpg123:layer1.obj
 0004:000021e4       $pdata$I_step_two          00000001800c61e4     libmpg123:layer1.obj
 0004:000021f0       $pdata$0$I_step_two        00000001800c61f0     libmpg123:layer1.obj
 0004:000021fc       $pdata$1$I_step_two        00000001800c61fc     libmpg123:layer1.obj
 0004:00002208       $pdata$INT123_do_layer1    00000001800c6208     libmpg123:layer1.obj
 0004:00002214       $pdata$INT123_dct64        00000001800c6214     libmpg123:dct64.obj
 0004:00002220       $pdata$dct64_1             00000001800c6220     libmpg123:dct64_i386.obj
 0004:0000222c       $pdata$init_xrpow_core_sse 00000001800c622c     liblamevectorroutines:xmm_quantize_sub.obj
 0004:00002250       $pdata$??2@YAPEAX_K@Z      00000001800c6250     LIBCMT:new_scalar.obj
 0004:0000225c       $pdata$?dllmain_crt_dispatch@@YAHQEAUHINSTANCE__@@KQEAX@Z 00000001800c625c     LIBCMT:dll_dllmain.obj
 0004:00002268       $pdata$?dllmain_crt_process_attach@@YAHQEAUHINSTANCE__@@QEAX@Z 00000001800c6268     LIBCMT:dll_dllmain.obj
 0004:00002274       $pdata$?dllmain_crt_process_detach@@YAH_N@Z 00000001800c6274     LIBCMT:dll_dllmain.obj
 0004:00002280       $pdata$?dllmain_dispatch@@YAHQEAUHINSTANCE__@@KQEAX@Z 00000001800c6280     LIBCMT:dll_dllmain.obj
 0004:0000228c       $pdata$_DllMainCRTStartup  00000001800c628c     LIBCMT:dll_dllmain.obj
 0004:00002298       $pdata$__raise_securityfailure 00000001800c6298     LIBCMT:gs_report.obj
 0004:000022a4       $pdata$__report_gsfailure  00000001800c62a4     LIBCMT:gs_report.obj
 0004:000022b0       $pdata$__report_rangecheckfailure 00000001800c62b0     LIBCMT:gs_report.obj
 0004:000022bc       $pdata$__report_securityfailure 00000001800c62bc     LIBCMT:gs_report.obj
 0004:000022c8       $pdata$capture_current_context 00000001800c62c8     LIBCMT:gs_report.obj
 0004:000022d4       $pdata$capture_previous_context 00000001800c62d4     LIBCMT:gs_report.obj
 0004:000022e0       $pdata$??0bad_alloc@std@@QEAA@AEBV01@@Z 00000001800c62e0     LIBCMT:throw_bad_alloc.obj
 0004:000022ec       $pdata$??0bad_array_new_length@std@@QEAA@AEBV01@@Z 00000001800c62ec     LIBCMT:throw_bad_alloc.obj
 0004:000022f8       $pdata$??0exception@std@@QEAA@AEBV01@@Z 00000001800c62f8     LIBCMT:throw_bad_alloc.obj
 0004:00002304       $pdata$??_Gbad_array_new_length@std@@UEAAPEAXI@Z 00000001800c6304     LIBCMT:throw_bad_alloc.obj
 0004:00002304       $pdata$??_Gbad_alloc@std@@UEAAPEAXI@Z 00000001800c6304     LIBCMT:throw_bad_alloc.obj
 0004:00002304       $pdata$??_Gexception@std@@UEAAPEAXI@Z 00000001800c6304     LIBCMT:throw_bad_alloc.obj
 0004:00002310       $pdata$?__scrt_throw_std_bad_alloc@@YAXXZ 00000001800c6310     LIBCMT:throw_bad_alloc.obj
 0004:0000231c       $pdata$?__scrt_throw_std_bad_array_new_length@@YAXXZ 00000001800c631c     LIBCMT:throw_bad_alloc.obj
 0004:00002328       $pdata$__security_init_cookie 00000001800c6328     LIBCMT:gs_support.obj
 0004:00002334       $pdata$__scrt_initialize_default_local_stdio_options 00000001800c6334     LIBCMT:default_local_stdio_options.obj
 0004:00002340       $pdata$__scrt_acquire_startup_lock 00000001800c6340     LIBCMT:utility.obj
 0004:0000234c       $pdata$__scrt_dllmain_after_initialize_c 00000001800c634c     LIBCMT:utility.obj
 0004:00002358       $pdata$__scrt_dllmain_before_initialize_c 00000001800c6358     LIBCMT:utility.obj
 0004:00002364       $pdata$__scrt_dllmain_crt_thread_attach 00000001800c6364     LIBCMT:utility.obj
 0004:00002370       $pdata$__scrt_dllmain_crt_thread_detach 00000001800c6370     LIBCMT:utility.obj
 0004:0000237c       $pdata$__scrt_dllmain_exception_filter 00000001800c637c     LIBCMT:utility.obj
 0004:00002388       $pdata$__scrt_dllmain_uninitialize_c 00000001800c6388     LIBCMT:utility.obj
 0004:00002394       $pdata$__scrt_dllmain_uninitialize_critical 00000001800c6394     LIBCMT:utility.obj
 0004:000023a0       $pdata$__scrt_initialize_crt 00000001800c63a0     LIBCMT:utility.obj
 0004:000023ac       $pdata$__scrt_initialize_onexit_tables 00000001800c63ac     LIBCMT:utility.obj
 0004:000023b8       $pdata$__scrt_is_nonwritable_in_current_image 00000001800c63b8     LIBCMT:utility.obj
 0004:000023c4       $pdata$__scrt_release_startup_lock 00000001800c63c4     LIBCMT:utility.obj
 0004:000023d0       $pdata$__scrt_uninitialize_crt 00000001800c63d0     LIBCMT:utility.obj
 0004:000023dc       $pdata$__scrt_fastfail     00000001800c63dc     LIBCMT:utility_desktop.obj
 0004:000023e8       $pdata$_RTC_Initialize     00000001800c63e8     LIBCMT:initsect.obj
 0004:000023f4       $pdata$_RTC_Terminate      00000001800c63f4     LIBCMT:initsect.obj
 0004:00002400       $pdata$??_Gtype_info@@UEAAPEAXI@Z 00000001800c6400     LIBCMT:std_type_info_static.obj
 0004:0000240c       $pdata$__isa_available_init 00000001800c640c     LIBCMT:cpu_disp.obj
 0004:00002418       $pdata$__C_specific_handler 00000001800c6418     libvcruntime:riscchandler.obj
 0004:00002424       $pdata$__std_exception_copy 00000001800c6424     libvcruntime:std_exception.obj
 0004:00002430       $pdata$__std_exception_destroy 00000001800c6430     libvcruntime:std_exception.obj
 0004:0000243c       $pdata$_CxxThrowException  00000001800c643c     libvcruntime:throw.obj
 0004:00002448       $pdata$__std_type_info_destroy_list 00000001800c6448     libvcruntime:std_type_info.obj
 0004:00002454       $pdata$__vcrt_initialize   00000001800c6454     libvcruntime:initialization.obj
 0004:00002460       $pdata$__vcrt_thread_attach 00000001800c6460     libvcruntime:initialization.obj
 0004:0000246c       $pdata$__vcrt_thread_detach 00000001800c646c     libvcruntime:initialization.obj
 0004:00002478       $pdata$__vcrt_uninitialize 00000001800c6478     libvcruntime:initialization.obj
 0004:00002484       $pdata$__vcrt_uninitialize_critical 00000001800c6484     libvcruntime:initialization.obj
 0004:000024cc       $pdata$__DestructExceptionObject 00000001800c64cc     libvcruntime:ehhelpers.obj
 0004:000024d8       $pdata$__vcrt_freefls      00000001800c64d8     libvcruntime:per_thread_data.obj
 0004:000024e4       $pdata$__vcrt_freeptd      00000001800c64e4     libvcruntime:per_thread_data.obj
 0004:000024f0       $pdata$__vcrt_getptd_noexit 00000001800c64f0     libvcruntime:per_thread_data.obj
 0004:000024fc       $pdata$__vcrt_initialize_ptd 00000001800c64fc     libvcruntime:per_thread_data.obj
 0004:00002508       $pdata$__vcrt_uninitialize_ptd 00000001800c6508     libvcruntime:per_thread_data.obj
 0004:00002514       $pdata$__vcrt_initialize_locks 00000001800c6514     libvcruntime:locks.obj
 0004:00002520       $pdata$__vcrt_uninitialize_locks 00000001800c6520     libvcruntime:locks.obj
 0004:0000252c       $pdata$?try_get_function@@YAPEAXW4function_id@?A0xbfd18cd1@@QEBDQEBW4module_id@2@2@Z 00000001800c652c     libvcruntime:winapi_downlevel.obj
 0004:00002538       $pdata$__vcrt_FlsAlloc     00000001800c6538     libvcruntime:winapi_downlevel.obj
 0004:00002544       $pdata$__vcrt_FlsFree      00000001800c6544     libvcruntime:winapi_downlevel.obj
 0004:00002550       $pdata$__vcrt_FlsGetValue  00000001800c6550     libvcruntime:winapi_downlevel.obj
 0004:0000255c       $pdata$__vcrt_FlsSetValue  00000001800c655c     libvcruntime:winapi_downlevel.obj
 0004:00002568       $pdata$__vcrt_InitializeCriticalSectionEx 00000001800c6568     libvcruntime:winapi_downlevel.obj
 0004:00002574       $pdata$__vcrt_initialize_winapi_thunks 00000001800c6574     libvcruntime:winapi_downlevel.obj
 0004:00002580       $pdata$__vcrt_uninitialize_winapi_thunks 00000001800c6580     libvcruntime:winapi_downlevel.obj
 0004:000025bc       $pdata$??0_LocaleUpdate@@QEAA@QEAU__crt_locale_pointers@@@Z 00000001800c65bc     libucrt:stricmp.obj
 0004:000025c8       $pdata$_stricmp            00000001800c65c8     libucrt:stricmp.obj
 0004:000025d4       $pdata$_stricmp_l          00000001800c65d4     libucrt:stricmp.obj
 0004:000025e0       $pdata$?internal_isupper_l@@YA_NHQEAU__crt_locale_pointers@@@Z 00000001800c65e0     libucrt:tolower_toupper.obj
 0004:000025ec       $pdata$_tolower_l          00000001800c65ec     libucrt:tolower_toupper.obj
 0004:000025f8       $pdata$tolower             00000001800c65f8     libucrt:tolower_toupper.obj
 0004:00002610       $pdata$??$?RV<lambda_a62c933ada0517137acf5807a1eeac1f>@@AEAV<lambda_a31071773b9a94e445cbd5d04ef99106>@@V<lambda_56065050dbf3ada7e59a83db45153de3>@@@?$__crt_seh_guarded_call@H@@QEAAH$$QEAV<lambda_a62c933ada0517137acf5807a1eeac1f>@@AEAV<lambda_a31071773b9a94e445cbd5d04ef99106>@@$$QEAV<lambda_56065050dbf3ada7e59a83db45153de3>@@@Z 00000001800c6610     libucrt:output.obj
 0004:0000261c       $pdata$??$common_vsprintf@Vstandard_base@__crt_stdio_output@@D@@YAH_KQEAD0QEBDQEAU__crt_locale_pointers@@1@Z 00000001800c661c     libucrt:output.obj
 0004:00002628       $pdata$??$ensure_buffer_is_big_enough@D@formatting_buffer@__crt_stdio_output@@QEAA_N_K@Z 00000001800c6628     libucrt:output.obj
 0004:00002634       $pdata$??$type_case_integer_parse_into_buffer@I@?$output_processor@DV?$stream_output_adapter@D@__crt_stdio_output@@V?$standard_base@DV?$stream_output_adapter@D@__crt_stdio_output@@@2@@__crt_stdio_output@@AEAAXII_N@Z 00000001800c6634     libucrt:output.obj
 0004:00002634       $pdata$??$type_case_integer_parse_into_buffer@I@?$output_processor@DV?$string_output_adapter@D@__crt_stdio_output@@V?$standard_base@DV?$string_output_adapter@D@__crt_stdio_output@@@2@@__crt_stdio_output@@AEAAXII_N@Z 00000001800c6634     libucrt:output.obj
 0004:00002640       $pdata$??$type_case_integer_parse_into_buffer@_K@?$output_processor@DV?$stream_output_adapter@D@__crt_stdio_output@@V?$standard_base@DV?$stream_output_adapter@D@__crt_stdio_output@@@2@@__crt_stdio_output@@AEAAX_KI_N@Z 00000001800c6640     libucrt:output.obj
 0004:00002640       $pdata$??$type_case_integer_parse_into_buffer@_K@?$output_processor@DV?$string_output_adapter@D@__crt_stdio_output@@V?$standard_base@DV?$string_output_adapter@D@__crt_stdio_output@@@2@@__crt_stdio_output@@AEAAX_KI_N@Z 00000001800c6640     libucrt:output.obj
 0004:0000264c       $pdata$??$write_multiple_characters@V?$stream_output_adapter@D@__crt_stdio_output@@D@__crt_stdio_output@@YAXAEBV?$stream_output_adapter@D@0@DHQEAH@Z 00000001800c664c     libucrt:output.obj
 0004:00002658       $pdata$??$write_multiple_characters@V?$string_output_adapter@D@__crt_stdio_output@@D@__crt_stdio_output@@YAXAEBV?$string_output_adapter@D@0@DHQEAH@Z 00000001800c6658     libucrt:output.obj
 0004:00002664       $pdata$??R<lambda_a31071773b9a94e445cbd5d04ef99106>@@QEBAHXZ 00000001800c6664     libucrt:output.obj
 0004:00002670       $pdata$?force_decimal_point@__crt_stdio_output@@YAXPEADQEAU__crt_locale_pointers@@@Z 00000001800c6670     libucrt:output.obj
 0004:0000267c       $pdata$?parse_int_from_format_string@?$output_processor@DV?$string_output_adapter@D@__crt_stdio_output@@V?$standard_base@DV?$string_output_adapter@D@__crt_stdio_output@@@2@@__crt_stdio_output@@AEAA_NQEAH@Z 00000001800c667c     libucrt:output.obj
 0004:0000267c       $pdata$?parse_int_from_format_string@?$output_processor@DV?$stream_output_adapter@D@__crt_stdio_output@@V?$standard_base@DV?$stream_output_adapter@D@__crt_stdio_output@@@2@@__crt_stdio_output@@AEAA_NQEAH@Z 00000001800c667c     libucrt:output.obj
 0004:00002688       $pdata$?process@?$output_processor@DV?$stream_output_adapter@D@__crt_stdio_output@@V?$standard_base@DV?$stream_output_adapter@D@__crt_stdio_output@@@2@@__crt_stdio_output@@QEAAHXZ 00000001800c6688     libucrt:output.obj
 0004:00002694       $pdata$?process@?$output_processor@DV?$string_output_adapter@D@__crt_stdio_output@@V?$standard_base@DV?$string_output_adapter@D@__crt_stdio_output@@@2@@__crt_stdio_output@@QEAAHXZ 00000001800c6694     libucrt:output.obj
 0004:000026a0       $pdata$?state_case_normal@?$output_processor@DV?$stream_output_adapter@D@__crt_stdio_output@@V?$standard_base@DV?$stream_output_adapter@D@__crt_stdio_output@@@2@@__crt_stdio_output@@AEAA_NXZ 00000001800c66a0     libucrt:output.obj
 0004:000026ac       $pdata$?state_case_normal@?$output_processor@DV?$string_output_adapter@D@__crt_stdio_output@@V?$standard_base@DV?$string_output_adapter@D@__crt_stdio_output@@@2@@__crt_stdio_output@@AEAA_NXZ 00000001800c66ac     libucrt:output.obj
 0004:000026b8       $pdata$?state_case_normal_tchar@?$output_processor@DV?$stream_output_adapter@D@__crt_stdio_output@@V?$standard_base@DV?$stream_output_adapter@D@__crt_stdio_output@@@2@@__crt_stdio_output@@AEAA_ND@Z 00000001800c66b8     libucrt:output.obj
 0004:000026c4       $pdata$?state_case_normal_tchar@?$output_processor@DV?$string_output_adapter@D@__crt_stdio_output@@V?$standard_base@DV?$string_output_adapter@D@__crt_stdio_output@@@2@@__crt_stdio_output@@AEAA_ND@Z 00000001800c66c4     libucrt:output.obj
 0004:000026d0       $pdata$?state_case_size@?$output_processor@DV?$stream_output_adapter@D@__crt_stdio_output@@V?$standard_base@DV?$stream_output_adapter@D@__crt_stdio_output@@@2@@__crt_stdio_output@@AEAA_NXZ 00000001800c66d0     libucrt:output.obj
 0004:000026dc       $pdata$?state_case_size@?$output_processor@DV?$string_output_adapter@D@__crt_stdio_output@@V?$standard_base@DV?$string_output_adapter@D@__crt_stdio_output@@@2@@__crt_stdio_output@@AEAA_NXZ 00000001800c66dc     libucrt:output.obj
 0004:000026e8       $pdata$?state_case_type@?$output_processor@DV?$stream_output_adapter@D@__crt_stdio_output@@V?$standard_base@DV?$stream_output_adapter@D@__crt_stdio_output@@@2@@__crt_stdio_output@@AEAA_NXZ 00000001800c66e8     libucrt:output.obj
 0004:000026f4       $pdata$?state_case_type@?$output_processor@DV?$string_output_adapter@D@__crt_stdio_output@@V?$standard_base@DV?$string_output_adapter@D@__crt_stdio_output@@@2@@__crt_stdio_output@@AEAA_NXZ 00000001800c66f4     libucrt:output.obj
 0004:00002700       $pdata$?type_case_a@?$output_processor@DV?$stream_output_adapter@D@__crt_stdio_output@@V?$standard_base@DV?$stream_output_adapter@D@__crt_stdio_output@@@2@@__crt_stdio_output@@AEAA_NXZ 00000001800c6700     libucrt:output.obj
 0004:00002700       $pdata$?type_case_a@?$output_processor@DV?$string_output_adapter@D@__crt_stdio_output@@V?$standard_base@DV?$string_output_adapter@D@__crt_stdio_output@@@2@@__crt_stdio_output@@AEAA_NXZ 00000001800c6700     libucrt:output.obj
 0004:0000270c       $pdata$?type_case_c_tchar@?$output_processor@DV?$stream_output_adapter@D@__crt_stdio_output@@V?$standard_base@DV?$stream_output_adapter@D@__crt_stdio_output@@@2@@__crt_stdio_output@@AEAA_ND@Z 00000001800c670c     libucrt:output.obj
 0004:0000270c       $pdata$?type_case_c_tchar@?$output_processor@DV?$string_output_adapter@D@__crt_stdio_output@@V?$standard_base@DV?$string_output_adapter@D@__crt_stdio_output@@@2@@__crt_stdio_output@@AEAA_ND@Z 00000001800c670c     libucrt:output.obj
 0004:00002718       $pdata$?type_case_integer@?$output_processor@DV?$stream_output_adapter@D@__crt_stdio_output@@V?$standard_base@DV?$stream_output_adapter@D@__crt_stdio_output@@@2@@__crt_stdio_output@@AEAA_NI_N@Z 00000001800c6718     libucrt:output.obj
 0004:00002718       $pdata$?type_case_integer@?$output_processor@DV?$string_output_adapter@D@__crt_stdio_output@@V?$standard_base@DV?$string_output_adapter@D@__crt_stdio_output@@@2@@__crt_stdio_output@@AEAA_NI_N@Z 00000001800c6718     libucrt:output.obj
 0004:00002724       $pdata$?type_case_n@?$output_processor@DV?$stream_output_adapter@D@__crt_stdio_output@@V?$standard_base@DV?$stream_output_adapter@D@__crt_stdio_output@@@2@@__crt_stdio_output@@AEAA_NXZ 00000001800c6724     libucrt:output.obj
 0004:00002724       $pdata$?type_case_n@?$output_processor@DV?$string_output_adapter@D@__crt_stdio_output@@V?$standard_base@DV?$string_output_adapter@D@__crt_stdio_output@@@2@@__crt_stdio_output@@AEAA_NXZ 00000001800c6724     libucrt:output.obj
 0004:00002730       $pdata$?type_case_s@?$output_processor@DV?$stream_output_adapter@D@__crt_stdio_output@@V?$standard_base@DV?$stream_output_adapter@D@__crt_stdio_output@@@2@@__crt_stdio_output@@AEAA_NXZ 00000001800c6730     libucrt:output.obj
 0004:00002730       $pdata$?type_case_s@?$output_processor@DV?$string_output_adapter@D@__crt_stdio_output@@V?$standard_base@DV?$string_output_adapter@D@__crt_stdio_output@@@2@@__crt_stdio_output@@AEAA_NXZ 00000001800c6730     libucrt:output.obj
 0004:0000273c       $pdata$?validate_stream_is_ansi_if_required@?$__acrt_stdio_char_traits@D@@SA_NQEAU_iobuf@@@Z 00000001800c673c     libucrt:output.obj
 0004:00002748       $pdata$?write_stored_string_tchar@?$output_processor@DV?$stream_output_adapter@D@__crt_stdio_output@@V?$standard_base@DV?$stream_output_adapter@D@__crt_stdio_output@@@2@@__crt_stdio_output@@AEAA_ND@Z 00000001800c6748     libucrt:output.obj
 0004:00002754       $pdata$?write_stored_string_tchar@?$output_processor@DV?$string_output_adapter@D@__crt_stdio_output@@V?$standard_base@DV?$string_output_adapter@D@__crt_stdio_output@@@2@@__crt_stdio_output@@AEAA_ND@Z 00000001800c6754     libucrt:output.obj
 0004:00002760       $pdata$?write_string@?$string_output_adapter@D@__crt_stdio_output@@QEBAXQEBDHQEAHAEAV__crt_deferred_errno_cache@@@Z 00000001800c6760     libucrt:output.obj
 0004:0000276c       $pdata$?write_string_impl@?$output_adapter_common@DV?$stream_output_adapter@D@__crt_stdio_output@@@__crt_stdio_output@@IEBAXQEBDHQEAHAEAV__crt_deferred_errno_cache@@@Z 00000001800c676c     libucrt:output.obj
 0004:00002778       $pdata$__stdio_common_vfprintf 00000001800c6778     libucrt:output.obj
 0004:00002784       $pdata$??$parse_integer@KV?$c_string_character_source@D@__crt_strtox@@@__crt_strtox@@YAKQEAU__crt_locale_pointers@@V?$c_string_character_source@D@0@H_N@Z 00000001800c6784     libucrt:strtox.obj
 0004:00002790       $pdata$??$parse_integer@_KV?$c_string_character_source@D@__crt_strtox@@@__crt_strtox@@YA_KQEAU__crt_locale_pointers@@V?$c_string_character_source@D@0@H_N@Z 00000001800c6790     libucrt:strtox.obj
 0004:0000279c       $pdata$strtol              00000001800c679c     libucrt:strtox.obj
 0004:000027a8       $pdata$strtoull            00000001800c67a8     libucrt:strtox.obj
 0004:000027b4       $pdata$__acrt_initialize_stdio 00000001800c67b4     libucrt:_file.obj
 0004:000027c0       $pdata$__acrt_uninitialize_stdio 00000001800c67c0     libucrt:_file.obj
 0004:000027cc       $pdata$??$?RV<lambda_842d9ff0dc9ef11c61343bbaebe7f885>@@AEAV<lambda_c5860995281e5c4ce005b3de8f5874ee>@@V<lambda_d90129c13df834fdcbf8d2b88dafcf2d>@@@?$__crt_seh_guarded_call@X@@QEAAX$$QEAV<lambda_842d9ff0dc9ef11c61343bbaebe7f885>@@AEAV<lambda_c5860995281e5c4ce005b3de8f5874ee>@@$$QEAV<lambda_d90129c13df834fdcbf8d2b88dafcf2d>@@@Z 00000001800c67cc     libucrt:fflush.obj
 0004:000027d8       $pdata$??$?RV<lambda_886d6c58226a84441f68b9f2b8217b83>@@AEAV<lambda_ab61a845afdef5b7c387490eaf3616ee>@@V<lambda_f7f22ab5edc0698d5f6905b0d3f44752>@@@?$__crt_seh_guarded_call@X@@QEAAX$$QEAV<lambda_886d6c58226a84441f68b9f2b8217b83>@@AEAV<lambda_ab61a845afdef5b7c387490eaf3616ee>@@$$QEAV<lambda_f7f22ab5edc0698d5f6905b0d3f44752>@@@Z 00000001800c67d8     libucrt:fflush.obj
 0004:000027e4       $pdata$??$?RV<lambda_c376a267cfb53b6959b3b692ec76b120>@@AEAV<lambda_9a32fed5bf61b6b509b2d3f6003082a1>@@V<lambda_572fbb9fa0ab338edf41edfd4b5fcc8d>@@@?$__crt_seh_guarded_call@H@@QEAAH$$QEAV<lambda_c376a267cfb53b6959b3b692ec76b120>@@AEAV<lambda_9a32fed5bf61b6b509b2d3f6003082a1>@@$$QEAV<lambda_572fbb9fa0ab338edf41edfd4b5fcc8d>@@@Z 00000001800c67e4     libucrt:fflush.obj
 0004:000027f0       $pdata$?common_flush_all@@YAH_N@Z 00000001800c67f0     libucrt:fflush.obj
 0004:000027fc       $pdata$__acrt_stdio_flush_nolock 00000001800c67fc     libucrt:fflush.obj
 0004:00002808       $pdata$_fflush_nolock      00000001800c6808     libucrt:fflush.obj
 0004:00002814       $pdata$fflush              00000001800c6814     libucrt:fflush.obj
 0004:0000282c       $pdata$??$?RV<lambda_d80eeec6fff315bfe5c115232f3240e3>@@AEAV<lambda_6e4b09c48022b2350581041d5f6b0c4c>@@V<lambda_2358e3775559c9db80273638284d5e45>@@@?$__crt_seh_guarded_call@X@@QEAAX$$QEAV<lambda_d80eeec6fff315bfe5c115232f3240e3>@@AEAV<lambda_6e4b09c48022b2350581041d5f6b0c4c>@@$$QEAV<lambda_2358e3775559c9db80273638284d5e45>@@@Z 00000001800c682c     libucrt:exit.obj
 0004:00002838       $pdata$??R<lambda_6e4b09c48022b2350581041d5f6b0c4c>@@QEBA@XZ 00000001800c6838     libucrt:exit.obj
 0004:00002844       $pdata$?common_exit@@YAXHW4_crt_exit_cleanup_mode@@W4_crt_exit_return_mode@@@Z 00000001800c6844     libucrt:exit.obj
 0004:00002850       $pdata$?exit_or_terminate_process@@YAXI@Z 00000001800c6850     libucrt:exit.obj
 0004:0000285c       $pdata$?try_cor_exit_process@@YAXI@Z 00000001800c685c     libucrt:exit.obj
 0004:00002868       $pdata$qsort               00000001800c6868     libucrt:qsort.obj
 0004:00002874       $pdata$4$qsort             00000001800c6874     libucrt:qsort.obj
 0004:00002880       $pdata$5$qsort             00000001800c6880     libucrt:qsort.obj
 0004:0000288c       $pdata$__ascii_strnicmp    00000001800c688c     libucrt:strnicmp.obj
 0004:00002898       $pdata$_strnicmp           00000001800c6898     libucrt:strnicmp.obj
 0004:000028a4       $pdata$_strnicmp_l         00000001800c68a4     libucrt:strnicmp.obj
 0004:000028b0       $pdata$??$common_atof_l@D@@YANQEBDQEAU__crt_locale_pointers@@@Z 00000001800c68b0     libucrt:atof.obj
 0004:000028bc       $pdata$??$parse_floating_point@V?$c_string_character_source@D@__crt_strtox@@N@__crt_strtox@@YA?AW4SLD_STATUS@@QEAU__crt_locale_pointers@@V?$c_string_character_source@D@0@QEAN@Z 00000001800c68bc     libucrt:atof.obj
 0004:000028c8       $pdata$??$parse_floating_point_from_source@V?$c_string_character_source@D@__crt_strtox@@@__crt_strtox@@YA?AW4floating_point_parse_result@0@QEAU__crt_locale_pointers@@AEAV?$c_string_character_source@D@0@AEAUfloating_point_string@0@@Z 00000001800c68c8     libucrt:atof.obj
 0004:000028d4       $pdata$??$parse_floating_point_possible_infinity@DV?$c_string_character_source@D@__crt_strtox@@PEBD@__crt_strtox@@YA?AW4floating_point_parse_result@0@AEADAEAV?$c_string_character_source@D@0@PEBD@Z 00000001800c68d4     libucrt:atof.obj
 0004:000028e0       $pdata$??$parse_floating_point_possible_nan@DV?$c_string_character_source@D@__crt_strtox@@PEBD@__crt_strtox@@YA?AW4floating_point_parse_result@0@AEADAEAV?$c_string_character_source@D@0@PEBD@Z 00000001800c68e0     libucrt:atof.obj
 0004:000028ec       $pdata$??$parse_floating_point_write_result@M@__crt_strtox@@YA?AW4SLD_STATUS@@W4floating_point_parse_result@0@AEBUfloating_point_string@0@QEAM@Z 00000001800c68ec     libucrt:atof.obj
 0004:000028f8       $pdata$??$parse_floating_point_write_result@N@__crt_strtox@@YA?AW4SLD_STATUS@@W4floating_point_parse_result@0@AEBUfloating_point_string@0@QEAN@Z 00000001800c68f8     libucrt:atof.obj
 0004:00002904       $pdata$?as_double@floating_point_value@__crt_strtox@@QEBAAEANXZ 00000001800c6904     libucrt:atof.obj
 0004:00002910       $pdata$?as_float@floating_point_value@__crt_strtox@@QEBAAEAMXZ 00000001800c6910     libucrt:atof.obj
 0004:0000291c       $pdata$?assemble_floating_point_value@__crt_strtox@@YA?AW4SLD_STATUS@@_KH_N1AEBVfloating_point_value@1@@Z 00000001800c691c     libucrt:atof.obj
 0004:00002928       $pdata$?assemble_floating_point_value_from_big_integer@__crt_strtox@@YA?AW4SLD_STATUS@@AEBUbig_integer@1@I_N1AEBVfloating_point_value@1@@Z 00000001800c6928     libucrt:atof.obj
 0004:00002934       $pdata$?convert_decimal_string_to_floating_type_common@__crt_strtox@@YA?AW4SLD_STATUS@@AEBUfloating_point_string@1@AEBVfloating_point_value@1@@Z 00000001800c6934     libucrt:atof.obj
 0004:00002940       $pdata$?convert_hexadecimal_string_to_floating_type_common@__crt_strtox@@YA?AW4SLD_STATUS@@AEBUfloating_point_string@1@AEBVfloating_point_value@1@@Z 00000001800c6940     libucrt:atof.obj
 0004:0000294c       $pdata$?divide@__crt_strtox@@YA_KAEAUbig_integer@1@AEBU21@@Z 00000001800c694c     libucrt:atof.obj
 0004:00002958       $pdata$0$?divide@__crt_strtox@@YA_KAEAUbig_integer@1@AEBU21@@Z 00000001800c6958     libucrt:atof.obj
 0004:00002964       $pdata$1$?divide@__crt_strtox@@YA_KAEAUbig_integer@1@AEBU21@@Z 00000001800c6964     libucrt:atof.obj
 0004:00002970       $pdata$memcpy_s            00000001800c6970     libucrt:cfout.obj
 0004:00002970       $pdata$memcpy_s            00000001800c6970     libucrt:atof.obj
 0004:0000297c       $pdata$__acrt_errno_map_os_error 00000001800c697c     libucrt:errno.obj
 0004:00002988       $pdata$__doserrno          00000001800c6988     libucrt:errno.obj
 0004:00002994       $pdata$_errno              00000001800c6994     libucrt:errno.obj
 0004:000029a0       $pdata$??$parse_floating_point@V?$input_adapter_character_source@V?$string_input_adapter@D@__crt_stdio_input@@@__crt_strtox@@M@__crt_strtox@@YA?AW4SLD_STATUS@@QEAU__crt_locale_pointers@@V?$input_adapter_character_source@V?$string_input_adapter@D@__crt_stdio_input@@@0@QEAM@Z 00000001800c69a0     libucrt:input.obj
 0004:000029ac       $pdata$??$parse_floating_point@V?$input_adapter_character_source@V?$string_input_adapter@D@__crt_stdio_input@@@__crt_strtox@@N@__crt_strtox@@YA?AW4SLD_STATUS@@QEAU__crt_locale_pointers@@V?$input_adapter_character_source@V?$string_input_adapter@D@__crt_stdio_input@@@0@QEAN@Z 00000001800c69ac     libucrt:input.obj
 0004:000029b8       $pdata$??$parse_floating_point_from_source@V?$input_adapter_character_source@V?$string_input_adapter@D@__crt_stdio_input@@@__crt_strtox@@@__crt_strtox@@YA?AW4floating_point_parse_result@0@QEAU__crt_locale_pointers@@AEAV?$input_adapter_character_source@V?$string_input_adapter@D@__crt_stdio_input@@@0@AEAUfloating_point_string@0@@Z 00000001800c69b8     libucrt:input.obj
 0004:000029c4       $pdata$??$parse_floating_point_possible_infinity@DV?$input_adapter_character_source@V?$string_input_adapter@D@__crt_stdio_input@@@__crt_strtox@@_K@__crt_strtox@@YA?AW4floating_point_parse_result@0@AEADAEAV?$input_adapter_character_source@V?$string_input_adapter@D@__crt_stdio_input@@@0@_K@Z 00000001800c69c4     libucrt:input.obj
 0004:000029d0       $pdata$??$parse_floating_point_possible_nan@DV?$input_adapter_character_source@V?$string_input_adapter@D@__crt_stdio_input@@@__crt_strtox@@_K@__crt_strtox@@YA?AW4floating_point_parse_result@0@AEADAEAV?$input_adapter_character_source@V?$string_input_adapter@D@__crt_stdio_input@@@0@_K@Z 00000001800c69d0     libucrt:input.obj
 0004:000029dc       $pdata$??$parse_floating_point_possible_nan_is_ind@DV?$input_adapter_character_source@V?$string_input_adapter@D@__crt_stdio_input@@@__crt_strtox@@@__crt_strtox@@YA_NAEADAEAV?$input_adapter_character_source@V?$string_input_adapter@D@__crt_stdio_input@@@0@@Z 00000001800c69dc     libucrt:input.obj
 0004:000029e8       $pdata$??$parse_floating_point_possible_nan_is_snan@DV?$input_adapter_character_source@V?$string_input_adapter@D@__crt_stdio_input@@@__crt_strtox@@@__crt_strtox@@YA_NAEADAEAV?$input_adapter_character_source@V?$string_input_adapter@D@__crt_stdio_input@@@0@@Z 00000001800c69e8     libucrt:input.obj
 0004:000029f4       $pdata$??$parse_integer@_KV?$input_adapter_character_source@V?$string_input_adapter@D@__crt_stdio_input@@@__crt_strtox@@@__crt_strtox@@YA_KQEAU__crt_locale_pointers@@V?$input_adapter_character_source@V?$string_input_adapter@D@__crt_stdio_input@@@0@H_N@Z 00000001800c69f4     libucrt:input.obj
 0004:00002a00       $pdata$??$process_floating_point_specifier_t@M@?$input_processor@DV?$string_input_adapter@D@__crt_stdio_input@@@__crt_stdio_input@@AEAA_NXZ 00000001800c6a00     libucrt:input.obj
 0004:00002a0c       $pdata$??$process_floating_point_specifier_t@N@?$input_processor@DV?$string_input_adapter@D@__crt_stdio_input@@@__crt_stdio_input@@AEAA_NXZ 00000001800c6a0c     libucrt:input.obj
 0004:00002a18       $pdata$??$process_string_specifier_tchar@D@?$input_processor@DV?$string_input_adapter@D@__crt_stdio_input@@@__crt_stdio_input@@AEAA_NW4conversion_mode@1@D@Z 00000001800c6a18     libucrt:input.obj
 0004:00002a24       $pdata$??$process_string_specifier_tchar@_W@?$input_processor@DV?$string_input_adapter@D@__crt_stdio_input@@@__crt_stdio_input@@AEAA_NW4conversion_mode@1@_W@Z 00000001800c6a24     libucrt:input.obj
 0004:00002a30       $pdata$??$skip_whitespace@Vstring_input_adapter@__crt_stdio_input@@D@__crt_stdio_input@@YAHAEAV?$string_input_adapter@D@0@QEAU__crt_locale_pointers@@@Z 00000001800c6a30     libucrt:input.obj
 0004:00002a3c       $pdata$?advance@?$format_string_parser@D@__crt_stdio_input@@QEAA_NXZ 00000001800c6a3c     libucrt:input.obj
 0004:00002a48       $pdata$?process@?$input_processor@DV?$string_input_adapter@D@__crt_stdio_input@@@__crt_stdio_input@@QEAAHXZ 00000001800c6a48     libucrt:input.obj
 0004:00002a54       $pdata$?process_conversion_specifier@?$input_processor@DV?$string_input_adapter@D@__crt_stdio_input@@@__crt_stdio_input@@AEAA_NXZ 00000001800c6a54     libucrt:input.obj
 0004:00002a60       $pdata$?process_floating_point_specifier@?$input_processor@DV?$string_input_adapter@D@__crt_stdio_input@@@__crt_stdio_input@@AEAA_NXZ 00000001800c6a60     libucrt:input.obj
 0004:00002a6c       $pdata$?process_integer_specifier@?$input_processor@DV?$string_input_adapter@D@__crt_stdio_input@@@__crt_stdio_input@@AEAA_NI_N@Z 00000001800c6a6c     libucrt:input.obj
 0004:00002a78       $pdata$?process_literal_character_tchar@?$input_processor@DV?$string_input_adapter@D@__crt_stdio_input@@@__crt_stdio_input@@AEAA_ND@Z 00000001800c6a78     libucrt:input.obj
 0004:00002a84       $pdata$?process_state@?$input_processor@DV?$string_input_adapter@D@__crt_stdio_input@@@__crt_stdio_input@@AEAA_NXZ 00000001800c6a84     libucrt:input.obj
 0004:00002a90       $pdata$?process_string_specifier@?$input_processor@DV?$string_input_adapter@D@__crt_stdio_input@@@__crt_stdio_input@@AEAA_NW4conversion_mode@2@@Z 00000001800c6a90     libucrt:input.obj
 0004:00002a9c       $pdata$?scan_optional_field_width@?$format_string_parser@D@__crt_stdio_input@@AEAA_NXZ 00000001800c6a9c     libucrt:input.obj
 0004:00002aa8       $pdata$?scan_scanset_range@?$format_string_parser@D@__crt_stdio_input@@AEAA_NXZ 00000001800c6aa8     libucrt:input.obj
 0004:00002ab4       $pdata$?write_character@?$input_processor@DV?$string_input_adapter@D@__crt_stdio_input@@@__crt_stdio_input@@AEAA_NQEFA_W_KAEAPEFA_WAEA_KD@Z 00000001800c6ab4     libucrt:input.obj
 0004:00002ac0       $pdata$?write_integer@?$input_processor@DV?$string_input_adapter@D@__crt_stdio_input@@@__crt_stdio_input@@AEAA_N_K@Z 00000001800c6ac0     libucrt:input.obj
 0004:00002acc       $pdata$__stdio_common_vsscanf 00000001800c6acc     libucrt:input.obj
 0004:00002ad8       $pdata$??$?RV<lambda_751a882b2c74d4b022dec766aa51a29a>@@AEAV<lambda_628dfdc04ba53c8bfc02c9951375f3f5>@@V<lambda_f6c7be5f7998530c34de24c7437d6b54>@@@?$__crt_seh_guarded_call@H@@QEAAH$$QEAV<lambda_751a882b2c74d4b022dec766aa51a29a>@@AEAV<lambda_628dfdc04ba53c8bfc02c9951375f3f5>@@$$QEAV<lambda_f6c7be5f7998530c34de24c7437d6b54>@@@Z 00000001800c6ad8     libucrt:close.obj
 0004:00002ae4       $pdata$_close              00000001800c6ae4     libucrt:close.obj
 0004:00002af0       $pdata$_close_nolock       00000001800c6af0     libucrt:close.obj
 0004:00002afc       $pdata$??$__acrt_mbs_to_wcs_cp@U__crt_win32_buffer_internal_dynamic_resizing@@@@YAHQEBDAEAV?$__crt_win32_buffer@_WU__crt_win32_buffer_internal_dynamic_resizing@@@@I@Z 00000001800c6afc     libucrt:open.obj
 0004:00002b08       $pdata$_callnewh           00000001800c6b08     libucrt:new_handler.obj
 0004:00002b14       $pdata$_query_new_handler  00000001800c6b14     libucrt:new_handler.obj
 0004:00002b20       $pdata$_initterm           00000001800c6b20     libucrt:initterm.obj
 0004:00002b2c       $pdata$_initterm_e         00000001800c6b2c     libucrt:initterm.obj
 0004:00002b38       $pdata$_seh_filter_exe     00000001800c6b38     libucrt:exception_filter.obj
 0004:00002b44       $pdata$??$parse_command_line@D@@YAXPEADPEAPEAD0PEA_K2@Z 00000001800c6b44     libucrt:argv_parsing.obj
 0004:00002b50       $pdata$__acrt_allocate_buffer_for_argv 00000001800c6b50     libucrt:argv_parsing.obj
 0004:00002b5c       $pdata$_configure_narrow_argv 00000001800c6b5c     libucrt:argv_parsing.obj
 0004:00002b68       $pdata$??$common_initialize_environment_nolock@D@@YAHXZ 00000001800c6b68     libucrt:environment_initialization.obj
 0004:00002b74       $pdata$??$create_environment@D@@YAQEAPEADQEAD@Z 00000001800c6b74     libucrt:environment_initialization.obj
 0004:00002b80       $pdata$??$free_environment@_W@@YAXQEAPEA_W@Z 00000001800c6b80     libucrt:environment_initialization.obj
 0004:00002b80       $pdata$??$free_environment@D@@YAXQEAPEAD@Z 00000001800c6b80     libucrt:environment_initialization.obj
 0004:00002b8c       $pdata$??$uninitialize_environment_internal@D@@YAXAEAPEAPEAD@Z 00000001800c6b8c     libucrt:environment_initialization.obj
 0004:00002b98       $pdata$??$uninitialize_environment_internal@_W@@YAXAEAPEAPEA_W@Z 00000001800c6b98     libucrt:environment_initialization.obj
 0004:00002ba4       $pdata$__dcrt_uninitialize_environments_nolock 00000001800c6ba4     libucrt:environment_initialization.obj
 0004:00002bb0       $pdata$??$?RV<lambda_7777bce6b2f8c936911f934f8298dc43>@@AEAV<lambda_f03950bc5685219e0bcd2087efbe011e>@@V<lambda_3883c3dff614d5e0c5f61bb1ac94921c>@@@?$__crt_seh_guarded_call@H@@QEAAH$$QEAV<lambda_7777bce6b2f8c936911f934f8298dc43>@@AEAV<lambda_f03950bc5685219e0bcd2087efbe011e>@@$$QEAV<lambda_3883c3dff614d5e0c5f61bb1ac94921c>@@@Z 00000001800c6bb0     libucrt:onexit.obj
 0004:00002bbc       $pdata$??R<lambda_f03950bc5685219e0bcd2087efbe011e>@@QEBAHXZ 00000001800c6bbc     libucrt:onexit.obj
 0004:00002bc8       $pdata$_execute_onexit_table 00000001800c6bc8     libucrt:onexit.obj
 0004:00002bd4       $pdata$initialize_c        00000001800c6bd4     libucrt:initialization.obj
 0004:00002be0       $pdata$uninitialize_environment 00000001800c6be0     libucrt:initialization.obj
 0004:00002bec       $pdata$initialize_pointers 00000001800c6bec     libucrt:initialization.obj
 0004:00002bf8       $pdata$uninitialize_allocated_memory 00000001800c6bf8     libucrt:initialization.obj
 0004:00002c04       $pdata$uninitialize_allocated_io_buffers 00000001800c6c04     libucrt:initialization.obj
 0004:00002c10       $pdata$__acrt_thread_attach 00000001800c6c10     libucrt:initialization.obj
 0004:00002c1c       $pdata$__acrt_thread_detach 00000001800c6c1c     libucrt:initialization.obj
 0004:00002c28       $pdata$__acrt_uninitialize 00000001800c6c28     libucrt:initialization.obj
 0004:00002c34       $pdata$__acrt_uninitialize_critical 00000001800c6c34     libucrt:initialization.obj
 0004:00002c40       $pdata$terminate           00000001800c6c40     libucrt:terminate.obj
 0004:00002c4c       $pdata$??$translate_text_mode_nolock@D@@YAHHQEAD_K@Z 00000001800c6c4c     libucrt:read.obj
 0004:00002c58       $pdata$??$translate_text_mode_nolock@_W@@YAHHQEA_W_K@Z 00000001800c6c58     libucrt:read.obj
 0004:00002c64       $pdata$?translate_ansi_or_utf8_nolock@@YAHHQEAD_KQEA_W1@Z 00000001800c6c64     libucrt:read.obj
 0004:00002c70       $pdata$_read               00000001800c6c70     libucrt:read.obj
 0004:00002c7c       $pdata$_read_nolock        00000001800c6c7c     libucrt:read.obj
 0004:00002c88       $pdata$??$common_lseek@J@@YAJHJH@Z 00000001800c6c88     libucrt:lseek.obj
 0004:00002c94       $pdata$??$common_lseek@_J@@YA_JH_JH@Z 00000001800c6c94     libucrt:lseek.obj
 0004:00002ca0       $pdata$??$common_lseek_nolock@J@@YAJHJH@Z 00000001800c6ca0     libucrt:lseek.obj
 0004:00002cac       $pdata$??$common_lseek_nolock@_J@@YA_JH_JH@Z 00000001800c6cac     libucrt:lseek.obj
 0004:00002cb8       $pdata$strcpy_s            00000001800c6cb8     libucrt:strcpy_s.obj
 0004:00002cc4       $pdata$abort               00000001800c6cc4     libucrt:abort.obj
 0004:00002cd0       $pdata$__acrt_call_reportfault 00000001800c6cd0     libucrt:invalid_parameter.obj
 0004:00002cdc       $pdata$_invalid_parameter  00000001800c6cdc     libucrt:invalid_parameter.obj
 0004:00002ce8       $pdata$_invalid_parameter_noinfo 00000001800c6ce8     libucrt:invalid_parameter.obj
 0004:00002cf4       $pdata$_invoke_watson      00000001800c6cf4     libucrt:invalid_parameter.obj
 0004:00002d00       $pdata$??$__acrt_wcs_to_mbs_cp@U__crt_win32_buffer_no_resizing@@@@YAHQEB_WAEAV?$__crt_win32_buffer@DU__crt_win32_buffer_no_resizing@@@@I@Z 00000001800c6d00     libucrt:getmodulefilenamea.obj
 0004:00002d0c       $pdata$__acrt_GetModuleFileNameA 00000001800c6d0c     libucrt:getmodulefilenamea.obj
 0004:00002d18       $pdata$??$?RV<lambda_450d765d439847d4c735a33c368b5fc0>@@AEAV<lambda_44731a7d0e6d81c3e6aa82d741081786>@@V<lambda_601a2a7da3b7a96e9554ac7215c4b07c>@@@?$__crt_seh_guarded_call@P6AXH@Z@@QEAAP6AXH@Z$$QEAV<lambda_450d765d439847d4c735a33c368b5fc0>@@AEAV<lambda_44731a7d0e6d81c3e6aa82d741081786>@@$$QEAV<lambda_601a2a7da3b7a96e9554ac7215c4b07c>@@@Z 00000001800c6d18     libucrt:signal.obj
 0004:00002d24       $pdata$__acrt_get_sigabrt_handler 00000001800c6d24     libucrt:signal.obj
 0004:00002d30       $pdata$raise               00000001800c6d30     libucrt:signal.obj
 0004:00002d3c       $pdata$??$?RV<lambda_0ae27a3a962d80f24befdcbee591983d>@@AEAV<lambda_8d0ee55de4b1038c4002e0adecdf1839>@@V<lambda_dc504788e8f1664fe9b84e20bfb512f2>@@@?$__crt_seh_guarded_call@X@@QEAAX$$QEAV<lambda_0ae27a3a962d80f24befdcbee591983d>@@AEAV<lambda_8d0ee55de4b1038c4002e0adecdf1839>@@$$QEAV<lambda_dc504788e8f1664fe9b84e20bfb512f2>@@@Z 00000001800c6d3c     libucrt:per_thread_data.obj
 0004:00002d48       $pdata$??$?RV<lambda_2d41944a1d46af3157314b8a01080d33>@@AEAV<lambda_8f455de75cd7d7f24b4096f044d8b9e6>@@V<lambda_aa500f224e6afead328df44964fe2772>@@@?$__crt_seh_guarded_call@X@@QEAAX$$QEAV<lambda_2d41944a1d46af3157314b8a01080d33>@@AEAV<lambda_8f455de75cd7d7f24b4096f044d8b9e6>@@$$QEAV<lambda_aa500f224e6afead328df44964fe2772>@@@Z 00000001800c6d48     libucrt:per_thread_data.obj
 0004:00002d54       $pdata$??$?RV<lambda_aa87e3671a710a21b5dc78c0bdf72e11>@@AEAV<lambda_92619d2358a28f41a33ba319515a20b9>@@V<lambda_6992ecaafeb10aed2b74cb1fae11a551>@@@?$__crt_seh_guarded_call@X@@QEAAX$$QEAV<lambda_aa87e3671a710a21b5dc78c0bdf72e11>@@AEAV<lambda_92619d2358a28f41a33ba319515a20b9>@@$$QEAV<lambda_6992ecaafeb10aed2b74cb1fae11a551>@@@Z 00000001800c6d54     libucrt:per_thread_data.obj
 0004:00002d60       $pdata$??$?RV<lambda_f2e299630e499de9f9a165e60fcd3db5>@@AEAV<lambda_2ae9d31cdba2644fcbeaf08da7c24588>@@V<lambda_40d01ff24d0e7b3814fdbdcee8eab3c7>@@@?$__crt_seh_guarded_call@X@@QEAAX$$QEAV<lambda_f2e299630e499de9f9a165e60fcd3db5>@@AEAV<lambda_2ae9d31cdba2644fcbeaf08da7c24588>@@$$QEAV<lambda_40d01ff24d0e7b3814fdbdcee8eab3c7>@@@Z 00000001800c6d60     libucrt:per_thread_data.obj
 0004:00002d6c       $pdata$?construct_ptd_array@@YAXQEAU__acrt_ptd@@@Z 00000001800c6d6c     libucrt:per_thread_data.obj
 0004:00002d78       $pdata$?destroy_fls@@YAXPEAX@Z 00000001800c6d78     libucrt:per_thread_data.obj
 0004:00002d84       $pdata$?destroy_ptd_array@@YAXQEAU__acrt_ptd@@@Z 00000001800c6d84     libucrt:per_thread_data.obj
 0004:00002d90       $pdata$?replace_current_thread_locale_nolock@@YAXQEAU__acrt_ptd@@QEAU__crt_locale_data@@@Z 00000001800c6d90     libucrt:per_thread_data.obj
 0004:00002d9c       $pdata$__acrt_freeptd      00000001800c6d9c     libucrt:per_thread_data.obj
 0004:00002da8       $pdata$__acrt_getptd       00000001800c6da8     libucrt:per_thread_data.obj
 0004:00002db4       $pdata$__acrt_getptd_head  00000001800c6db4     libucrt:per_thread_data.obj
 0004:00002dc0       $pdata$__acrt_getptd_noexit 00000001800c6dc0     libucrt:per_thread_data.obj
 0004:00002dcc       $pdata$__acrt_initialize_ptd 00000001800c6dcc     libucrt:per_thread_data.obj
 0004:00002dd8       $pdata$__acrt_uninitialize_ptd 00000001800c6dd8     libucrt:per_thread_data.obj
 0004:00002de4       $pdata$__acrt_update_locale_info 00000001800c6de4     libucrt:locale_update.obj
 0004:00002df0       $pdata$__acrt_update_multibyte_info 00000001800c6df0     libucrt:locale_update.obj
 0004:00002dfc       $pdata$??$?RV<lambda_410d79af7f07d98d83a3f525b3859a53>@@AEAV<lambda_3e16ef9562a7dcce91392c22ab16ea36>@@V<lambda_38119f0e861e05405d8a144b9b982f0a>@@@?$__crt_seh_guarded_call@X@@QEAAX$$QEAV<lambda_410d79af7f07d98d83a3f525b3859a53>@@AEAV<lambda_3e16ef9562a7dcce91392c22ab16ea36>@@$$QEAV<lambda_38119f0e861e05405d8a144b9b982f0a>@@@Z 00000001800c6dfc     libucrt:wsetlocale.obj
 0004:00002e08       $pdata$__acrt_uninitialize_locale 00000001800c6e08     libucrt:wsetlocale.obj
 0004:00002e14       $pdata$_calloc_base        00000001800c6e14     libucrt:calloc_base.obj
 0004:00002e20       $pdata$?initialize_inherited_file_handles_nolock@@YAXXZ 00000001800c6e20     libucrt:ioinit.obj
 0004:00002e2c       $pdata$?initialize_stdio_handles_nolock@@YAXXZ 00000001800c6e2c     libucrt:ioinit.obj
 0004:00002e38       $pdata$__acrt_initialize_lowio 00000001800c6e38     libucrt:ioinit.obj
 0004:00002e44       $pdata$__acrt_uninitialize_lowio 00000001800c6e44     libucrt:ioinit.obj
 0004:00002e50       $pdata$_free_base          00000001800c6e50     libucrt:free_base.obj
 0004:00002e5c       $pdata$__pctype_func       00000001800c6e5c     libucrt:ctype.obj
 0004:00002e68       $pdata$_isleadbyte_l       00000001800c6e68     libucrt:_wctype.obj
 0004:00002e74       $pdata$_isctype_l          00000001800c6e74     libucrt:isctype.obj
 0004:00002e80       $pdata$?__acrt_LCMapStringA_stat@@YAHPEAU__crt_locale_pointers@@PEB_WKPEBDHPEADHHH@Z 00000001800c6e80     libucrt:lcmapstringa.obj
 0004:00002e8c       $pdata$__acrt_LCMapStringA 00000001800c6e8c     libucrt:lcmapstringa.obj
 0004:00002e98       $pdata$isdigit             00000001800c6e98     libucrt:_ctype.obj
 0004:00002ea4       $pdata$isspace             00000001800c6ea4     libucrt:_ctype.obj
 0004:00002eb0       $pdata$_malloc_base        00000001800c6eb0     libucrt:malloc_base.obj
 0004:00002ebc       $pdata$_mbtowc_l           00000001800c6ebc     libucrt:mbtowc.obj
 0004:00002ec8       $pdata$_wctomb_s_l         00000001800c6ec8     libucrt:wctomb.obj
 0004:00002ed4       $pdata$wctomb_s            00000001800c6ed4     libucrt:wctomb.obj
 0004:00002ee0       $pdata$?fp_format_a@@YAHQEBNPEAD_KQEAD2H_NIQEAU__crt_locale_pointers@@@Z 00000001800c6ee0     libucrt:cvt.obj
 0004:00002eec       $pdata$?fp_format_e@@YAHQEBNQEAD_K12H_NIQEAU__crt_locale_pointers@@@Z 00000001800c6eec     libucrt:cvt.obj
 0004:00002ef8       $pdata$?fp_format_e_internal@@YAHQEAD_KH_NIQEAU_strflt@@2QEAU__crt_locale_pointers@@@Z 00000001800c6ef8     libucrt:cvt.obj
 0004:00002f04       $pdata$?fp_format_f_internal@@YAHQEAD_KHQEAU_strflt@@_NQEAU__crt_locale_pointers@@@Z 00000001800c6f04     libucrt:cvt.obj
 0004:00002f10       $pdata$?fp_format_g@@YAHQEBNQEAD_K12H_NIQEAU__crt_locale_pointers@@@Z 00000001800c6f10     libucrt:cvt.obj
 0004:00002f1c       $pdata$?fp_format_nan_or_infinity@@YAHW4__acrt_fp_class@@_NPEAD_K1@Z 00000001800c6f1c     libucrt:cvt.obj
 0004:00002f28       $pdata$__acrt_fp_format    00000001800c6f28     libucrt:cvt.obj
 0004:00002f34       $pdata$_fileno             00000001800c6f34     libucrt:fileno.obj
 0004:00002f40       $pdata$__acrt_stdio_begin_temporary_buffering_nolock 00000001800c6f40     libucrt:_sftbuf.obj
 0004:00002f4c       $pdata$__acrt_stdio_end_temporary_buffering_nolock 00000001800c6f4c     libucrt:_sftbuf.obj
 0004:00002f58       $pdata$?try_get_function@@YAPEAXW4function_id@?A0x391cf84c@@QEBDQEBW4module_id@2@2@Z 00000001800c6f58     libucrt:winapi_thunks.obj
 0004:00002f64       $pdata$__acrt_AppPolicyGetProcessTerminationMethodInternal 00000001800c6f64     libucrt:winapi_thunks.obj
 0004:00002f70       $pdata$__acrt_AreFileApisANSI 00000001800c6f70     libucrt:winapi_thunks.obj
 0004:00002f7c       $pdata$__acrt_FlsAlloc     00000001800c6f7c     libucrt:winapi_thunks.obj
 0004:00002f88       $pdata$__acrt_FlsFree      00000001800c6f88     libucrt:winapi_thunks.obj
 0004:00002f94       $pdata$__acrt_FlsGetValue  00000001800c6f94     libucrt:winapi_thunks.obj
 0004:00002fa0       $pdata$__acrt_FlsSetValue  00000001800c6fa0     libucrt:winapi_thunks.obj
 0004:00002fac       $pdata$__acrt_InitializeCriticalSectionEx 00000001800c6fac     libucrt:winapi_thunks.obj
 0004:00002fb8       $pdata$__acrt_LCMapStringEx 00000001800c6fb8     libucrt:winapi_thunks.obj
 0004:00002fc4       $pdata$__acrt_LocaleNameToLCID 00000001800c6fc4     libucrt:winapi_thunks.obj
 0004:00002fd0       $pdata$__acrt_initialize_winapi_thunks 00000001800c6fd0     libucrt:winapi_thunks.obj
 0004:00002fdc       $pdata$__acrt_uninitialize_winapi_thunks 00000001800c6fdc     libucrt:winapi_thunks.obj
 0004:00002fe8       $pdata$_fcloseall          00000001800c6fe8     libucrt:closeall.obj
 0004:00002ff4       $pdata$__acrt_stdio_free_buffer_nolock 00000001800c6ff4     libucrt:_freebuf.obj
 0004:00003000       $pdata$__acrt_initialize_locks 00000001800c7000     libucrt:locks.obj
 0004:0000300c       $pdata$__acrt_uninitialize_locks 00000001800c700c     libucrt:locks.obj
 0004:00003018       $pdata$??$?RV<lambda_a37b2b86f63e897a80ea819b0eb08c01>@@AEAV<lambda_38ce7e780aa69e748d6df282ebc68efe>@@V<lambda_99fb1378e971ab6e7edea83e3a7a83a2>@@@?$__crt_seh_guarded_call@H@@QEAAH$$QEAV<lambda_a37b2b86f63e897a80ea819b0eb08c01>@@AEAV<lambda_38ce7e780aa69e748d6df282ebc68efe>@@$$QEAV<lambda_99fb1378e971ab6e7edea83e3a7a83a2>@@@Z 00000001800c7018     libucrt:commit.obj
 0004:00003024       $pdata$_commit             00000001800c7024     libucrt:commit.obj
 0004:00003030       $pdata$?write_double_translated_ansi_nolock@@YA?AUwrite_result@?A0x17268360@@HQEBDI@Z 00000001800c7030     libucrt:write.obj
 0004:0000303c       $pdata$?write_text_ansi_nolock@@YA?AUwrite_result@?A0x17268360@@HQEBDI@Z 00000001800c703c     libucrt:write.obj
 0004:00003048       $pdata$?write_text_utf16le_nolock@@YA?AUwrite_result@?A0x17268360@@HQEBDI@Z 00000001800c7048     libucrt:write.obj
 0004:00003054       $pdata$?write_text_utf8_nolock@@YA?AUwrite_result@?A0x17268360@@HQEBDI@Z 00000001800c7054     libucrt:write.obj
 0004:00003060       $pdata$_write              00000001800c7060     libucrt:write.obj
 0004:0000306c       $pdata$_write_nolock       00000001800c706c     libucrt:write.obj
 0004:00003078       $pdata$??$write_buffer_nolock@D@@YA_NDV__crt_stdio_stream@@@Z 00000001800c7078     libucrt:_flsbuf.obj
 0004:00003084       $pdata$?stream_is_at_end_of_file_nolock@@YA_NV__crt_stdio_stream@@@Z 00000001800c7084     libucrt:_flsbuf.obj
 0004:00003090       $pdata$__acrt_stdio_flush_and_write_narrow_nolock 00000001800c7090     libucrt:_flsbuf.obj
 0004:0000309c       $pdata$__acrt_get_process_end_policy 00000001800c709c     libucrt:win_policies.obj
 0004:000030a8       $pdata$fegetround          00000001800c70a8     libucrt:fegetround.obj
 0004:000030b4       $pdata$strncpy_s           00000001800c70b4     libucrt:strncpy_s.obj
 0004:000030c0       $pdata$_realloc_base       00000001800c70c0     libucrt:realloc_base.obj
 0004:000030cc       $pdata$__acrt_lowio_create_handle_array 00000001800c70cc     libucrt:osfinfo.obj
 0004:000030d8       $pdata$__acrt_lowio_destroy_handle_array 00000001800c70d8     libucrt:osfinfo.obj
 0004:000030e4       $pdata$__acrt_lowio_ensure_fh_exists 00000001800c70e4     libucrt:osfinfo.obj
 0004:000030f0       $pdata$_free_osfhnd        00000001800c70f0     libucrt:osfinfo.obj
 0004:000030fc       $pdata$_get_osfhandle      00000001800c70fc     libucrt:osfinfo.obj
 0004:00003108       $pdata$??$__acrt_wcs_to_mbs_cp@U__crt_win32_buffer_internal_dynamic_resizing@@@@YAHQEB_WAEAV?$__crt_win32_buffer@DU__crt_win32_buffer_internal_dynamic_resizing@@@@I@Z 00000001800c7108     libucrt:argv_wildcards.obj
 0004:00003114       $pdata$??$common_expand_argv_wildcards@D@@YAHQEAPEADQEAPEAPEAD@Z 00000001800c7114     libucrt:argv_wildcards.obj
 0004:00003120       $pdata$??$copy_and_add_argument_to_buffer@D@@YAHQEBD0_KAEAV?$argument_list@D@?A0x5f5c8891@@@Z 00000001800c7120     libucrt:argv_wildcards.obj
 0004:0000312c       $pdata$??$expand_argument_wildcards@D@@YAHQEAD0AEAV?$argument_list@D@?A0x5f5c8891@@@Z 00000001800c712c     libucrt:argv_wildcards.obj
 0004:00003138       $pdata$??$?RV<lambda_efdfa57d1f175319df784efa44bb7b81>@@AEAV<lambda_5f0a4c1567f8adc6734073e5d1e1b35c>@@V<lambda_2e8a7d3640ea6ccb4c2413664c2db6fd>@@@?$__crt_seh_guarded_call@X@@QEAAX$$QEAV<lambda_efdfa57d1f175319df784efa44bb7b81>@@AEAV<lambda_5f0a4c1567f8adc6734073e5d1e1b35c>@@$$QEAV<lambda_2e8a7d3640ea6ccb4c2413664c2db6fd>@@@Z 00000001800c7138     libucrt:mbctype.obj
 0004:00003144       $pdata$?getSystemCP@@YAHH@Z 00000001800c7144     libucrt:mbctype.obj
 0004:00003150       $pdata$?setSBCS@@YAXPEAU__crt_multibyte_data@@@Z 00000001800c7150     libucrt:mbctype.obj
 0004:0000315c       $pdata$?setSBUpLow@@YAXPEAU__crt_multibyte_data@@@Z 00000001800c715c     libucrt:mbctype.obj
 0004:00003168       $pdata$?setmbcp_internal@@YAHH_NQEAU__acrt_ptd@@QEAPEAU__crt_multibyte_data@@@Z 00000001800c7168     libucrt:mbctype.obj
 0004:00003174       $pdata$?update_thread_multibyte_data_internal@@YAPEAU__crt_multibyte_data@@QEAU__acrt_ptd@@QEAPEAU1@@Z 00000001800c7174     libucrt:mbctype.obj
 0004:00003180       $pdata$__acrt_initialize_multibyte 00000001800c7180     libucrt:mbctype.obj
 0004:0000318c       $pdata$__acrt_update_thread_multibyte_data 00000001800c718c     libucrt:mbctype.obj
 0004:00003198       $pdata$_setmbcp_nolock     00000001800c7198     libucrt:mbctype.obj
 0004:000031a4       $pdata$?x_ismbbtype_l@@YAHPEAU__crt_locale_pointers@@IHH@Z 00000001800c71a4     libucrt:ismbbyte.obj
 0004:000031b0       $pdata$__acrt_initialize_command_line 00000001800c71b0     libucrt:argv_data.obj
 0004:000031bc       $pdata$__acrt_WideCharToMultiByte 00000001800c71bc     libucrt:widechartomultibyte.obj
 0004:000031c8       $pdata$__dcrt_get_narrow_environment_from_os 00000001800c71c8     libucrt:get_environment_from_os.obj
 0004:000031d4       $pdata$_recalloc_base      00000001800c71d4     libucrt:recalloc.obj
 0004:000031e0       $pdata$__acrt_initialize_heap 00000001800c71e0     libucrt:heap_handle.obj
 0004:000031ec       $pdata$__acrt_execute_initializers 00000001800c71ec     libucrt:shared_initialization.obj
 0004:000031f8       $pdata$__acrt_execute_uninitializers 00000001800c71f8     libucrt:shared_initialization.obj
 0004:00003204       $pdata$_isatty             00000001800c7204     libucrt:isatty.obj
 0004:00003210       $pdata$__acrt_free_locale  00000001800c7210     libucrt:locale_refcounting.obj
 0004:0000321c       $pdata$__acrt_locale_free_lc_time_if_unreferenced 00000001800c721c     libucrt:locale_refcounting.obj
 0004:00003228       $pdata$__acrt_release_locale_ref 00000001800c7228     libucrt:locale_refcounting.obj
 0004:00003234       $pdata$__acrt_update_thread_locale_data 00000001800c7234     libucrt:locale_refcounting.obj
 0004:00003240       $pdata$_updatetlocinfoEx_nolock 00000001800c7240     libucrt:locale_refcounting.obj
 0004:0000324c       $pdata$__acrt_locale_free_monetary 00000001800c724c     libucrt:initmon.obj
 0004:00003258       $pdata$__acrt_locale_free_numeric 00000001800c7258     libucrt:initnum.obj
 0004:00003264       $pdata$?free_crt_array_internal@@YAXQEAPEBX_K@Z 00000001800c7264     libucrt:inittime.obj
 0004:00003270       $pdata$__acrt_locale_free_time 00000001800c7270     libucrt:inittime.obj
 0004:0000327c       $pdata$__acrt_GetStringTypeA 00000001800c727c     libucrt:getstringtypea.obj
 0004:00003288       $pdata$?__mbrtowc_utf8@__crt_mbstring@@YA_KPEA_WPEBD_KPEAU_Mbstatet@@@Z 00000001800c7288     libucrt:mbrtowc.obj
 0004:00003294       $pdata$?__mbsrtowcs_utf8@__crt_mbstring@@YA_KPEA_WPEAPEBD_KPEAU_Mbstatet@@@Z 00000001800c7294     libucrt:mbrtowc.obj
 0004:000032a0       $pdata$?__c32rtomb_utf8@__crt_mbstring@@YA_KPEAD_UPEAU_Mbstatet@@@Z 00000001800c72a0     libucrt:c32rtomb.obj
 0004:000032ac       $pdata$__acrt_fp_strflt_to_string 00000001800c72ac     libucrt:_fptostr.obj
 0004:000032b8       $pdata$__acrt_fltout       00000001800c72b8     libucrt:cfout.obj
 0004:000032c4       $pdata$?GetTableIndexFromLocaleName@@YAHPEB_W@Z 00000001800c72c4     libucrt:lcidtoname_downlevel.obj
 0004:000032d0       $pdata$__acrt_DownlevelLocaleNameToLCID 00000001800c72d0     libucrt:lcidtoname_downlevel.obj
 0004:000032dc       $pdata$_fclose_nolock      00000001800c72dc     libucrt:fclose.obj
 0004:000032e8       $pdata$fclose              00000001800c72e8     libucrt:fclose.obj
 0004:000032f4       $pdata$_putwch_nolock      00000001800c72f4     libucrt:putwch.obj
 0004:00003300       $pdata$__acrt_stdio_allocate_buffer_nolock 00000001800c7300     libucrt:_getbuf.obj
 0004:0000330c       $pdata$__acrt_fenv_set_control 00000001800c730c     libucrt:_fenvutils.obj
 0004:00003318       $pdata$fallbackMethod      00000001800c7318     libucrt:strpbrk.obj
 0004:00003324       $pdata$strpbrk             00000001800c7324     libucrt:strpbrk.obj
 0004:00003330       $pdata$_mbsdec_l           00000001800c7330     libucrt:mbsdec.obj
 0004:0000333c       $pdata$?initialize_multibyte@@YAHXZ 00000001800c733c     libucrt:multibyte_initializer.obj
 0004:00003348       $pdata$_msize_base         00000001800c7348     libucrt:msize.obj
 0004:00003354       $pdata$?__mbrtoc32_utf8@__crt_mbstring@@YA_KPEA_UPEBD_KPEAU_Mbstatet@@@Z 00000001800c7354     libucrt:mbrtoc32.obj
 0004:00003360       $pdata$fegetenv            00000001800c7360     libucrt:fegetenv.obj
 0004:0000336c       $pdata$fesetenv            00000001800c736c     libucrt:fesetenv.obj
 0004:00003378       $pdata$feholdexcept        00000001800c7378     libucrt:feholdexcept.obj
 0004:00003390       $pdata$__dcrt_lowio_ensure_console_output_initialized 00000001800c7390     libucrt:initcon.obj
 0004:0000339c       $pdata$__dcrt_terminate_console_output 00000001800c739c     libucrt:initcon.obj
 0004:000033a8       $pdata$__dcrt_write_console 00000001800c73a8     libucrt:initcon.obj
 0004:000033b4       $pdata$_clearfp            00000001800c73b4     libucrt:ieee.obj
 0004:000033c0       $pdata$_call_matherr       00000001800c73c0     libucrt:libm_error.obj
 0004:000033cc       $pdata$_exception_enabled  00000001800c73cc     libucrt:libm_error.obj
 0004:000033d8       $pdata$_handle_error       00000001800c73d8     libucrt:libm_error.obj
 0004:000033e4       $pdata$_handle_errorf      00000001800c73e4     libucrt:libm_error.obj
 0004:000033f0       $pdata$__acrt_initialize_fma3 00000001800c73f0     libucrt:fma3_available.obj
 0004:000033fc       $pdata$_log10_special      00000001800c73fc     libucrt:log_special.obj
 0004:00003408       $pdata$_log10f_special     00000001800c7408     libucrt:log_special.obj
 0004:00003414       $pdata$_log_special        00000001800c7414     libucrt:log_special.obj
 0004:00003420       $pdata$_log_special_common 00000001800c7420     libucrt:log_special.obj
 0004:0000342c       $pdata$_logf_special_common 00000001800c742c     libucrt:log_special.obj
 0004:00003444       $pdata$_raise_exc          00000001800c7444     libucrt:fpexcept.obj
 0004:00003450       $pdata$_raise_exc_ex       00000001800c7450     libucrt:fpexcept.obj
 0004:0000345c       $pdata$_raise_excf         00000001800c745c     libucrt:fpexcept.obj
 0004:00003468       $pdata$_set_errno_from_matherr 00000001800c7468     libucrt:fpexcept.obj
 0004:00003474       $pdata$_clrfp              00000001800c7474     libucrt:fpctrl.obj
 0004:00003480       $pdata$_ctrlfp             00000001800c7480     libucrt:fpctrl.obj
 0004:0000348c       $pdata$_set_statfp         00000001800c748c     libucrt:fpctrl.obj
 0004:00003498       $pdata$_statfp             00000001800c7498     libucrt:fpctrl.obj
 0004:000034a4       $pdata$?DloadAcquireSectionWriteAccess@@YAXXZ 00000001800c74a4     DelayImp:delayhlp.obj
 0004:000034b0       $pdata$?DloadGetSRWLockFunctionPointers@@YAEXZ 00000001800c74b0     DelayImp:delayhlp.obj
 0004:000034bc       $pdata$?DloadMakePermanentImageCommit@@YAXPEAX_K@Z 00000001800c74bc     DelayImp:delayhlp.obj
 0004:000034c8       $pdata$?DloadObtainSection@@YAPEAXPEAK0@Z 00000001800c74c8     DelayImp:delayhlp.obj
 0004:000034d4       $pdata$?DloadProtectSection@@YAXKPEAK@Z 00000001800c74d4     DelayImp:delayhlp.obj
 0004:000034e0       $pdata$?DloadReleaseSectionWriteAccess@@YAXXZ 00000001800c74e0     DelayImp:delayhlp.obj
 0004:000034ec       $pdata$__delayLoadHelper2  00000001800c74ec     DelayImp:delayhlp.obj
 0004:000034f8       $pdata$_IsNonwritableInCurrentImage 00000001800c74f8     LIBCMT:pesect.obj
 0004:00003504       $pdata$__GSHandlerCheck    00000001800c7504     LIBCMT:gshandler.obj
 0004:00003510       $pdata$__GSHandlerCheckCommon 00000001800c7510     LIBCMT:gshandler.obj
 0004:00003534       $pdata$strrchr             00000001800c7534     libvcruntime:strrchr.obj
 0004:0000357c       $pdata$atan                00000001800c757c     libucrt:atan.obj
 0004:000035dc       $pdata$sqrt                00000001800c75dc     libucrt:sqrt.obj
 0004:00003630       $pdata$_sincos_special     00000001800c7630     libucrt:sincos_special.obj
 0004:0000363c       $pdata$_exp_special        00000001800c763c     libucrt:exp_special.obj
 0004:00003648       $pdata$_pow_special        00000001800c7648     libucrt:pow_special.obj
 0004:00003654       $pdata$_powf_special       00000001800c7654     libucrt:pow_special.obj
 0004:0000366c       $pdata$?fin$0@?0??dllmain_crt_process_attach@@YAHQEAUHINSTANCE__@@QEAX@Z@4HA 00000001800c766c     LIBCMT:dll_dllmain.obj
 0004:00003678       $pdata$?fin$0@?0??dllmain_crt_process_detach@@YAH_N@Z@4HA 00000001800c7678     LIBCMT:dll_dllmain.obj
 0004:00003684       $pdata$?filt$0@?0??dllmain_dispatch@@YAHQEAUHINSTANCE__@@KQEAX@Z@4HA 00000001800c7684     LIBCMT:dll_dllmain.obj
 0004:00003690       $pdata$__scrt_is_nonwritable_in_current_image$filt$0 00000001800c7690     LIBCMT:utility.obj
 0004:0000369c       $pdata$__DestructExceptionObject$filt$0 00000001800c769c     libvcruntime:ehhelpers.obj
 0004:000036a8       $pdata$?fin$0@?0???$?RV<lambda_842d9ff0dc9ef11c61343bbaebe7f885>@@AEAV<lambda_c5860995281e5c4ce005b3de8f5874ee>@@V<lambda_d90129c13df834fdcbf8d2b88dafcf2d>@@@?$__crt_seh_guarded_call@X@@QEAAX$$QEAV<lambda_842d9ff0dc9ef11c61343bbaebe7f885>@@AEAV<lambda_c5860995281e5c4ce005b3de8f5874ee>@@$$QEAV<lambda_d90129c13df834fdcbf8d2b88dafcf2d>@@@Z@4HA 00000001800c76a8     libucrt:fflush.obj
 0004:000036a8       $pdata$?fin$0@?0???$?RV<lambda_c376a267cfb53b6959b3b692ec76b120>@@AEAV<lambda_9a32fed5bf61b6b509b2d3f6003082a1>@@V<lambda_572fbb9fa0ab338edf41edfd4b5fcc8d>@@@?$__crt_seh_guarded_call@H@@QEAAH$$QEAV<lambda_c376a267cfb53b6959b3b692ec76b120>@@AEAV<lambda_9a32fed5bf61b6b509b2d3f6003082a1>@@$$QEAV<lambda_572fbb9fa0ab338edf41edfd4b5fcc8d>@@@Z@4HA 00000001800c76a8     libucrt:fflush.obj
 0004:000036a8       $pdata$?fin$0@?0???$?RV<lambda_a62c933ada0517137acf5807a1eeac1f>@@AEAV<lambda_a31071773b9a94e445cbd5d04ef99106>@@V<lambda_56065050dbf3ada7e59a83db45153de3>@@@?$__crt_seh_guarded_call@H@@QEAAH$$QEAV<lambda_a62c933ada0517137acf5807a1eeac1f>@@AEAV<lambda_a31071773b9a94e445cbd5d04ef99106>@@$$QEAV<lambda_56065050dbf3ada7e59a83db45153de3>@@@Z@4HA 00000001800c76a8     libucrt:output.obj
 0004:000036b4       $pdata$?fin$0@?0???$?RV<lambda_886d6c58226a84441f68b9f2b8217b83>@@AEAV<lambda_ab61a845afdef5b7c387490eaf3616ee>@@V<lambda_f7f22ab5edc0698d5f6905b0d3f44752>@@@?$__crt_seh_guarded_call@X@@QEAAX$$QEAV<lambda_886d6c58226a84441f68b9f2b8217b83>@@AEAV<lambda_ab61a845afdef5b7c387490eaf3616ee>@@$$QEAV<lambda_f7f22ab5edc0698d5f6905b0d3f44752>@@@Z@4HA 00000001800c76b4     libucrt:fflush.obj
 0004:000036c0       $pdata$?fin$0@?0???$?RV<lambda_efdfa57d1f175319df784efa44bb7b81>@@AEAV<lambda_5f0a4c1567f8adc6734073e5d1e1b35c>@@V<lambda_2e8a7d3640ea6ccb4c2413664c2db6fd>@@@?$__crt_seh_guarded_call@X@@QEAAX$$QEAV<lambda_efdfa57d1f175319df784efa44bb7b81>@@AEAV<lambda_5f0a4c1567f8adc6734073e5d1e1b35c>@@$$QEAV<lambda_2e8a7d3640ea6ccb4c2413664c2db6fd>@@@Z@4HA 00000001800c76c0     libucrt:mbctype.obj
 0004:000036c0       $pdata$?fin$0@?0???$?RV<lambda_7777bce6b2f8c936911f934f8298dc43>@@AEAV<lambda_f03950bc5685219e0bcd2087efbe011e>@@V<lambda_3883c3dff614d5e0c5f61bb1ac94921c>@@@?$__crt_seh_guarded_call@H@@QEAAH$$QEAV<lambda_7777bce6b2f8c936911f934f8298dc43>@@AEAV<lambda_f03950bc5685219e0bcd2087efbe011e>@@$$QEAV<lambda_3883c3dff614d5e0c5f61bb1ac94921c>@@@Z@4HA 00000001800c76c0     libucrt:onexit.obj
 0004:000036c0       $pdata$?fin$0@?0???$?RV<lambda_450d765d439847d4c735a33c368b5fc0>@@AEAV<lambda_44731a7d0e6d81c3e6aa82d741081786>@@V<lambda_601a2a7da3b7a96e9554ac7215c4b07c>@@@?$__crt_seh_guarded_call@P6AXH@Z@@QEAAP6AXH@Z$$QEAV<lambda_450d765d439847d4c735a33c368b5fc0>@@AEAV<lambda_44731a7d0e6d81c3e6aa82d741081786>@@$$QEAV<lambda_601a2a7da3b7a96e9554ac7215c4b07c>@@@Z@4HA 00000001800c76c0     libucrt:signal.obj
 0004:000036c0       $pdata$?fin$0@?0???$?RV<lambda_0ae27a3a962d80f24befdcbee591983d>@@AEAV<lambda_8d0ee55de4b1038c4002e0adecdf1839>@@V<lambda_dc504788e8f1664fe9b84e20bfb512f2>@@@?$__crt_seh_guarded_call@X@@QEAAX$$QEAV<lambda_0ae27a3a962d80f24befdcbee591983d>@@AEAV<lambda_8d0ee55de4b1038c4002e0adecdf1839>@@$$QEAV<lambda_dc504788e8f1664fe9b84e20bfb512f2>@@@Z@4HA 00000001800c76c0     libucrt:per_thread_data.obj
 0004:000036c0       $pdata$?fin$0@?0???$?RV<lambda_aa87e3671a710a21b5dc78c0bdf72e11>@@AEAV<lambda_92619d2358a28f41a33ba319515a20b9>@@V<lambda_6992ecaafeb10aed2b74cb1fae11a551>@@@?$__crt_seh_guarded_call@X@@QEAAX$$QEAV<lambda_aa87e3671a710a21b5dc78c0bdf72e11>@@AEAV<lambda_92619d2358a28f41a33ba319515a20b9>@@$$QEAV<lambda_6992ecaafeb10aed2b74cb1fae11a551>@@@Z@4HA 00000001800c76c0     libucrt:per_thread_data.obj
 0004:000036c0       $pdata$?fin$0@?0???$?RV<lambda_f2e299630e499de9f9a165e60fcd3db5>@@AEAV<lambda_2ae9d31cdba2644fcbeaf08da7c24588>@@V<lambda_40d01ff24d0e7b3814fdbdcee8eab3c7>@@@?$__crt_seh_guarded_call@X@@QEAAX$$QEAV<lambda_f2e299630e499de9f9a165e60fcd3db5>@@AEAV<lambda_2ae9d31cdba2644fcbeaf08da7c24588>@@$$QEAV<lambda_40d01ff24d0e7b3814fdbdcee8eab3c7>@@@Z@4HA 00000001800c76c0     libucrt:per_thread_data.obj
 0004:000036c0       $pdata$?fin$0@?0???$?RV<lambda_2d41944a1d46af3157314b8a01080d33>@@AEAV<lambda_8f455de75cd7d7f24b4096f044d8b9e6>@@V<lambda_aa500f224e6afead328df44964fe2772>@@@?$__crt_seh_guarded_call@X@@QEAAX$$QEAV<lambda_2d41944a1d46af3157314b8a01080d33>@@AEAV<lambda_8f455de75cd7d7f24b4096f044d8b9e6>@@$$QEAV<lambda_aa500f224e6afead328df44964fe2772>@@@Z@4HA 00000001800c76c0     libucrt:per_thread_data.obj
 0004:000036c0       $pdata$?fin$0@?0???$?RV<lambda_d80eeec6fff315bfe5c115232f3240e3>@@AEAV<lambda_6e4b09c48022b2350581041d5f6b0c4c>@@V<lambda_2358e3775559c9db80273638284d5e45>@@@?$__crt_seh_guarded_call@X@@QEAAX$$QEAV<lambda_d80eeec6fff315bfe5c115232f3240e3>@@AEAV<lambda_6e4b09c48022b2350581041d5f6b0c4c>@@$$QEAV<lambda_2358e3775559c9db80273638284d5e45>@@@Z@4HA 00000001800c76c0     libucrt:exit.obj
 0004:000036cc       $pdata$?filt$0@?0???R<lambda_6e4b09c48022b2350581041d5f6b0c4c>@@QEBA@XZ@4HA 00000001800c76cc     libucrt:exit.obj
 0004:000036d8       $pdata$?fin$0@?0???$?RV<lambda_a37b2b86f63e897a80ea819b0eb08c01>@@AEAV<lambda_38ce7e780aa69e748d6df282ebc68efe>@@V<lambda_99fb1378e971ab6e7edea83e3a7a83a2>@@@?$__crt_seh_guarded_call@H@@QEAAH$$QEAV<lambda_a37b2b86f63e897a80ea819b0eb08c01>@@AEAV<lambda_38ce7e780aa69e748d6df282ebc68efe>@@$$QEAV<lambda_99fb1378e971ab6e7edea83e3a7a83a2>@@@Z@4HA 00000001800c76d8     libucrt:commit.obj
 0004:000036d8       $pdata$?fin$0@?0???$?RV<lambda_751a882b2c74d4b022dec766aa51a29a>@@AEAV<lambda_628dfdc04ba53c8bfc02c9951375f3f5>@@V<lambda_f6c7be5f7998530c34de24c7437d6b54>@@@?$__crt_seh_guarded_call@H@@QEAAH$$QEAV<lambda_751a882b2c74d4b022dec766aa51a29a>@@AEAV<lambda_628dfdc04ba53c8bfc02c9951375f3f5>@@$$QEAV<lambda_f6c7be5f7998530c34de24c7437d6b54>@@@Z@4HA 00000001800c76d8     libucrt:close.obj
 0004:000036e4       $pdata$_query_new_handler$fin$0 00000001800c76e4     libucrt:new_handler.obj
 0004:000036f0       $pdata$_read$fin$0         00000001800c76f0     libucrt:read.obj
 0004:000036fc       $pdata$_write$fin$0        00000001800c76fc     libucrt:write.obj
 0004:000036fc       $pdata$?fin$0@?0???$common_lseek@_J@@YA_JH_JH@Z@4HA 00000001800c76fc     libucrt:lseek.obj
 0004:000036fc       $pdata$?fin$0@?0???$common_lseek@J@@YAJHJH@Z@4HA 00000001800c76fc     libucrt:lseek.obj
 0004:00003708       $pdata$raise$fin$0         00000001800c7708     libucrt:signal.obj
 0004:00003714       $pdata$?fin$0@?0???$?RV<lambda_410d79af7f07d98d83a3f525b3859a53>@@AEAV<lambda_3e16ef9562a7dcce91392c22ab16ea36>@@V<lambda_38119f0e861e05405d8a144b9b982f0a>@@@?$__crt_seh_guarded_call@X@@QEAAX$$QEAV<lambda_410d79af7f07d98d83a3f525b3859a53>@@AEAV<lambda_3e16ef9562a7dcce91392c22ab16ea36>@@$$QEAV<lambda_38119f0e861e05405d8a144b9b982f0a>@@@Z@4HA 00000001800c7714     libucrt:wsetlocale.obj
 0004:00003720       $pdata$__acrt_initialize_lowio$fin$0 00000001800c7720     libucrt:ioinit.obj
 0004:00003720       $pdata$__acrt_lowio_ensure_fh_exists$fin$0 00000001800c7720     libucrt:osfinfo.obj
 0004:0000372c       $pdata$_fcloseall$fin$0    00000001800c772c     libucrt:closeall.obj
 0004:00003738       $pdata$?fin$0@?0??update_thread_multibyte_data_internal@@YAPEAU__crt_multibyte_data@@QEAU__acrt_ptd@@QEAPEAU1@@Z@4HA 00000001800c7738     libucrt:mbctype.obj
 0004:00003744       $pdata$__acrt_update_thread_locale_data$fin$0 00000001800c7744     libucrt:locale_refcounting.obj
 0004:00003750       $pdata$fclose$fin$0        00000001800c7750     libucrt:fclose.obj
 0004:0000375c       $pdata$_ctrlfp$filt$0      00000001800c775c     libucrt:fpctrl.obj
 0004:00003768       $pdata$_IsNonwritableInCurrentImage$filt$0 00000001800c7768     LIBCMT:pesect.obj
 0005:00000000       __spec_table               00000001800c8000     LIBCMT:svml_dcos2_sse2.obj
 0005:00000980       dbA1                       00000001800c8980     LIBCMT:svml_dcos2_sse2.obj
 0005:00000990       dbA2                       00000001800c8990     LIBCMT:svml_dcos2_sse2.obj
 0005:000009a0       dbA3                       00000001800c89a0     LIBCMT:svml_dcos2_sse2.obj
 0005:000009b0       dbA4                       00000001800c89b0     LIBCMT:svml_dcos2_sse2.obj
 0005:000009c0       dbA5                       00000001800c89c0     LIBCMT:svml_dcos2_sse2.obj
 0005:000009d0       dbA6                       00000001800c89d0     LIBCMT:svml_dcos2_sse2.obj
 0005:000009e0       dbA7                       00000001800c89e0     LIBCMT:svml_dcos2_sse2.obj
 0005:000009f0       dbA8                       00000001800c89f0     LIBCMT:svml_dcos2_sse2.obj
 0005:00000a00       dbPi4                      00000001800c8a00     LIBCMT:svml_dcos2_sse2.obj
 0005:00000a10       dbPi3                      00000001800c8a10     LIBCMT:svml_dcos2_sse2.obj
 0005:00000a20       db05                       00000001800c8a20     LIBCMT:svml_dcos2_sse2.obj
 0005:00000a30       dbHUGE                     00000001800c8a30     LIBCMT:svml_dcos2_sse2.obj
 0005:00000a40       iABSMASK                   00000001800c8a40     LIBCMT:svml_dcos2_sse2.obj
 0005:00000a50       dbPi2                      00000001800c8a50     LIBCMT:svml_dcos2_sse2.obj
 0005:00000a60       dbInvPi                    00000001800c8a60     LIBCMT:svml_dcos2_sse2.obj
 0005:00000a70       dbPi1                      00000001800c8a70     LIBCMT:svml_dcos2_sse2.obj
 0005:00000a80       dbNegRS                    00000001800c8a80     LIBCMT:svml_dcos2_sse2.obj
 0005:00000a90       dbPio2                     00000001800c8a90     LIBCMT:svml_dcos2_sse2.obj
 0005:00000aa0       MMISIGNMASK                00000001800c8aa0     LIBCMT:svml_dcos2_sse2.obj
 0005:00000ab0       PI02C_4                    00000001800c8ab0     LIBCMT:svml_dcos2_sse2.obj
 0005:00000ac0       PI02C_3                    00000001800c8ac0     LIBCMT:svml_dcos2_sse2.obj
 0005:00000ad0       PI02C_2                    00000001800c8ad0     LIBCMT:svml_dcos2_sse2.obj
 0005:00000ae0       PI02C_1                    00000001800c8ae0     LIBCMT:svml_dcos2_sse2.obj
 0005:00000af0       PI02C_0                    00000001800c8af0     LIBCMT:svml_dcos2_sse2.obj
 0005:00000b00       RS                         00000001800c8b00     LIBCMT:svml_dcos2_sse2.obj
 0005:00000b10       MMI_ONE                    00000001800c8b10     LIBCMT:svml_dcos2_sse2.obj
 0005:00000b20       THE_PI02_INV               00000001800c8b20     LIBCMT:svml_dcos2_sse2.obj
 0005:00000b30       flAllOnes                  00000001800c8b30     LIBCMT:svml_dcos2_sse2.obj
 0005:00000b40       TWO_POW_30                 00000001800c8b40     LIBCMT:svml_dcos2_sse2.obj
 0005:00000c00       BT_Tbl                     00000001800c8c00     LIBCMT:svml_dlog2_sse2.obj
 0005:00002d00       dwInf                      00000001800cad00     LIBCMT:svml_dlog2_sse2.obj
 0005:00002d10       s_db1022xLn2               00000001800cad10     LIBCMT:svml_dlog2_sse2.obj
 0005:00002d20       s_db1022xLn2Lo             00000001800cad20     LIBCMT:svml_dlog2_sse2.obj
 0005:00002d30       dbP1                       00000001800cad30     LIBCMT:svml_dlog2_sse2.obj
 0005:00002d40       dbP2                       00000001800cad40     LIBCMT:svml_dlog2_sse2.obj
 0005:00002d50       dbP3                       00000001800cad50     LIBCMT:svml_dlog2_sse2.obj
 0005:00002d60       dbP4                       00000001800cad60     LIBCMT:svml_dlog2_sse2.obj
 0005:00002d70       dbP5                       00000001800cad70     LIBCMT:svml_dlog2_sse2.obj
 0005:00002d80       dbOne                      00000001800cad80     LIBCMT:svml_dlog2_sse2.obj
 0005:00002d90       dbZero                     00000001800cad90     LIBCMT:svml_dlog2_sse2.obj
 0005:00002da0       dbLog2Lo                   00000001800cada0     LIBCMT:svml_dlog2_sse2.obj
 0005:00002db0       iBias                      00000001800cadb0     LIBCMT:svml_dlog2_sse2.obj
 0005:00002dc0       iHi43Bits                  00000001800cadc0     LIBCMT:svml_dlog2_sse2.obj
 0005:00002dd0       dbLog2Hi                   00000001800cadd0     LIBCMT:svml_dlog2_sse2.obj
 0005:00002de0       iExpMask                   00000001800cade0     LIBCMT:svml_dlog2_sse2.obj
 0005:00002df0       i001fffff                  00000001800cadf0     LIBCMT:svml_dlog2_sse2.obj
 0005:00002e00       i00100000                  00000001800cae00     LIBCMT:svml_dlog2_sse2.obj
 0005:00002f00       INF_c_2044_0_4             00000001800caf00     LIBCMT:svml_dpow2_sse2.obj
 0005:00002f10       QNaN_c_2044_0_4            00000001800caf10     LIBCMT:svml_dpow2_sse2.obj
 0006:00000060       $R000000                   00000001800cb060     * linker generated manifest res *

 Exports

  ordinal    name

        1    _register_bindings_
